 main

 Timestamp is 5ad5f123 (Tue Apr 17 15:05:39 2018)

 Preferred load address is 0000000140000000

 Start         Length     Name                   Class
 0001:00000000 00000495H .text                   CODE
 0001:000004a0 00000081H .text$di                CODE
 0001:00000530 00013f7aH .text$mn                CODE
 0001:000144b0 00000012H .text$mn$00             CODE
 0001:000144d0 000003f0H .text$x                 CODE
 0001:000148c0 00000055H .text$yd                CODE
 0002:00000000 00000378H .idata$5                DATA
 0002:00000378 00000010H .00cfg                  DATA
 0002:00000388 00000008H .CRT$XCA                DATA
 0002:00000390 00000008H .CRT$XCAA               DATA
 0002:00000398 00000018H .CRT$XCU                DATA
 0002:000003b0 00000008H .CRT$XCZ                DATA
 0002:000003b8 00000008H .CRT$XIA                DATA
 0002:000003c0 00000008H .CRT$XIAA               DATA
 0002:000003c8 00000008H .CRT$XIAC               DATA
 0002:000003d0 00000018H .CRT$XIC                DATA
 0002:000003e8 00000008H .CRT$XIZ                DATA
 0002:000003f0 00000008H .CRT$XPA                DATA
 0002:000003f8 00000010H .CRT$XPX                DATA
 0002:00000408 00000008H .CRT$XPXA               DATA
 0002:00000410 00000008H .CRT$XPZ                DATA
 0002:00000418 00000008H .CRT$XTA                DATA
 0002:00000420 00000008H .CRT$XTZ                DATA
 0002:00000430 000080a4H .rdata                  DATA
 0002:000084d8 00000404H .rdata$r                DATA
 0002:000088e0 00000010H .rdata$zETW0            DATA
 0002:000088f0 00000077H .rdata$zETW1            DATA
 0002:00008967 0000002cH .rdata$zETW2            DATA
 0002:00008993 00000001H .rdata$zETW9            DATA
 0002:00008994 000003d4H .rdata$zzzdbg           DATA
 0002:00008d68 00000008H .rtc$IAA                DATA
 0002:00008d70 00000008H .rtc$IZZ                DATA
 0002:00008d78 00000008H .rtc$TAA                DATA
 0002:00008d80 00000008H .rtc$TZZ                DATA
 0002:00008d90 00001184H .xdata                  DATA
 0002:00009f18 00000244H .xdata$x                DATA
 0002:0000a15c 00000000H .edata                  DATA
 0002:0000a15c 00000064H .idata$2                DATA
 0002:0000a1c0 00000014H .idata$3                DATA
 0002:0000a1d8 00000378H .idata$4                DATA
 0002:0000a550 00000802H .idata$6                DATA
 0003:00000000 00000980H .data                   DATA
 0003:00000980 00000140H .data$r                 DATA
 0003:00000ac0 0000128cH .bss                    DATA
 0004:00000000 000015e4H .pdata                  DATA
 0005:00000000 000000f0H .gfids$y                DATA

  Address         Publics by Value              Rva+Base               Lib:Object

 0000:00000000       __guard_iat_table          0000000000000000     <absolute>
 0000:00000000       __guard_iat_count          0000000000000000     <absolute>
 0000:00000000       __guard_longjmp_table      0000000000000000     <absolute>
 0000:00000000       __guard_longjmp_count      0000000000000000     <absolute>
 0000:00000000       __guard_fids_count         0000000000000000     <absolute>
 0000:00000000       ___safe_se_handler_table   0000000000000000     <absolute>
 0000:00000000       ___safe_se_handler_count   0000000000000000     <absolute>
 0000:00000000       __guard_fids_table         0000000000000000     <absolute>
 0000:00000100       __guard_flags              0000000000000100     <absolute>
 0000:00000000       __ImageBase                0000000140000000     <linker-defined>
 0001:00000000       ?TraceLoggingRegister@__vcrt_trace_logging_provider@@YAJPEBU_TlgProvider_t@1@PEBU_GUID@@P6AX1KE_K2PEAU_EVENT_FILTER_DESCRIPTOR@@PEAX@Z4@Z 0000000140001000 f i libvcruntime:telemetry.obj
 0001:0000007c       ?_TlgEnableCallback@__vcrt_trace_logging_provider@@YAXPEBU_GUID@@KE_K1PEAU_EVENT_FILTER_DESCRIPTOR@@PEAX@Z 000000014000107c f i libvcruntime:telemetry.obj
 0001:00000140       ?_TlgWrite@__vcrt_trace_logging_provider@@YAJPEBU_TlgProvider_t@1@PEFBXPEBU_GUID@@2IPEAU_EVENT_DATA_DESCRIPTOR@@@Z 0000000140001140 f i libvcruntime:telemetry.obj
 0001:00000490       main                       0000000140001490 f   SDL2main:SDL_windows_main.obj
 0001:00000530       SDL_main                   0000000140001530 f   main.obj
 0001:00000750       ??0LTexture@@QEAA@XZ       0000000140001750 f   main.obj
 0001:00000790       ??1LTexture@@QEAA@XZ       0000000140001790 f   main.obj
 0001:000007c0       ?loadFromFile@LTexture@@QEAA_NV?$basic_string@DU?$char_traits@D@std@@V?$allocator@D@2@@std@@@Z 00000001400017c0 f   main.obj
 0001:00000920       ?loadFromRenderedText@LTexture@@QEAA_NV?$basic_string@DU?$char_traits@D@std@@V?$allocator@D@2@@std@@USDL_Color@@@Z 0000000140001920 f   main.obj
 0001:00000a30       ?free@LTexture@@QEAAXXZ    0000000140001a30 f   main.obj
 0001:00000a80       ?setColor@LTexture@@QEAAXEEE@Z 0000000140001a80 f   main.obj
 0001:00000ac0       ?setBlendMode@LTexture@@QEAAXW4SDL_BlendMode@@@Z 0000000140001ac0 f   main.obj
 0001:00000af0       ?setAlpha@LTexture@@QEAAXE@Z 0000000140001af0 f   main.obj
 0001:00000b20       ?render@LTexture@@QEAAXHHPEAUSDL_Rect@@NPEAUSDL_Point@@W4SDL_RendererFlip@@@Z 0000000140001b20 f   main.obj
 0001:00000c00       ?getWidth@LTexture@@QEAAHXZ 0000000140001c00 f   main.obj
 0001:00000c20       ?getHeight@LTexture@@QEAAHXZ 0000000140001c20 f   main.obj
 0001:00000c40       ?init@@YA_NXZ              0000000140001c40 f   main.obj
 0001:00000d60       ?loadMedia@@YA_NXZ         0000000140001d60 f   main.obj
 0001:00000e90       ?close@@YAXXZ              0000000140001e90 f   main.obj
 0001:00000f20       ?loadTexture@@YAPEAUSDL_Texture@@V?$basic_string@DU?$char_traits@D@std@@V?$allocator@D@2@@std@@@Z 0000000140001f20 f   main.obj
 0001:00000f70       ??$?0AEBV?$allocator@D@std@@$$V@?$_Compressed_pair@U?$_Wrap_alloc@V?$allocator@D@std@@@std@@V?$_String_val@U?$_Simple_types@D@std@@@2@$00@std@@QEAA@U_One_then_variadic_args_t@1@AEBV?$allocator@D@1@@Z 0000000140001f70 f i main.obj
 0001:00000fb0       ??$_Addressof@D@std@@YAPEADAEADU?$integral_constant@_N$0A@@0@@Z 0000000140001fb0 f i main.obj
 0001:00000fc0       ??$__vcrt_va_start_verify_argument_type@QEBD@@YAXXZ 0000000140001fc0 f i main.obj
 0001:00000fd0       ??$addressof@D@std@@YAPEADAEAD@Z 0000000140001fd0 f i main.obj
 0001:00000ff0       ??$construct@PEADAEAPEAD@?$_Wrap_alloc@V?$allocator@D@std@@@std@@QEAAXPEAPEADAEAPEAD@Z 0000000140001ff0 f i main.obj
 0001:00001030       ??$construct@PEADAEAPEAD@?$allocator@D@std@@QEAAXPEAPEADAEAPEAD@Z 0000000140002030 f i main.obj
 0001:00001090       ??$construct@PEADAEAPEAD@?$allocator_traits@V?$allocator@D@std@@@std@@SAXAEAV?$allocator@D@1@PEAPEADAEAPEAD@Z 0000000140002090 f i main.obj
 0001:000010d0       ??$destroy@PEAD@?$_Wrap_alloc@V?$allocator@D@std@@@std@@QEAAXPEAPEAD@Z 00000001400020d0 f i main.obj
 0001:00001100       ??$destroy@PEAD@?$allocator@D@std@@QEAAXPEAPEAD@Z 0000000140002100 f i main.obj
 0001:00001110       ??$destroy@PEAD@?$allocator_traits@V?$allocator@D@std@@@std@@SAXAEAV?$allocator@D@1@PEAPEAD@Z 0000000140002110 f i main.obj
 0001:00001140       ?_Get_first@?$_Compressed_pair@U?$_Wrap_alloc@V?$allocator@D@std@@@std@@V?$_String_val@U?$_Simple_types@D@std@@@2@$00@std@@QEBAAEBU?$_Wrap_alloc@V?$allocator@D@std@@@2@XZ 0000000140002140 f i main.obj
 0001:00001140       ??0?$allocator@D@std@@QEAA@XZ 0000000140002140 f i main.obj
 0001:00001140       ?_Get_first@?$_Compressed_pair@U?$_Wrap_alloc@V?$allocator@D@std@@@std@@V?$_String_val@U?$_Simple_types@D@std@@@2@$00@std@@QEAAAEAU?$_Wrap_alloc@V?$allocator@D@std@@@2@XZ 0000000140002140 f i main.obj
 0001:00001140       ?_Get_second@?$_Compressed_pair@U?$_Wrap_alloc@V?$allocator@D@std@@@std@@V?$_String_val@U?$_Simple_types@D@std@@@2@$00@std@@QEAAAEAV?$_String_val@U?$_Simple_types@D@std@@@2@XZ 0000000140002140 f i main.obj
 0001:00001140       ??$forward@AEBV?$allocator@D@std@@@std@@YAAEBV?$allocator@D@0@AEBV10@@Z 0000000140002140 f i main.obj
 0001:00001140       ??$forward@AEAPEAD@std@@YAAEAPEADAEAPEAD@Z 0000000140002140 f i main.obj
 0001:00001140       ?_Get_second@?$_Compressed_pair@U?$_Wrap_alloc@V?$allocator@D@std@@@std@@V?$_String_val@U?$_Simple_types@D@std@@@2@$00@std@@QEBAAEBV?$_String_val@U?$_Simple_types@D@std@@@2@XZ 0000000140002140 f i main.obj
 0001:00001150       ??0?$_String_alloc@U?$_String_base_types@DV?$allocator@D@std@@@std@@@std@@QEAA@AEBV?$allocator@D@1@@Z 0000000140002150 f i main.obj
 0001:00001180       ??0?$_String_val@U?$_Simple_types@D@std@@@std@@QEAA@XZ 0000000140002180 f i main.obj
 0001:000011b0       ??0?$_Wrap_alloc@V?$allocator@D@std@@@std@@QEAA@AEBV?$allocator@D@1@@Z 00000001400021b0 f i main.obj
 0001:000011e0       ??0?$allocator@D@std@@QEAA@AEBV01@@Z 00000001400021e0 f i main.obj
 0001:000011f0       ??0?$basic_string@DU?$char_traits@D@std@@V?$allocator@D@2@@std@@QEAA@PEBD@Z 00000001400021f0 f i main.obj
 0001:00001240       ??1?$basic_string@DU?$char_traits@D@std@@V?$allocator@D@2@@std@@QEAA@XZ 0000000140002240 f i main.obj
 0001:00001270       ??2@YAPEAX_KPEAX@Z         0000000140002270 f i main.obj
 0001:00001280       ?_Allocate@std@@YAPEAX_K0_N@Z 0000000140002280 f i main.obj
 0001:00001380       ?_Bx@?$_String_alloc@U?$_String_base_types@DV?$allocator@D@std@@@std@@@std@@QEAAAEAT_Bxty@?$_String_val@U?$_Simple_types@D@std@@@2@XZ 0000000140002380 f i main.obj
 0001:000013a0       ?_Copy@?$basic_string@DU?$char_traits@D@std@@V?$allocator@D@2@@std@@QEAAX_K0@Z 00000001400023a0 f i main.obj
 0001:000015c0       ?_Deallocate@std@@YAXPEAX_K1@Z 00000001400025c0 f i main.obj
 0001:000016b0       ?_Eos@?$basic_string@DU?$char_traits@D@std@@V?$allocator@D@2@@std@@QEAAX_K@Z 00000001400026b0 f i main.obj
 0001:00001700       ?_Getal@?$_String_alloc@U?$_String_base_types@DV?$allocator@D@std@@@std@@@std@@QEAAAEAU?$_Wrap_alloc@V?$allocator@D@std@@@2@XZ 0000000140002700 f i main.obj
 0001:00001700       ?_Get_data@?$_String_alloc@U?$_String_base_types@DV?$allocator@D@std@@@std@@@std@@QEBAAEBV?$_String_val@U?$_Simple_types@D@std@@@2@XZ 0000000140002700 f i main.obj
 0001:00001700       ?_Get_data@?$_String_alloc@U?$_String_base_types@DV?$allocator@D@std@@@std@@@std@@QEAAAEAV?$_String_val@U?$_Simple_types@D@std@@@2@XZ 0000000140002700 f i main.obj
 0001:00001700       ?_Getal@?$_String_alloc@U?$_String_base_types@DV?$allocator@D@std@@@std@@@std@@QEBAAEBU?$_Wrap_alloc@V?$allocator@D@std@@@2@XZ 0000000140002700 f i main.obj
 0001:00001720       ?_Grow@?$basic_string@DU?$char_traits@D@std@@V?$allocator@D@2@@std@@QEAA_N_K_N@Z 0000000140002720 f i main.obj
 0001:00001810       ?_Inside@?$basic_string@DU?$char_traits@D@std@@V?$allocator@D@2@@std@@QEAA_NPEBD@Z 0000000140002810 f i main.obj
 0001:00001870       ?_Myptr@?$_String_alloc@U?$_String_base_types@DV?$allocator@D@std@@@std@@@std@@QEBAPEBDXZ 0000000140002870 f i main.obj
 0001:00001870       ?_Myptr@?$_String_alloc@U?$_String_base_types@DV?$allocator@D@std@@@std@@@std@@QEAAPEADXZ 0000000140002870 f i main.obj
 0001:00001890       ?_Myptr@?$_String_val@U?$_Simple_types@D@std@@@std@@QEBAPEBDXZ 0000000140002890 f i main.obj
 0001:00001890       ?_Myptr@?$_String_val@U?$_Simple_types@D@std@@@std@@QEAAPEADXZ 0000000140002890 f i main.obj
 0001:000018d0       ?_Myres@?$_String_alloc@U?$_String_base_types@DV?$allocator@D@std@@@std@@@std@@QEAAAEA_KXZ 00000001400028d0 f i main.obj
 0001:000018f0       ?_Mysize@?$_String_alloc@U?$_String_base_types@DV?$allocator@D@std@@@std@@@std@@QEAAAEA_KXZ 00000001400028f0 f i main.obj
 0001:000018f0       ?_Mysize@?$_String_alloc@U?$_String_base_types@DV?$allocator@D@std@@@std@@@std@@QEBAAEB_KXZ 00000001400028f0 f i main.obj
 0001:00001910       ?_Tidy@?$basic_string@DU?$char_traits@D@std@@V?$allocator@D@2@@std@@QEAAX_N_K@Z 0000000140002910 f i main.obj
 0001:00001a10       ?_Xlen@?$basic_string@DU?$char_traits@D@std@@V?$allocator@D@2@@std@@QEBAXXZ 0000000140002a10 f i main.obj
 0001:00001a30       ?_Xran@?$basic_string@DU?$char_traits@D@std@@V?$allocator@D@2@@std@@QEBAXXZ 0000000140002a30 f i main.obj
 0001:00001a50       ?allocate@?$_Wrap_alloc@V?$allocator@D@std@@@std@@QEAAPEAD_K@Z 0000000140002a50 f i main.obj
 0001:00001a80       ?allocate@?$allocator@D@std@@QEAAPEAD_K@Z 0000000140002a80 f i main.obj
 0001:00001ab0       ?assign@?$basic_string@DU?$char_traits@D@std@@V?$allocator@D@2@@std@@QEAAAEAV12@AEBV12@_K1@Z 0000000140002ab0 f i main.obj
 0001:00001bb0       ?assign@?$basic_string@DU?$char_traits@D@std@@V?$allocator@D@2@@std@@QEAAAEAV12@PEBD@Z 0000000140002bb0 f i main.obj
 0001:00001be0       ?assign@?$basic_string@DU?$char_traits@D@std@@V?$allocator@D@2@@std@@QEAAAEAV12@PEBD_K@Z 0000000140002be0 f i main.obj
 0001:00001c90       ?assign@?$char_traits@D@std@@SAXAEADAEBD@Z 0000000140002c90 f i main.obj
 0001:00001cb0       ?c_str@?$basic_string@DU?$char_traits@D@std@@V?$allocator@D@2@@std@@QEBAPEBDXZ 0000000140002cb0 f i main.obj
 0001:00001ce0       ?copy@?$char_traits@D@std@@SAPEADPEADPEBD_K@Z 0000000140002ce0 f i main.obj
 0001:00001d30       ?deallocate@?$_Wrap_alloc@V?$allocator@D@std@@@std@@QEAAXPEAD_K@Z 0000000140002d30 f i main.obj
 0001:00001d60       ?deallocate@?$allocator@D@std@@QEAAXPEAD_K@Z 0000000140002d60 f i main.obj
 0001:00001d90       ?erase@?$basic_string@DU?$char_traits@D@std@@V?$allocator@D@2@@std@@QEAAAEAV12@_K0@Z 0000000140002d90 f i main.obj
 0001:00001e70       ?erase@?$basic_string@DU?$char_traits@D@std@@V?$allocator@D@2@@std@@QEAAAEAV12@_K@Z 0000000140002e70 f i main.obj
 0001:00001ec0       ?length@?$char_traits@D@std@@SA_KPEBD@Z 0000000140002ec0 f i main.obj
 0001:00001f20       ?max_size@?$_Wrap_alloc@V?$allocator@D@std@@@std@@QEBA_KU_Nil@2@@Z 0000000140002f20 f i main.obj
 0001:00001f40       ?max_size@?$allocator@D@std@@QEBA_KXZ 0000000140002f40 f i main.obj
 0001:00001f50       ?max_size@?$allocator_traits@V?$allocator@D@std@@@std@@SA_KAEBV?$allocator@D@2@@Z 0000000140002f50 f i main.obj
 0001:00001f70       ?max_size@?$basic_string@DU?$char_traits@D@std@@V?$allocator@D@2@@std@@QEBA_KXZ 0000000140002f70 f i main.obj
 0001:00001fc0       ?move@?$char_traits@D@std@@SAPEADPEADPEBD_K@Z 0000000140002fc0 f i main.obj
 0001:00002010       ?size@?$basic_string@DU?$char_traits@D@std@@V?$allocator@D@2@@std@@QEBA_KXZ 0000000140003010 f i main.obj
 0001:00002030       __local_stdio_printf_options 0000000140003030 f i main.obj
 0001:00002040       _vfprintf_s_l              0000000140003040 f i main.obj
 0001:00002090       printf_s                   0000000140003090 f i main.obj
 0001:000020ec       SDL_GetError               00000001400030ec f   SDL2:SDL2.dll
 0001:000020f2       SDL_MapRGB                 00000001400030f2 f   SDL2:SDL2.dll
 0001:000020f8       SDL_FreeSurface            00000001400030f8 f   SDL2:SDL2.dll
 0001:000020fe       SDL_SetColorKey            00000001400030fe f   SDL2:SDL2.dll
 0001:00002104       SDL_CreateWindow           0000000140003104 f   SDL2:SDL2.dll
 0001:0000210a       SDL_DestroyWindow          000000014000310a f   SDL2:SDL2.dll
 0001:00002110       SDL_PollEvent              0000000140003110 f   SDL2:SDL2.dll
 0001:00002116       SDL_CreateRenderer         0000000140003116 f   SDL2:SDL2.dll
 0001:0000211c       SDL_CreateTextureFromSurface 000000014000311c f   SDL2:SDL2.dll
 0001:00002122       SDL_SetTextureColorMod     0000000140003122 f   SDL2:SDL2.dll
 0001:00002128       SDL_SetTextureAlphaMod     0000000140003128 f   SDL2:SDL2.dll
 0001:0000212e       SDL_SetTextureBlendMode    000000014000312e f   SDL2:SDL2.dll
 0001:00002134       SDL_SetRenderDrawColor     0000000140003134 f   SDL2:SDL2.dll
 0001:0000213a       SDL_RenderClear            000000014000313a f   SDL2:SDL2.dll
 0001:00002140       SDL_RenderCopyEx           0000000140003140 f   SDL2:SDL2.dll
 0001:00002146       SDL_RenderPresent          0000000140003146 f   SDL2:SDL2.dll
 0001:0000214c       SDL_DestroyTexture         000000014000314c f   SDL2:SDL2.dll
 0001:00002152       SDL_DestroyRenderer        0000000140003152 f   SDL2:SDL2.dll
 0001:00002158       SDL_Init                   0000000140003158 f   SDL2:SDL2.dll
 0001:0000215e       SDL_Quit                   000000014000315e f   SDL2:SDL2.dll
 0001:00002164       IMG_Init                   0000000140003164 f   SDL2_image:SDL2_image.dll
 0001:0000216a       IMG_Quit                   000000014000316a f   SDL2_image:SDL2_image.dll
 0001:00002170       IMG_Load                   0000000140003170 f   SDL2_image:SDL2_image.dll
 0001:00002176       IMG_LoadTexture            0000000140003176 f   SDL2_image:SDL2_image.dll
 0001:0000217c       TTF_Init                   000000014000317c f   SDL2_ttf:SDL2_ttf.dll
 0001:00002182       TTF_OpenFont               0000000140003182 f   SDL2_ttf:SDL2_ttf.dll
 0001:00002188       TTF_RenderText_Solid       0000000140003188 f   SDL2_ttf:SDL2_ttf.dll
 0001:0000218e       TTF_CloseFont              000000014000318e f   SDL2_ttf:SDL2_ttf.dll
 0001:00002194       TTF_Quit                   0000000140003194 f   SDL2_ttf:SDL2_ttf.dll
 0001:0000219c       ??0bad_alloc@std@@QEAA@AEBV01@@Z 000000014000319c f i libcpmt:xthrow.obj
 0001:000021dc       ??0bad_alloc@std@@QEAA@XZ  00000001400031dc f i libcpmt:xthrow.obj
 0001:000021fc       ??0exception@std@@QEAA@AEBV01@@Z 00000001400031fc f i libcpmt:xthrow.obj
 0001:00002234       ??0length_error@std@@QEAA@AEBV01@@Z 0000000140003234 f i libcpmt:xthrow.obj
 0001:00002274       ??0length_error@std@@QEAA@PEBD@Z 0000000140003274 f i libcpmt:xthrow.obj
 0001:000022c0       ??0logic_error@std@@QEAA@AEBV01@@Z 00000001400032c0 f i libcpmt:xthrow.obj
 0001:00002300       ??0out_of_range@std@@QEAA@AEBV01@@Z 0000000140003300 f i libcpmt:xthrow.obj
 0001:00002340       ??0out_of_range@std@@QEAA@PEBD@Z 0000000140003340 f i libcpmt:xthrow.obj
 0001:0000238c       ??1out_of_range@std@@UEAA@XZ 000000014000338c f i libcpmt:xthrow.obj
 0001:0000238c       ??1bad_array_new_length@std@@UEAA@XZ 000000014000338c f i LIBCMT:throw_bad_alloc.obj
 0001:0000238c       ??1bad_exception@std@@UEAA@XZ 000000014000338c f i libvcruntime:frame.obj
 0001:0000238c       ??1bad_alloc@std@@UEAA@XZ  000000014000338c f i libcpmt:xthrow.obj
 0001:0000238c       ??1length_error@std@@UEAA@XZ 000000014000338c f i libcpmt:xthrow.obj
 0001:000023a0       ?_Xbad_alloc@std@@YAXXZ    00000001400033a0 f   libcpmt:xthrow.obj
 0001:000023a0       ?__scrt_throw_std_bad_alloc@@YAXXZ 00000001400033a0 f   LIBCMT:throw_bad_alloc.obj
 0001:000023c0       ?_Xlength_error@std@@YAXPEBD@Z 00000001400033c0 f   libcpmt:xthrow.obj
 0001:000023e4       ?_Xout_of_range@std@@YAXPEBD@Z 00000001400033e4 f   libcpmt:xthrow.obj
 0001:00002408       ?what@exception@std@@UEBAPEBDXZ 0000000140003408 f i libcpmt:xthrow.obj
 0001:0000241c       ??2@YAPEAX_K@Z             000000014000341c f   LIBCMT:new_scalar.obj
 0001:00002458       ??3@YAXPEAX@Z              0000000140003458 f   LIBCMT:delete_scalar.obj
 0001:00002460       __scrt_acquire_startup_lock 0000000140003460 f   LIBCMT:utility.obj
 0001:0000249c       __scrt_initialize_crt      000000014000349c f   LIBCMT:utility.obj
 0001:000024e8       __scrt_initialize_onexit_tables 00000001400034e8 f   LIBCMT:utility.obj
 0001:000025b4       __scrt_is_nonwritable_in_current_image 00000001400035b4 f   LIBCMT:utility.obj
 0001:00002650       __scrt_release_startup_lock 0000000140003650 f   LIBCMT:utility.obj
 0001:00002674       __scrt_uninitialize_crt    0000000140003674 f   LIBCMT:utility.obj
 0001:000026a0       _onexit                    00000001400036a0 f   LIBCMT:utility.obj
 0001:000026f0       atexit                     00000001400036f0 f   LIBCMT:utility.obj
 0001:00002708       __GSHandlerCheck           0000000140003708 f   LIBCMT:_gshandler_.obj
 0001:00002728       __GSHandlerCheckCommon     0000000140003728 f   LIBCMT:_gshandler_.obj
 0001:000027a0       __security_check_cookie    00000001400037a0 f   LIBCMT:_amdsecgs_.obj
 0001:00002a2c       mainCRTStartup             0000000140003a2c f   LIBCMT:exe_main.obj
 0001:00002a40       ??3@YAXPEAX_K@Z            0000000140003a40 f   LIBCMT:delete_scalar_size.obj
 0001:00002a48       ??_Etype_info@@UEAAPEAXI@Z 0000000140003a48 f i LIBCMT:std_type_info_static.obj
 0001:00002a48       ??_Gtype_info@@UEAAPEAXI@Z 0000000140003a48 f i LIBCMT:std_type_info_static.obj
 0001:00002a74       ??0bad_array_new_length@std@@QEAA@AEBV01@@Z 0000000140003a74 f i LIBCMT:throw_bad_alloc.obj
 0001:00002ab4       ??0bad_array_new_length@std@@QEAA@XZ 0000000140003ab4 f i LIBCMT:throw_bad_alloc.obj
 0001:00002ad4       ?__scrt_throw_std_bad_array_new_length@@YAXXZ 0000000140003ad4 f   LIBCMT:throw_bad_alloc.obj
 0001:00002af4       __isa_available_init       0000000140003af4 f   LIBCMT:_cpu_disp_.obj
 0001:00002cb8       __scrt_is_ucrt_dll_in_use  0000000140003cb8 f   LIBCMT:ucrt_detection.obj
 0001:00002cc4       __crt_debugger_hook        0000000140003cc4 f   LIBCMT:utility_desktop.obj
 0001:00002ccc       __scrt_fastfail            0000000140003ccc f   LIBCMT:utility_desktop.obj
 0001:00002e14       _matherr                   0000000140003e14 f   LIBCMT:matherr.obj
 0001:00002e14       _get_startup_new_mode      0000000140003e14 f   LIBCMT:new_mode.obj
 0001:00002e14       _get_startup_thread_locale_mode 0000000140003e14 f   LIBCMT:thread_locale.obj
 0001:00002e14       _get_startup_commit_mode   0000000140003e14 f   LIBCMT:commit_mode.obj
 0001:00002e14       __scrt_initialize_winrt    0000000140003e14 f   LIBCMT:utility_desktop.obj
 0001:00002e18       __scrt_is_managed_app      0000000140003e18 f   LIBCMT:utility_desktop.obj
 0001:00002e6c       __scrt_set_unhandled_exception_filter 0000000140003e6c f   LIBCMT:utility_desktop.obj
 0001:00002e7c       __scrt_unhandled_exception_filter 0000000140003e7c f   LIBCMT:utility_desktop.obj
 0001:00002eb4       _guard_check_icall         0000000140003eb4 f i LIBCMT:checkcfg.obj
 0001:00002ebc       __raise_securityfailure    0000000140003ebc f   LIBCMT:gs_report.obj
 0001:00002ef0       __report_gsfailure         0000000140003ef0 f   LIBCMT:gs_report.obj
 0001:00002fc4       __report_rangecheckfailure 0000000140003fc4 f   LIBCMT:gs_report.obj
 0001:00002fd8       __report_securityfailure   0000000140003fd8 f   LIBCMT:gs_report.obj
 0001:00003158       __security_init_cookie     0000000140004158 f   LIBCMT:gs_support.obj
 0001:00003204       _get_startup_argv_mode     0000000140004204 f   LIBCMT:argv_mode.obj
 0001:0000320c       _get_startup_file_mode     000000014000420c f   LIBCMT:file_mode.obj
 0001:00003214       ?__scrt_initialize_type_info@@YAXXZ 0000000140004214 f   LIBCMT:tncleanup.obj
 0001:00003224       _initialize_invalid_parameter_handler 0000000140004224 f   LIBCMT:invalid_parameter_handler.obj
 0001:00003224       __except_validate_context_record 0000000140004224 f   libvcruntime:jbcxrval.obj
 0001:00003224       _initialize_denormal_control 0000000140004224 f   LIBCMT:denormal_control.obj
 0001:00003224       _guard_check_icall_nop     0000000140004224 f   LIBCMT:guard_support.obj
 0001:00003228       __local_stdio_scanf_options 0000000140004228 f i LIBCMT:default_local_stdio_options.obj
 0001:00003230       __scrt_initialize_default_local_stdio_options 0000000140004230 f   LIBCMT:default_local_stdio_options.obj
 0001:0000324c       __scrt_is_user_matherr_present 000000014000424c f   LIBCMT:matherr_detection.obj
 0001:00003258       __scrt_get_dyn_tls_init_callback 0000000140004258 f   LIBCMT:dyn_tls_init.obj
 0001:00003260       __scrt_get_dyn_tls_dtor_callback 0000000140004260 f   LIBCMT:dyn_tls_dtor.obj
 0001:00003268       _RTC_Initialize            0000000140004268 f   LIBCMT:_initsect_.obj
 0001:000032b4       _RTC_Terminate             00000001400042b4 f   LIBCMT:_initsect_.obj
 0001:00003300       IsProcessorFeaturePresent  0000000140004300 f   kernel32:KERNEL32.dll
 0001:00003320       memmove                    0000000140004320 f   libvcruntime:memcpy.obj
 0001:00003320       memcpy                     0000000140004320 f   libvcruntime:memcpy.obj
 0001:00003758       _CxxThrowException         0000000140004758 f   libvcruntime:throw.obj
 0001:00003830       ?_GetEstablisherFrame@@YAPEA_KPEA_KPEAU_xDISPATCHER_CONTEXT@@PEBU_s_FuncInfo@@0@Z 0000000140004830 f   libvcruntime:trnsctrl.obj
 0001:000038fc       ?_GetRangeOfTrysToCheck@@YAPEBU_s_TryBlockMapEntry@@PEA_KPEBU_s_FuncInfo@@HHPEAI2PEAU_xDISPATCHER_CONTEXT@@@Z 00000001400048fc f   libvcruntime:trnsctrl.obj
 0001:00003a28       ?__FrameUnwindToEmptyState@@YAXPEA_KPEAU_xDISPATCHER_CONTEXT@@PEBU_s_FuncInfo@@@Z 0000000140004a28 f   libvcruntime:trnsctrl.obj
 0001:00003abc       ?__SehTransFilter@@YAHPEAU_EXCEPTION_POINTERS@@PEAUEHExceptionRecord@@PEA_KPEAU_CONTEXT@@PEAU_xDISPATCHER_CONTEXT@@PEBU_s_FuncInfo@@PEAH@Z 0000000140004abc f   libvcruntime:trnsctrl.obj
 0001:00003b54       _CallSETranslator          0000000140004b54 f   libvcruntime:trnsctrl.obj
 0001:00003bac       _CreateFrameInfo           0000000140004bac f   libvcruntime:trnsctrl.obj
 0001:00003be8       _FindAndUnlinkFrame        0000000140004be8 f   libvcruntime:trnsctrl.obj
 0001:00003c40       _GetImageBase              0000000140004c40 f   libvcruntime:trnsctrl.obj
 0001:00003c54       _GetThrowImageBase         0000000140004c54 f   libvcruntime:trnsctrl.obj
 0001:00003c68       _IsExceptionObjectToBeDestroyed 0000000140004c68 f   libvcruntime:trnsctrl.obj
 0001:00003c98       _SetImageBase              0000000140004c98 f   libvcruntime:trnsctrl.obj
 0001:00003cb0       _SetThrowImageBase         0000000140004cb0 f   libvcruntime:trnsctrl.obj
 0001:00003cc8       _UnwindNestedFrames        0000000140004cc8 f   libvcruntime:trnsctrl.obj
 0001:00003dec       __CxxFrameHandler3         0000000140004dec f   libvcruntime:trnsctrl.obj
 0001:00003e6c       __std_exception_copy       0000000140004e6c f   libvcruntime:std_exception.obj
 0001:00003efc       __std_exception_destroy    0000000140004efc f   libvcruntime:std_exception.obj
 0001:00003f24       __vcrt_initialize          0000000140004f24 f   libvcruntime:initialization.obj
 0001:00003f5c       __vcrt_uninitialize        0000000140004f5c f   libvcruntime:initialization.obj
 0001:00003f88       __C_specific_handler       0000000140004f88 f   libvcruntime:_chandler_.obj
 0001:0000417c       __telemetry_main_invoke_trigger 000000014000517c f   libvcruntime:telemetry.obj
 0001:00004294       __telemetry_main_return_trigger 0000000140005294 f   libvcruntime:telemetry.obj
 0001:000043ac       __vcrt_initialize_telemetry_provider 00000001400053ac f   libvcruntime:telemetry.obj
 0001:000043c0       __vcrt_uninitialize_telemetry_provider 00000001400053c0 f   libvcruntime:telemetry.obj
 0001:000043f0       memset                     00000001400053f0 f   libvcruntime:memset.obj
 0001:00004590       __std_type_info_compare    0000000140005590 f   libvcruntime:std_type_info.obj
 0001:000045b8       __vcrt_freefls             00000001400055b8 f   libvcruntime:per_thread_data.obj
 0001:000045d8       __vcrt_getptd              00000001400055d8 f   libvcruntime:per_thread_data.obj
 0001:000045f4       __vcrt_getptd_noexit       00000001400055f4 f   libvcruntime:per_thread_data.obj
 0001:0000469c       __vcrt_initialize_ptd      000000014000569c f   libvcruntime:per_thread_data.obj
 0001:000046dc       __vcrt_uninitialize_ptd    00000001400056dc f   libvcruntime:per_thread_data.obj
 0001:00004700       ?__GetCurrentState@@YAHPEA_KPEAU_xDISPATCHER_CONTEXT@@PEBU_s_FuncInfo@@@Z 0000000140005700 f   libvcruntime:ehstate.obj
 0001:00004728       ?__GetUnwindTryBlock@@YAHPEA_KPEAU_xDISPATCHER_CONTEXT@@PEBU_s_FuncInfo@@@Z 0000000140005728 f   libvcruntime:ehstate.obj
 0001:00004754       ?__SetState@@YAXPEA_KPEAU_xDISPATCHER_CONTEXT@@PEBU_s_FuncInfo@@H@Z 0000000140005754 f   libvcruntime:ehstate.obj
 0001:00004760       ?__SetUnwindTryBlock@@YAXPEA_KPEAU_xDISPATCHER_CONTEXT@@PEBU_s_FuncInfo@@H@Z 0000000140005760 f   libvcruntime:ehstate.obj
 0001:0000479c       ?__StateFromControlPc@@YAHPEBU_s_FuncInfo@@PEAU_xDISPATCHER_CONTEXT@@@Z 000000014000579c f   libvcruntime:ehstate.obj
 0001:000047a4       ?__StateFromIp@@YAHPEBU_s_FuncInfo@@PEAU_xDISPATCHER_CONTEXT@@_J@Z 00000001400057a4 f   libvcruntime:ehstate.obj
 0001:00004810       __DestructExceptionObject  0000000140005810 f   libvcruntime:frame.obj
 0001:00004898       ??0bad_exception@std@@QEAA@AEBV01@@Z 0000000140005898 f i libvcruntime:frame.obj
 0001:000048d8       ??0bad_exception@std@@QEAA@XZ 00000001400058d8 f i libvcruntime:frame.obj
 0001:000048f8       ??_Elogic_error@std@@UEAAPEAXI@Z 00000001400058f8 f i libcpmt:xthrow.obj
 0001:000048f8       ??_Ebad_exception@std@@UEAAPEAXI@Z 00000001400058f8 f i libvcruntime:frame.obj
 0001:000048f8       ??_Gexception@std@@UEAAPEAXI@Z 00000001400058f8 f i libcpmt:xthrow.obj
 0001:000048f8       ??_Elength_error@std@@UEAAPEAXI@Z 00000001400058f8 f i libcpmt:xthrow.obj
 0001:000048f8       ??_Gbad_array_new_length@std@@UEAAPEAXI@Z 00000001400058f8 f i LIBCMT:throw_bad_alloc.obj
 0001:000048f8       ??_Glogic_error@std@@UEAAPEAXI@Z 00000001400058f8 f i libcpmt:xthrow.obj
 0001:000048f8       ??_Eexception@std@@UEAAPEAXI@Z 00000001400058f8 f i libcpmt:xthrow.obj
 0001:000048f8       ??_Ebad_alloc@std@@UEAAPEAXI@Z 00000001400058f8 f i libcpmt:xthrow.obj
 0001:000048f8       ??_Ebad_array_new_length@std@@UEAAPEAXI@Z 00000001400058f8 f i LIBCMT:throw_bad_alloc.obj
 0001:000048f8       ??_Gout_of_range@std@@UEAAPEAXI@Z 00000001400058f8 f i libcpmt:xthrow.obj
 0001:000048f8       ??_Gbad_alloc@std@@UEAAPEAXI@Z 00000001400058f8 f i libcpmt:xthrow.obj
 0001:000048f8       ??_Eout_of_range@std@@UEAAPEAXI@Z 00000001400058f8 f i libcpmt:xthrow.obj
 0001:000048f8       ??_Gbad_exception@std@@UEAAPEAXI@Z 00000001400058f8 f i libvcruntime:frame.obj
 0001:000048f8       ??_Glength_error@std@@UEAAPEAXI@Z 00000001400058f8 f i libcpmt:xthrow.obj
 0001:00005264       ?_CallMemberFunction0@@YAXPEAXP6AX0@Z@Z 0000000140006264 f i libvcruntime:frame.obj
 0001:00005268       ?_CallMemberFunction1@@YAXPEAXP6AX0@Z0@Z 0000000140006268 f i libvcruntime:frame.obj
 0001:00005274       ?_CallMemberFunction2@@YAXPEAXP6AX0@Z0H@Z 0000000140006274 f i libvcruntime:frame.obj
 0001:00005284       __AdjustPointer            0000000140006284 f   libvcruntime:frame.obj
 0001:000052a8       __BuildCatchObject         00000001400062a8 f   libvcruntime:frame.obj
 0001:00005370       __BuildCatchObjectHelper   0000000140006370 f   libvcruntime:frame.obj
 0001:00005554       __CxxCallCatchBlock        0000000140006554 f   libvcruntime:frame.obj
 0001:00005740       __FrameUnwindFilter        0000000140006740 f   libvcruntime:frame.obj
 0001:0000578c       __FrameUnwindToState       000000014000678c f   libvcruntime:frame.obj
 0001:00005920       __InternalCxxFrameHandler  0000000140006920 f   libvcruntime:frame.obj
 0001:00005b78       __TypeMatch                0000000140006b78 f   libvcruntime:frame.obj
 0001:00005cb8       __vcrt_initialize_locks    0000000140006cb8 f   libvcruntime:locks.obj
 0001:00005d00       __vcrt_uninitialize_locks  0000000140006d00 f   libvcruntime:locks.obj
 0001:00005f00       __vcrt_EventRegister       0000000140006f00 f   libvcruntime:winapi_downlevel.obj
 0001:00005f84       __vcrt_EventSetInformation 0000000140006f84 f   libvcruntime:winapi_downlevel.obj
 0001:00006008       __vcrt_EventUnregister     0000000140007008 f   libvcruntime:winapi_downlevel.obj
 0001:0000605c       __vcrt_EventWriteTransfer  000000014000705c f   libvcruntime:winapi_downlevel.obj
 0001:000060f4       __vcrt_FlsAlloc            00000001400070f4 f   libvcruntime:winapi_downlevel.obj
 0001:00006148       __vcrt_FlsFree             0000000140007148 f   libvcruntime:winapi_downlevel.obj
 0001:0000619c       __vcrt_FlsGetValue         000000014000719c f   libvcruntime:winapi_downlevel.obj
 0001:000061f0       __vcrt_FlsSetValue         00000001400071f0 f   libvcruntime:winapi_downlevel.obj
 0001:00006258       __vcrt_InitializeCriticalSectionEx 0000000140007258 f   libvcruntime:winapi_downlevel.obj
 0001:000062d0       __vcrt_initialize_winapi_thunks 00000001400072d0 f   libvcruntime:winapi_downlevel.obj
 0001:00006308       __vcrt_uninitialize_winapi_thunks 0000000140007308 f   libvcruntime:winapi_downlevel.obj
 0001:00006348       __vcrt_initialize_pure_virtual_call_handler 0000000140007348 f   libvcruntime:purevirt_data.obj
 0001:00006380       _local_unwind              0000000140007380 f   libvcruntime:_jmpuwind_.obj
 0001:000063b0       _NLG_Notify                00000001400073b0 f   libvcruntime:_jmpuwind_.obj
 0001:000063d0       __NLG_Dispatch2            00000001400073d0 f   libvcruntime:_jmpuwind_.obj
 0001:000063e0       __NLG_Return2              00000001400073e0 f   libvcruntime:_jmpuwind_.obj
 0001:00006400       _CallSettingFrame          0000000140007400 f   libvcruntime:handlers.obj
 0001:00006440       __acrt_call_reportfault    0000000140007440 f   libucrt:invalid_parameter.obj
 0001:0000659c       __acrt_initialize_invalid_parameter_handler 000000014000759c f   libucrt:invalid_parameter.obj
 0001:000065a4       _invalid_parameter         00000001400075a4 f   libucrt:invalid_parameter.obj
 0001:00006654       _invalid_parameter_noinfo  0000000140007654 f   libucrt:invalid_parameter.obj
 0001:00006674       _invalid_parameter_noinfo_noreturn 0000000140007674 f   libucrt:invalid_parameter.obj
 0001:000066a4       _invoke_watson             00000001400076a4 f   libucrt:invalid_parameter.obj
 0001:000066ec       __acrt_initialize_stdio    00000001400076ec f   libucrt:_file.obj
 0001:0000680c       __acrt_iob_func            000000014000780c f   libucrt:_file.obj
 0001:00006820       __acrt_uninitialize_stdio  0000000140007820 f   libucrt:_file.obj
 0001:0000687c       _lock_file                 000000014000787c f   libucrt:_file.obj
 0001:00006888       _unlock_file               0000000140007888 f   libucrt:_file.obj
 0001:000068d4       ??$ensure_buffer_is_big_enough@D@formatting_buffer@__crt_stdio_output@@QEAA_N_K@Z 00000001400078d4 f i libucrt:output.obj
 0001:0000697c       ??$type_case_integer_parse_into_buffer@I@?$output_processor@DV?$stream_output_adapter@D@__crt_stdio_output@@V?$format_validation_base@DV?$stream_output_adapter@D@__crt_stdio_output@@@2@@__crt_stdio_output@@AEAAXII_N@Z 000000014000797c f i libucrt:output.obj
 0001:00006a04       ??$type_case_integer_parse_into_buffer@_K@?$output_processor@DV?$stream_output_adapter@D@__crt_stdio_output@@V?$format_validation_base@DV?$stream_output_adapter@D@__crt_stdio_output@@@2@@__crt_stdio_output@@AEAAX_KI_N@Z 0000000140007a04 f i libucrt:output.obj
 0001:00006a94       ??$write_multiple_characters@V?$stream_output_adapter@D@__crt_stdio_output@@D@__crt_stdio_output@@YAXAEBV?$stream_output_adapter@D@0@DHQEAH@Z 0000000140007a94 f i libucrt:output.obj
 0001:00006b18       ??0_LocaleUpdate@@QEAA@QEAU__crt_locale_pointers@@@Z 0000000140007b18 f i libucrt:output.obj
 0001:00006cd8       ?force_decimal_point@__crt_stdio_output@@YAXPEADQEAU__crt_locale_pointers@@@Z 0000000140007cd8 f i libucrt:output.obj
 0001:00006d48       ?parse_int_from_format_string@?$output_processor@DV?$stream_output_adapter@D@__crt_stdio_output@@V?$format_validation_base@DV?$stream_output_adapter@D@__crt_stdio_output@@@2@@__crt_stdio_output@@AEAA_NQEAH@Z 0000000140007d48 f i libucrt:output.obj
 0001:00006dec       ?process@?$output_processor@DV?$stream_output_adapter@D@__crt_stdio_output@@V?$format_validation_base@DV?$stream_output_adapter@D@__crt_stdio_output@@@2@@__crt_stdio_output@@QEAAHXZ 0000000140007dec f i libucrt:output.obj
 0001:00007018       ?state_case_normal@?$output_processor@DV?$stream_output_adapter@D@__crt_stdio_output@@V?$format_validation_base@DV?$stream_output_adapter@D@__crt_stdio_output@@@2@@__crt_stdio_output@@AEAA_NXZ 0000000140008018 f i libucrt:output.obj
 0001:00007088       ?state_case_normal_tchar@?$output_processor@DV?$stream_output_adapter@D@__crt_stdio_output@@V?$format_validation_base@DV?$stream_output_adapter@D@__crt_stdio_output@@@2@@__crt_stdio_output@@AEAA_ND@Z 0000000140008088 f i libucrt:output.obj
 0001:00007124       ?state_case_size@?$output_processor@DV?$stream_output_adapter@D@__crt_stdio_output@@V?$format_validation_base@DV?$stream_output_adapter@D@__crt_stdio_output@@@2@@__crt_stdio_output@@AEAA_NXZ 0000000140008124 f i libucrt:output.obj
 0001:000072a0       ?state_case_type@?$output_processor@DV?$stream_output_adapter@D@__crt_stdio_output@@V?$format_validation_base@DV?$stream_output_adapter@D@__crt_stdio_output@@@2@@__crt_stdio_output@@AEAA_NXZ 00000001400082a0 f i libucrt:output.obj
 0001:00007538       ?type_case_Z@?$output_processor@DV?$stream_output_adapter@D@__crt_stdio_output@@V?$format_validation_base@DV?$stream_output_adapter@D@__crt_stdio_output@@@2@@__crt_stdio_output@@AEAA_NXZ 0000000140008538 f i libucrt:output.obj
 0001:000075b8       ?type_case_a@?$output_processor@DV?$stream_output_adapter@D@__crt_stdio_output@@V?$format_validation_base@DV?$stream_output_adapter@D@__crt_stdio_output@@@2@@__crt_stdio_output@@AEAA_NXZ 00000001400085b8 f i libucrt:output.obj
 0001:000077d0       ?type_case_c_tchar@?$output_processor@DV?$stream_output_adapter@D@__crt_stdio_output@@V?$format_validation_base@DV?$stream_output_adapter@D@__crt_stdio_output@@@2@@__crt_stdio_output@@AEAA_ND@Z 00000001400087d0 f i libucrt:output.obj
 0001:0000789c       ?type_case_integer@?$output_processor@DV?$stream_output_adapter@D@__crt_stdio_output@@V?$format_validation_base@DV?$stream_output_adapter@D@__crt_stdio_output@@@2@@__crt_stdio_output@@AEAA_NI_N@Z 000000014000889c f i libucrt:output.obj
 0001:00007a60       ?type_case_n@?$output_processor@DV?$stream_output_adapter@D@__crt_stdio_output@@V?$format_validation_base@DV?$stream_output_adapter@D@__crt_stdio_output@@@2@@__crt_stdio_output@@AEAA_NXZ 0000000140008a60 f i libucrt:output.obj
 0001:00007b3c       ?type_case_s@?$output_processor@DV?$stream_output_adapter@D@__crt_stdio_output@@V?$format_validation_base@DV?$stream_output_adapter@D@__crt_stdio_output@@@2@@__crt_stdio_output@@AEAA_NXZ 0000000140008b3c f i libucrt:output.obj
 0001:00007bd8       ?validate_stream_is_ansi_if_required@?$__acrt_stdio_char_traits@D@@SA_NQEAU_iobuf@@@Z 0000000140008bd8 f i libucrt:output.obj
 0001:00007c64       ?write_stored_string_tchar@?$output_processor@DV?$stream_output_adapter@D@__crt_stdio_output@@V?$format_validation_base@DV?$stream_output_adapter@D@__crt_stdio_output@@@2@@__crt_stdio_output@@AEAA_ND@Z 0000000140008c64 f i libucrt:output.obj
 0001:00007d88       ?write_string_impl@?$output_adapter_common@DV?$stream_output_adapter@D@__crt_stdio_output@@@__crt_stdio_output@@IEBAXQEBDHQEAHAEAV__crt_deferred_errno_cache@@@Z 0000000140008d88 f i libucrt:output.obj
 0001:00007e80       __stdio_common_vfprintf_s  0000000140008e80 f   libucrt:output.obj
 0001:00007f0c       __acrt_initialize_new_handler 0000000140008f0c f   libucrt:new_handler.obj
 0001:00007f14       _callnewh                  0000000140008f14 f   libucrt:new_handler.obj
 0001:00007f44       _query_new_handler         0000000140008f44 f   libucrt:new_handler.obj
 0001:00007f78       malloc                     0000000140008f78 f   libucrt:malloc.obj
 0001:00007f80       free                       0000000140008f80 f   libucrt:free.obj
 0001:00007f94       _seh_filter_exe            0000000140008f94 f   libucrt:exception_filter.obj
 0001:000083a0       __acrt_initialize_thread_local_exit_callback 00000001400093a0 f   libucrt:exit.obj
 0001:000083a8       _c_exit                    00000001400093a8 f   libucrt:exit.obj
 0001:000083b8       _cexit                     00000001400093b8 f   libucrt:exit.obj
 0001:000083c8       _exit                      00000001400093c8 f   libucrt:exit.obj
 0001:000083d4       _register_thread_local_exe_atexit_callback 00000001400093d4 f   libucrt:exit.obj
 0001:00008418       exit                       0000000140009418 f   libucrt:exit.obj
 0001:000086ec       __dcrt_get_or_create_narrow_environment_nolock 00000001400096ec f   libucrt:environment_initialization.obj
 0001:00008728       __dcrt_uninitialize_environments_nolock 0000000140009728 f   libucrt:environment_initialization.obj
 0001:00008760       _get_initial_narrow_environment 0000000140009760 f   libucrt:environment_initialization.obj
 0001:000087b0       _initialize_narrow_environment 00000001400097b0 f   libucrt:environment_initialization.obj
 0001:00008b40       _crt_atexit                0000000140009b40 f   libucrt:onexit.obj
 0001:00008b50       _execute_onexit_table      0000000140009b50 f   libucrt:onexit.obj
 0001:00008b8c       _initialize_onexit_table   0000000140009b8c f   libucrt:onexit.obj
 0001:00008bcc       _register_onexit_function  0000000140009bcc f   libucrt:onexit.obj
 0001:00008c5c       __acrt_uninitialize_command_line 0000000140009c5c f   libucrt:argv_data.obj
 0001:00008d58       __acrt_initialize          0000000140009d58 f   libucrt:initialization.obj
 0001:00008d6c       __acrt_uninitialize        0000000140009d6c f   libucrt:initialization.obj
 0001:00008da4       _query_app_type            0000000140009da4 f   libucrt:report_runtime_error.obj
 0001:00008dac       _set_app_type              0000000140009dac f   libucrt:report_runtime_error.obj
 0001:00008db4       __acrt_has_user_matherr    0000000140009db4 f   libucrt:matherr.obj
 0001:00008dd4       __acrt_initialize_user_matherr 0000000140009dd4 f   libucrt:matherr.obj
 0001:00008ddc       __acrt_invoke_user_matherr 0000000140009ddc f   libucrt:matherr.obj
 0001:00008e0c       __setusermatherr           0000000140009e0c f   libucrt:matherr.obj
 0001:00008ff0       __acrt_allocate_buffer_for_argv 0000000140009ff0 f   libucrt:argv_parsing.obj
 0001:00009050       _configure_narrow_argv     000000014000a050 f   libucrt:argv_parsing.obj
 0001:000091d8       _initterm                  000000014000a1d8 f   libucrt:initterm.obj
 0001:0000923c       _initterm_e                000000014000a23c f   libucrt:initterm.obj
 0001:0000927c       _set_fmode                 000000014000a27c f   libucrt:setmode.obj
 0001:000092bc       __acrt_initialize_command_line 000000014000a2bc f   libucrt:argv_data.obj
 0001:000092e4       __p___argc                 000000014000a2e4 f   libucrt:argv_data.obj
 0001:000092ec       __p___argv                 000000014000a2ec f   libucrt:argv_data.obj
 0001:00009364       __acrt_set_locale_changed  000000014000a364 f   libucrt:wsetlocale.obj
 0001:00009370       __acrt_uninitialize_locale 000000014000a370 f   libucrt:wsetlocale.obj
 0001:000093a0       _configthreadlocale        000000014000a3a0 f   libucrt:wsetlocale.obj
 0001:0000940c       _query_new_mode            000000014000a40c f   libucrt:new_mode.obj
 0001:00009414       _set_new_mode              000000014000a414 f   libucrt:new_mode.obj
 0001:00009440       __p__commode               000000014000a440 f   libucrt:ncommode.obj
 0001:00009448       terminate                  000000014000a448 f   libucrt:terminate.obj
 0001:00009468       strcpy_s                   000000014000a468 f   libucrt:strcpy_s.obj
 0001:000094c8       _free_base                 000000014000a4c8 f   libucrt:free_base.obj
 0001:00009508       _malloc_base               000000014000a508 f   libucrt:malloc_base.obj
 0001:00009568       abort                      000000014000a568 f   libucrt:abort.obj
 0001:000095c0       _calloc_base               000000014000a5c0 f   libucrt:calloc_base.obj
 0001:00009638       ??$parse_integer@KV?$c_string_character_source@D@__crt_strtox@@@__crt_strtox@@YAKQEAU__crt_locale_pointers@@V?$c_string_character_source@D@0@H_N@Z 000000014000a638 f i libucrt:atox.obj
 0001:00009ccc       __acrt_getptd              000000014000accc f   libucrt:per_thread_data.obj
 0001:00009d98       __acrt_getptd_head         000000014000ad98 f   libucrt:per_thread_data.obj
 0001:00009e40       __acrt_getptd_noexit       000000014000ae40 f   libucrt:per_thread_data.obj
 0001:00009f10       __acrt_initialize_ptd      000000014000af10 f   libucrt:per_thread_data.obj
 0001:00009f4c       __acrt_uninitialize_ptd    000000014000af4c f   libucrt:per_thread_data.obj
 0001:00009f70       __acrt_errno_from_os_error 000000014000af70 f   libucrt:errno.obj
 0001:00009fb8       __acrt_errno_map_os_error  000000014000afb8 f   libucrt:errno.obj
 0001:0000a008       __doserrno                 000000014000b008 f   libucrt:errno.obj
 0001:0000a028       _errno                     000000014000b028 f   libucrt:errno.obj
 0001:0000a220       __acrt_AppPolicyGetProcessTerminationMethodInternal 000000014000b220 f   libucrt:winapi_thunks.obj
 0001:0000a270       __acrt_CompareStringEx     000000014000b270 f   libucrt:winapi_thunks.obj
 0001:0000a34c       __acrt_FlsAlloc            000000014000b34c f   libucrt:winapi_thunks.obj
 0001:0000a394       __acrt_FlsFree             000000014000b394 f   libucrt:winapi_thunks.obj
 0001:0000a3dc       __acrt_FlsGetValue         000000014000b3dc f   libucrt:winapi_thunks.obj
 0001:0000a424       __acrt_FlsSetValue         000000014000b424 f   libucrt:winapi_thunks.obj
 0001:0000a478       __acrt_InitializeCriticalSectionEx 000000014000b478 f   libucrt:winapi_thunks.obj
 0001:0000a4dc       __acrt_LCMapStringEx       000000014000b4dc f   libucrt:winapi_thunks.obj
 0001:0000a5b8       __acrt_LocaleNameToLCID    000000014000b5b8 f   libucrt:winapi_thunks.obj
 0001:0000a608       __acrt_initialize_winapi_thunks 000000014000b608 f   libucrt:winapi_thunks.obj
 0001:0000a650       __acrt_uninitialize_winapi_thunks 000000014000b650 f   libucrt:winapi_thunks.obj
 0001:0000a694       _fcloseall                 000000014000b694 f   libucrt:closeall.obj
 0001:0000a92c       __acrt_stdio_flush_nolock  000000014000b92c f   libucrt:fflush.obj
 0001:0000a9a8       _fflush_nolock             000000014000b9a8 f   libucrt:fflush.obj
 0001:0000a9f4       _flushall                  000000014000b9f4 f   libucrt:fflush.obj
 0001:0000a9fc       __acrt_stdio_free_buffer_nolock 000000014000b9fc f   libucrt:_freebuf.obj
 0001:0000ac24       __acrt_initialize_lowio    000000014000bc24 f   libucrt:ioinit.obj
 0001:0000ac60       __acrt_uninitialize_lowio  000000014000bc60 f   libucrt:ioinit.obj
 0001:0000aca0       isdigit                    000000014000bca0 f i libucrt:_ctype.obj
 0001:0000ad58       _tolower_l                 000000014000bd58 f   libucrt:tolower_toupper.obj
 0001:0000ae98       tolower                    000000014000be98 f   libucrt:tolower_toupper.obj
 0001:0000aec4       strtol                     000000014000bec4 f   libucrt:strtox.obj
 0001:0000aef0       _mbtowc_l                  000000014000bef0 f   libucrt:mbtowc.obj
 0001:0000b038       mbtowc                     000000014000c038 f   libucrt:mbtowc.obj
 0001:0000b040       _wctomb_s_l                000000014000c040 f   libucrt:wctomb.obj
 0001:0000b1c4       wctomb_s                   000000014000c1c4 f   libucrt:wctomb.obj
 0001:0000b1d8       strnlen                    000000014000c1d8 f   libucrt:strnlen.obj
 0001:0000b31c       wcsnlen                    000000014000c31c f   libucrt:strnlen.obj
 0001:0000b4e4       __acrt_update_locale_info  000000014000c4e4 f   libucrt:locale_update.obj
 0001:0000b518       __acrt_update_multibyte_info 000000014000c518 f   libucrt:locale_update.obj
 0001:0000bf08       __acrt_fp_format           000000014000cf08 f   libucrt:cvt.obj
 0001:0000c190       _fileno                    000000014000d190 f   libucrt:fileno.obj
 0001:0000c1b8       _fputc_nolock              000000014000d1b8 f   libucrt:fputc.obj
 0001:0000c1d0       _get_printf_count_output   000000014000d1d0 f   libucrt:printf_count_output.obj
 0001:0000c1e8       __acrt_stdio_begin_temporary_buffering_nolock 000000014000d1e8 f   libucrt:_sftbuf.obj
 0001:0000c2b8       __acrt_stdio_end_temporary_buffering_nolock 000000014000d2b8 f   libucrt:_sftbuf.obj
 0001:0000c2f4       __acrt_initialize_locks    000000014000d2f4 f   libucrt:locks.obj
 0001:0000c33c       __acrt_lock                000000014000d33c f   libucrt:locks.obj
 0001:0000c358       __acrt_uninitialize_locks  000000014000d358 f   libucrt:locks.obj
 0001:0000c390       __acrt_unlock              000000014000d390 f   libucrt:locks.obj
 0001:0000c3ac       __acrt_get_process_end_policy 000000014000d3ac f   libucrt:win_policies.obj
 0001:0000cb28       __acrt_initialize_multibyte 000000014000db28 f   libucrt:mbctype.obj
 0001:0000cb88       __acrt_update_thread_multibyte_data 000000014000db88 f   libucrt:mbctype.obj
 0001:0000cba4       _setmbcp_nolock            000000014000dba4 f   libucrt:mbctype.obj
 0001:0000ce64       __dcrt_get_narrow_environment_from_os 000000014000de64 f   libucrt:get_environment_from_os.obj
 0001:0000d374       __dcrt_set_variable_in_narrow_environment_nolock 000000014000e374 f   libucrt:setenv.obj
 0001:0000d37c       _recalloc                  000000014000e37c f   libucrt:recalloc.obj
 0001:0000d384       _recalloc_base             000000014000e384 f   libucrt:recalloc.obj
 0001:0000d41c       __acrt_initialize_heap     000000014000e41c f   libucrt:heap_handle.obj
 0001:0000d438       __acrt_uninitialize_heap   000000014000e438 f   libucrt:heap_handle.obj
 0001:0000d444       __acrt_execute_initializers 000000014000e444 f   libucrt:shared_initialization.obj
 0001:0000d4c4       __acrt_execute_uninitializers 000000014000e4c4 f   libucrt:shared_initialization.obj
 0001:0000d548       __acrt_get_sigabrt_handler 000000014000e548 f   libucrt:signal.obj
 0001:0000d578       __acrt_initialize_signal_handlers 000000014000e578 f   libucrt:signal.obj
 0001:0000d598       raise                      000000014000e598 f   libucrt:signal.obj
 0001:0000dd70       __acrt_expand_narrow_argv_wildcards 000000014000ed70 f   libucrt:argv_wildcards.obj
 0001:0000ddf0       _ismbblead                 000000014000edf0 f   libucrt:ismbbyte.obj
 0001:0000de04       __acrt_lowio_create_handle_array 000000014000ee04 f   libucrt:osfinfo.obj
 0001:0000de9c       __acrt_lowio_destroy_handle_array 000000014000ee9c f   libucrt:osfinfo.obj
 0001:0000deec       __acrt_lowio_ensure_fh_exists 000000014000eeec f   libucrt:osfinfo.obj
 0001:0000df94       __acrt_lowio_lock_fh       000000014000ef94 f   libucrt:osfinfo.obj
 0001:0000dfb8       __acrt_lowio_unlock_fh     000000014000efb8 f   libucrt:osfinfo.obj
 0001:0000dfdc       _free_osfhnd               000000014000efdc f   libucrt:osfinfo.obj
 0001:0000e098       _get_osfhandle             000000014000f098 f   libucrt:osfinfo.obj
 0001:0000e110       __acrt_locale_free_monetary 000000014000f110 f   libucrt:initmon.obj
 0001:0000e21c       __acrt_locale_free_numeric 000000014000f21c f   libucrt:initnum.obj
 0001:0000e2dc       __acrt_locale_free_time    000000014000f2dc f   libucrt:inittime.obj
 0001:0000e3e4       __pctype_func              000000014000f3e4 f   libucrt:ctype.obj
 0001:0000e414       wcsncmp                    000000014000f414 f   libucrt:wcsncmp.obj
 0001:0000e440       __acrt_GetStringTypeA      000000014000f440 f   libucrt:getstringtypea.obj
 0001:0000e5d0       __acrt_add_locale_ref      000000014000f5d0 f   libucrt:locale_refcounting.obj
 0001:0000e65c       __acrt_free_locale         000000014000f65c f   libucrt:locale_refcounting.obj
 0001:0000e7d4       __acrt_locale_add_lc_time_reference 000000014000f7d4 f   libucrt:locale_refcounting.obj
 0001:0000e7fc       __acrt_locale_free_lc_time_if_unreferenced 000000014000f7fc f   libucrt:locale_refcounting.obj
 0001:0000e834       __acrt_locale_release_lc_time_reference 000000014000f834 f   libucrt:locale_refcounting.obj
 0001:0000e85c       __acrt_release_locale_ref  000000014000f85c f   libucrt:locale_refcounting.obj
 0001:0000e904       __acrt_update_thread_locale_data 000000014000f904 f   libucrt:locale_refcounting.obj
 0001:0000e974       _updatetlocinfoEx_nolock   000000014000f974 f   libucrt:locale_refcounting.obj
 0001:0000e9dc       _isctype_l                 000000014000f9dc f   libucrt:isctype.obj
 0001:0000ebb8       __acrt_DownlevelLocaleNameToLCID 000000014000fbb8 f   libucrt:lcidtoname_downlevel.obj
 0001:0000ebec       _fclose_nolock             000000014000fbec f   libucrt:fclose.obj
 0001:0000ec70       fclose                     000000014000fc70 f   libucrt:fclose.obj
 0001:0000ed60       _commit                    000000014000fd60 f   libucrt:commit.obj
 0001:0000f3ac       _write                     00000001400103ac f   libucrt:write.obj
 0001:0000f498       _write_nolock              0000000140010498 f   libucrt:write.obj
 0001:0000f7dc       _isleadbyte_l              00000001400107dc f i libucrt:_wctype.obj
 0001:0000fb34       __acrt_LCMapStringA        0000000140010b34 f   libucrt:lcmapstringa.obj
 0001:0000fbcc       __acrt_MultiByteToWideChar 0000000140010bcc f   libucrt:multibytetowidechar.obj
 0001:0000fbd4       __acrt_WideCharToMultiByte 0000000140010bd4 f   libucrt:widechartomultibyte.obj
 0001:0000fbdc       __acrt_fp_strflt_to_string 0000000140010bdc f   libucrt:_fptostr.obj
 0001:0000fca0       ?divide@__crt_strtox@@YA_KAEAUbig_integer@1@AEBU21@@Z 0000000140010ca0 f i libucrt:cfout.obj
 0001:00010134       __acrt_fltout              0000000140011134 f   libucrt:cfout.obj
 0001:000115f0       __acrt_stdio_flush_and_write_narrow_nolock 00000001400125f0 f   libucrt:_flsbuf.obj
 0001:000116d8       _isatty                    00000001400126d8 f   libucrt:isatty.obj
 0001:00011750       _strnicoll                 0000000140012750 f   libucrt:strnicol.obj
 0001:00011768       _strnicoll_l               0000000140012768 f   libucrt:strnicol.obj
 0001:00011868       _msize                     0000000140012868 f   libucrt:msize.obj
 0001:00011870       _msize_base                0000000140012870 f   libucrt:msize.obj
 0001:000118ac       _realloc_base              00000001400128ac f   libucrt:realloc_base.obj
 0001:00011930       qsort                      0000000140012930 f   libucrt:qsort.obj
 0001:00011ce0       strncpy_s                  0000000140012ce0 f   libucrt:strncpy_s.obj
 0001:00011e60       strpbrk                    0000000140012e60 f   libucrt:strpbrk.obj
 0001:00012240       _mbsdec                    0000000140013240 f   libucrt:mbsdec.obj
 0001:00012248       _mbsdec_l                  0000000140013248 f   libucrt:mbsdec.obj
 0001:0001234c       _close                     000000014001334c f   libucrt:close.obj
 0001:000123f0       _close_nolock              00000001400133f0 f   libucrt:close.obj
 0001:000124ac       ?__acrt_stdio_free_stream@@YAXV__crt_stdio_stream@@@Z 00000001400134ac f   libucrt:stream.obj
 0001:00012654       _lseeki64                  0000000140013654 f   libucrt:lseek.obj
 0001:0001265c       _lseeki64_nolock           000000014001365c f   libucrt:lseek.obj
 0001:00012664       _putwch_nolock             0000000140013664 f   libucrt:putwch.obj
 0001:000126a0       __strncnt                  00000001400136a0 f   libucrt:strncnt.obj
 0001:000126b8       fegetenv                   00000001400136b8 f   libucrt:fegetenv.obj
 0001:000126d8       fesetenv                   00000001400136d8 f   libucrt:fesetenv.obj
 0001:00012728       feholdexcept               0000000140013728 f   libucrt:feholdexcept.obj
 0001:00012778       ceil                       0000000140013778 f   libucrt:ceil.obj
 0001:00012840       log10                      0000000140013840 f   libucrt:log10.obj
 0001:00012dec       __acrt_stdio_allocate_buffer_nolock 0000000140013dec f   libucrt:_getbuf.obj
 0001:00012e50       __ascii_strnicmp           0000000140013e50 f   libucrt:strnicmp.obj
 0001:00012eac       _strnicmp                  0000000140013eac f   libucrt:strnicmp.obj
 0001:00012efc       _strnicmp_l                0000000140013efc f   libucrt:strnicmp.obj
 0001:00013328       __acrt_CompareStringA      0000000140014328 f   libucrt:comparestringa.obj
 0001:000133b4       __dcrt_lowio_ensure_console_output_initialized 00000001400143b4 f   libucrt:initcon.obj
 0001:00013408       __dcrt_terminate_console_output 0000000140014408 f   libucrt:initcon.obj
 0001:00013424       __dcrt_write_console_w     0000000140014424 f   libucrt:initcon.obj
 0001:000134e4       __acrt_fenv_get_control    00000001400144e4 f   libucrt:_fenvutils.obj
 0001:000135e4       __acrt_fenv_get_status     00000001400145e4 f   libucrt:_fenvutils.obj
 0001:0001363c       __acrt_fenv_set_control    000000014001463c f   libucrt:_fenvutils.obj
 0001:00013784       __acrt_fenv_set_status     0000000140014784 f   libucrt:_fenvutils.obj
 0001:00013808       _clearfp                   0000000140014808 f   libucrt:ieee.obj
 0001:0001399c       _handle_error              000000014001499c f   libucrt:libm_error.obj
 0001:00013ac4       _handle_nan                0000000140014ac4 f   libucrt:libm_error.obj
 0001:00013ae0       __acrt_initialize_fma3     0000000140014ae0 f   libucrt:fma3_available.obj
 0001:00013b50       _log10_special             0000000140014b50 f   libucrt:log_special.obj
 0001:00013c20       _get_fpsr                  0000000140014c20 f   libucrt:fpsr.obj
 0001:00013c30       _set_fpsr                  0000000140014c30 f   libucrt:fpsr.obj
 0001:00013c3a       _fclrf                     0000000140014c3a f   libucrt:fpsr.obj
 0001:00013c4e       _frnd                      0000000140014c4e f   libucrt:fpsr.obj
 0001:00013c70       _raise_exc                 0000000140014c70 f   libucrt:fpexcept.obj
 0001:00013c98       _raise_exc_ex              0000000140014c98 f   libucrt:fpexcept.obj
 0001:00013fa0       _set_errno_from_matherr    0000000140014fa0 f   libucrt:fpexcept.obj
 0001:00013fd0       _clrfp                     0000000140014fd0 f   libucrt:fpctrl.obj
 0001:00013ff0       _ctrlfp                    0000000140014ff0 f   libucrt:fpctrl.obj
 0001:0001406c       _set_statfp                000000014001506c f   libucrt:fpctrl.obj
 0001:0001408c       _statfp                    000000014001508c f   libucrt:fpctrl.obj
 0001:000140a0       _FindPESection             00000001400150a0 f   LIBCMT:pesect.obj
 0001:000140f0       _IsNonwritableInCurrentImage 00000001400150f0 f   LIBCMT:pesect.obj
 0001:00014140       _ValidateImageBase         0000000140015140 f   LIBCMT:pesect.obj
 0001:00014180       __chkstk                   0000000140015180 f   LIBCMT:_chkstk_.obj
 0001:00014180       _alloca_probe              0000000140015180 f   LIBCMT:_chkstk_.obj
 0001:000141d2       RtlUnwindEx                00000001400151d2 f   kernel32:KERNEL32.dll
 0001:000141d8       SystemFunction036          00000001400151d8 f   advapi32:ADVAPI32.dll
 0001:000141f0       memcmp                     00000001400151f0 f   libvcruntime:memcmp.obj
 0001:000142b8       strrchr                    00000001400152b8 f   libvcruntime:strrchr.obj
 0001:000143fc       strchr                     00000001400153fc f   libvcruntime:strchr.obj
 0001:00014486       SDL_ShowSimpleMessageBox   0000000140015486 f   SDL2:SDL2.dll
 0001:0001448c       SDL_SetMainReady           000000014001548c f   SDL2:SDL2.dll
 0001:00014492       SDL_free                   0000000140015492 f   SDL2:SDL2.dll
 0001:00014498       SDL_malloc                 0000000140015498 f   SDL2:SDL2.dll
 0001:0001449e       SDL_iconv_string           000000014001549e f   SDL2:SDL2.dll
 0001:000144a4       SDL_wcslen                 00000001400154a4 f   SDL2:SDL2.dll
 0001:000144c0       _guard_dispatch_icall_nop  00000001400154c0 f   LIBCMT:_guard_dispatch_.obj
 0002:00000000       __imp_SystemFunction036    0000000140016000     advapi32:ADVAPI32.dll
 0002:00000008       \177ADVAPI32_NULL_THUNK_DATA 0000000140016008     advapi32:ADVAPI32.dll
 0002:00000010       __imp_GetConsoleMode       0000000140016010     kernel32:KERNEL32.dll
 0002:00000018       __imp_GetConsoleCP         0000000140016018     kernel32:KERNEL32.dll
 0002:00000020       __imp_FlushFileBuffers     0000000140016020     kernel32:KERNEL32.dll
 0002:00000028       __imp_GetStringTypeW       0000000140016028     kernel32:KERNEL32.dll
 0002:00000030       __imp_SetStdHandle         0000000140016030     kernel32:KERNEL32.dll
 0002:00000038       __imp_FindNextFileA        0000000140016038     kernel32:KERNEL32.dll
 0002:00000040       __imp_FindFirstFileExA     0000000140016040     kernel32:KERNEL32.dll
 0002:00000048       __imp_FindClose            0000000140016048     kernel32:KERNEL32.dll
 0002:00000050       __imp_HeapSize             0000000140016050     kernel32:KERNEL32.dll
 0002:00000058       __imp_SetEnvironmentVariableA 0000000140016058     kernel32:KERNEL32.dll
 0002:00000060       __imp_FreeEnvironmentStringsW 0000000140016060     kernel32:KERNEL32.dll
 0002:00000068       __imp_GetEnvironmentStringsW 0000000140016068     kernel32:KERNEL32.dll
 0002:00000070       __imp_GetCPInfo            0000000140016070     kernel32:KERNEL32.dll
 0002:00000078       __imp_GetOEMCP             0000000140016078     kernel32:KERNEL32.dll
 0002:00000080       __imp_IsValidCodePage      0000000140016080     kernel32:KERNEL32.dll
 0002:00000088       __imp_GetFileType          0000000140016088     kernel32:KERNEL32.dll
 0002:00000090       __imp_GetProcessHeap       0000000140016090     kernel32:KERNEL32.dll
 0002:00000098       __imp_TlsGetValue          0000000140016098     kernel32:KERNEL32.dll
 0002:000000a0       __imp_WriteConsoleW        00000001400160a0     kernel32:KERNEL32.dll
 0002:000000a8       __imp_CreateFileW          00000001400160a8     kernel32:KERNEL32.dll
 0002:000000b0       __imp_SetFilePointerEx     00000001400160b0     kernel32:KERNEL32.dll
 0002:000000b8       __imp_CloseHandle          00000001400160b8     kernel32:KERNEL32.dll
 0002:000000c0       __imp_RtlCaptureContext    00000001400160c0     kernel32:KERNEL32.dll
 0002:000000c8       __imp_RtlLookupFunctionEntry 00000001400160c8     kernel32:KERNEL32.dll
 0002:000000d0       __imp_RtlVirtualUnwind     00000001400160d0     kernel32:KERNEL32.dll
 0002:000000d8       __imp_IsDebuggerPresent    00000001400160d8     kernel32:KERNEL32.dll
 0002:000000e0       __imp_UnhandledExceptionFilter 00000001400160e0     kernel32:KERNEL32.dll
 0002:000000e8       __imp_SetUnhandledExceptionFilter 00000001400160e8     kernel32:KERNEL32.dll
 0002:000000f0       __imp_GetStartupInfoW      00000001400160f0     kernel32:KERNEL32.dll
 0002:000000f8       __imp_IsProcessorFeaturePresent 00000001400160f8     kernel32:KERNEL32.dll
 0002:00000100       __imp_GetModuleHandleW     0000000140016100     kernel32:KERNEL32.dll
 0002:00000108       __imp_GetCurrentProcess    0000000140016108     kernel32:KERNEL32.dll
 0002:00000110       __imp_TerminateProcess     0000000140016110     kernel32:KERNEL32.dll
 0002:00000118       __imp_QueryPerformanceCounter 0000000140016118     kernel32:KERNEL32.dll
 0002:00000120       __imp_GetCurrentProcessId  0000000140016120     kernel32:KERNEL32.dll
 0002:00000128       __imp_GetCurrentThreadId   0000000140016128     kernel32:KERNEL32.dll
 0002:00000130       __imp_GetSystemTimeAsFileTime 0000000140016130     kernel32:KERNEL32.dll
 0002:00000138       __imp_InitializeSListHead  0000000140016138     kernel32:KERNEL32.dll
 0002:00000140       __imp_RtlPcToFileHeader    0000000140016140     kernel32:KERNEL32.dll
 0002:00000148       __imp_RaiseException       0000000140016148     kernel32:KERNEL32.dll
 0002:00000150       __imp_RtlUnwindEx          0000000140016150     kernel32:KERNEL32.dll
 0002:00000158       __imp_GetLastError         0000000140016158     kernel32:KERNEL32.dll
 0002:00000160       __imp_GetModuleFileNameW   0000000140016160     kernel32:KERNEL32.dll
 0002:00000168       __imp_SetLastError         0000000140016168     kernel32:KERNEL32.dll
 0002:00000170       __imp_EncodePointer        0000000140016170     kernel32:KERNEL32.dll
 0002:00000178       __imp_EnterCriticalSection 0000000140016178     kernel32:KERNEL32.dll
 0002:00000180       __imp_LeaveCriticalSection 0000000140016180     kernel32:KERNEL32.dll
 0002:00000188       __imp_DeleteCriticalSection 0000000140016188     kernel32:KERNEL32.dll
 0002:00000190       __imp_InitializeCriticalSectionAndSpinCount 0000000140016190     kernel32:KERNEL32.dll
 0002:00000198       __imp_TlsAlloc             0000000140016198     kernel32:KERNEL32.dll
 0002:000001a0       __imp_LCMapStringW         00000001400161a0     kernel32:KERNEL32.dll
 0002:000001a8       __imp_TlsSetValue          00000001400161a8     kernel32:KERNEL32.dll
 0002:000001b0       __imp_TlsFree              00000001400161b0     kernel32:KERNEL32.dll
 0002:000001b8       __imp_FreeLibrary          00000001400161b8     kernel32:KERNEL32.dll
 0002:000001c0       __imp_GetProcAddress       00000001400161c0     kernel32:KERNEL32.dll
 0002:000001c8       __imp_LoadLibraryExW       00000001400161c8     kernel32:KERNEL32.dll
 0002:000001d0       __imp_ExitProcess          00000001400161d0     kernel32:KERNEL32.dll
 0002:000001d8       __imp_GetModuleHandleExW   00000001400161d8     kernel32:KERNEL32.dll
 0002:000001e0       __imp_MultiByteToWideChar  00000001400161e0     kernel32:KERNEL32.dll
 0002:000001e8       __imp_WideCharToMultiByte  00000001400161e8     kernel32:KERNEL32.dll
 0002:000001f0       __imp_GetStdHandle         00000001400161f0     kernel32:KERNEL32.dll
 0002:000001f8       __imp_WriteFile            00000001400161f8     kernel32:KERNEL32.dll
 0002:00000200       __imp_GetModuleFileNameA   0000000140016200     kernel32:KERNEL32.dll
 0002:00000208       __imp_GetCommandLineA      0000000140016208     kernel32:KERNEL32.dll
 0002:00000210       __imp_GetCommandLineW      0000000140016210     kernel32:KERNEL32.dll
 0002:00000218       __imp_GetACP               0000000140016218     kernel32:KERNEL32.dll
 0002:00000220       __imp_HeapFree             0000000140016220     kernel32:KERNEL32.dll
 0002:00000228       __imp_HeapAlloc            0000000140016228     kernel32:KERNEL32.dll
 0002:00000230       __imp_CompareStringW       0000000140016230     kernel32:KERNEL32.dll
 0002:00000238       __imp_HeapReAlloc          0000000140016238     kernel32:KERNEL32.dll
 0002:00000240       \177KERNEL32_NULL_THUNK_DATA 0000000140016240     kernel32:KERNEL32.dll
 0002:00000248       __imp_SDL_ShowSimpleMessageBox 0000000140016248     SDL2:SDL2.dll
 0002:00000250       __imp_SDL_SetMainReady     0000000140016250     SDL2:SDL2.dll
 0002:00000258       __imp_SDL_free             0000000140016258     SDL2:SDL2.dll
 0002:00000260       __imp_SDL_malloc           0000000140016260     SDL2:SDL2.dll
 0002:00000268       __imp_SDL_iconv_string     0000000140016268     SDL2:SDL2.dll
 0002:00000270       __imp_SDL_Quit             0000000140016270     SDL2:SDL2.dll
 0002:00000278       __imp_SDL_Init             0000000140016278     SDL2:SDL2.dll
 0002:00000280       __imp_SDL_DestroyRenderer  0000000140016280     SDL2:SDL2.dll
 0002:00000288       __imp_SDL_DestroyTexture   0000000140016288     SDL2:SDL2.dll
 0002:00000290       __imp_SDL_RenderPresent    0000000140016290     SDL2:SDL2.dll
 0002:00000298       __imp_SDL_RenderCopyEx     0000000140016298     SDL2:SDL2.dll
 0002:000002a0       __imp_SDL_RenderClear      00000001400162a0     SDL2:SDL2.dll
 0002:000002a8       __imp_SDL_SetRenderDrawColor 00000001400162a8     SDL2:SDL2.dll
 0002:000002b0       __imp_SDL_SetTextureBlendMode 00000001400162b0     SDL2:SDL2.dll
 0002:000002b8       __imp_SDL_SetTextureAlphaMod 00000001400162b8     SDL2:SDL2.dll
 0002:000002c0       __imp_SDL_SetTextureColorMod 00000001400162c0     SDL2:SDL2.dll
 0002:000002c8       __imp_SDL_CreateTextureFromSurface 00000001400162c8     SDL2:SDL2.dll
 0002:000002d0       __imp_SDL_CreateRenderer   00000001400162d0     SDL2:SDL2.dll
 0002:000002d8       __imp_SDL_PollEvent        00000001400162d8     SDL2:SDL2.dll
 0002:000002e0       __imp_SDL_DestroyWindow    00000001400162e0     SDL2:SDL2.dll
 0002:000002e8       __imp_SDL_CreateWindow     00000001400162e8     SDL2:SDL2.dll
 0002:000002f0       __imp_SDL_SetColorKey      00000001400162f0     SDL2:SDL2.dll
 0002:000002f8       __imp_SDL_FreeSurface      00000001400162f8     SDL2:SDL2.dll
 0002:00000300       __imp_SDL_MapRGB           0000000140016300     SDL2:SDL2.dll
 0002:00000308       __imp_SDL_GetError         0000000140016308     SDL2:SDL2.dll
 0002:00000310       __imp_SDL_wcslen           0000000140016310     SDL2:SDL2.dll
 0002:00000318       \177SDL2_NULL_THUNK_DATA   0000000140016318     SDL2:SDL2.dll
 0002:00000320       __imp_IMG_Init             0000000140016320     SDL2_image:SDL2_image.dll
 0002:00000328       __imp_IMG_Quit             0000000140016328     SDL2_image:SDL2_image.dll
 0002:00000330       __imp_IMG_Load             0000000140016330     SDL2_image:SDL2_image.dll
 0002:00000338       __imp_IMG_LoadTexture      0000000140016338     SDL2_image:SDL2_image.dll
 0002:00000340       \177SDL2_image_NULL_THUNK_DATA 0000000140016340     SDL2_image:SDL2_image.dll
 0002:00000348       __imp_TTF_OpenFont         0000000140016348     SDL2_ttf:SDL2_ttf.dll
 0002:00000350       __imp_TTF_RenderText_Solid 0000000140016350     SDL2_ttf:SDL2_ttf.dll
 0002:00000358       __imp_TTF_CloseFont        0000000140016358     SDL2_ttf:SDL2_ttf.dll
 0002:00000360       __imp_TTF_Quit             0000000140016360     SDL2_ttf:SDL2_ttf.dll
 0002:00000368       __imp_TTF_Init             0000000140016368     SDL2_ttf:SDL2_ttf.dll
 0002:00000370       \177SDL2_ttf_NULL_THUNK_DATA 0000000140016370     SDL2_ttf:SDL2_ttf.dll
 0002:00000378       __guard_check_icall_fptr   0000000140016378     LIBCMT:guard_support.obj
 0002:00000380       __guard_dispatch_icall_fptr 0000000140016380     LIBCMT:guard_support.obj
 0002:00000388       __xc_a                     0000000140016388     LIBCMT:initializers.obj
 0002:000003b0       __xc_z                     00000001400163b0     LIBCMT:initializers.obj
 0002:000003b8       __xi_a                     00000001400163b8     LIBCMT:initializers.obj
 0002:000003d0       __acrt_stdio_initializer   00000001400163d0     libucrt:stdio_initializer.obj
 0002:000003d8       __acrt_multibyte_initializer 00000001400163d8     libucrt:multibyte_initializer.obj
 0002:000003e0       __acrt_tran_fma3_initializer 00000001400163e0     libucrt:fma3_initializer.obj
 0002:000003e8       __xi_z                     00000001400163e8     LIBCMT:initializers.obj
 0002:000003f0       __xp_a                     00000001400163f0     LIBCMT:initializers.obj
 0002:000003f8       __acrt_locale_terminator   00000001400163f8     libucrt:locale_initializer.obj
 0002:00000400       __dcrt_console_output_terminator 0000000140016400     libucrt:console_output_initializer.obj
 0002:00000408       __acrt_stdio_terminator    0000000140016408     libucrt:stdio_initializer.obj
 0002:00000410       __xp_z                     0000000140016410     LIBCMT:initializers.obj
 0002:00000418       __xt_a                     0000000140016418     LIBCMT:initializers.obj
 0002:00000420       __xt_z                     0000000140016420     LIBCMT:initializers.obj
 0002:000007a0       ??_C@_0BI@CFPLBAOH@invalid?5string?5position?$AA@ 00000001400167a0     main.obj
 0002:000007b8       ??_C@_0BA@JFNIOLAK@string?5too?5long?$AA@ 00000001400167b8     main.obj
 0002:000007c8       __real@404e000000000000    00000001400167c8     main.obj
 0002:000007d8       ??_7exception@std@@6B@     00000001400167d8     libcpmt:xthrow.obj
 0002:000007e8       ??_C@_0BC@EOODALEL@Unknown?5exception?$AA@ 00000001400167e8     libcpmt:xthrow.obj
 0002:00000808       ??_7bad_alloc@std@@6B@     0000000140016808     libcpmt:xthrow.obj
 0002:00000818       ??_C@_0P@GHFPNOJB@bad?5allocation?$AA@ 0000000140016818     libcpmt:xthrow.obj
 0002:00000830       ??_7logic_error@std@@6B@   0000000140016830     libcpmt:xthrow.obj
 0002:00000848       ??_7length_error@std@@6B@  0000000140016848     libcpmt:xthrow.obj
 0002:00000860       ??_7out_of_range@std@@6B@  0000000140016860     libcpmt:xthrow.obj
 0002:00000878       ??_7type_info@@6B@         0000000140016878     LIBCMT:std_type_info_static.obj
 0002:00000888       ??_7bad_array_new_length@std@@6B@ 0000000140016888     LIBCMT:throw_bad_alloc.obj
 0002:00000898       ??_C@_0BF@KINCDENJ@bad?5array?5new?5length?$AA@ 0000000140016898     LIBCMT:throw_bad_alloc.obj
 0002:00000998       _Microsoft_CRTProvider     0000000140016998     libvcruntime:telemetry.obj
 0002:000009a0       ??_C@_00CNPNBAHC@?$AA@     00000001400169a0     libvcruntime:telemetry.obj
 0002:000009a4       ??_C@_11LOCGONAA@?$AA?$AA@ 00000001400169a4     libvcruntime:telemetry.obj
 0002:000009a8       ??_C@_0O@JEOPJOMI@Main?5Invoked?4?$AA@ 00000001400169a8     libvcruntime:telemetry.obj
 0002:000009b8       ??_C@_0P@NEAEIBDO@Main?5Returned?4?$AA@ 00000001400169b8     libvcruntime:telemetry.obj
 0002:000009c8       _pDestructExceptionObject  00000001400169c8     libvcruntime:frame.obj
 0002:000009d8       ??_7bad_exception@std@@6B@ 00000001400169d8     libvcruntime:frame.obj
 0002:000009e8       ??_C@_0O@DPKOEFFH@bad?5exception?$AA@ 00000001400169e8     libvcruntime:frame.obj
 0002:00000a18       ??_C@_1BC@DNHGCMLG@?$AAa?$AAd?$AAv?$AAa?$AAp?$AAi?$AA3?$AA2?$AA?$AA@ 0000000140016a18     libvcruntime:winapi_downlevel.obj
 0002:00000a30       ??_C@_1DM@KHCHBNEB@?$AAa?$AAp?$AAi?$AA?9?$AAm?$AAs?$AA?9?$AAw?$AAi?$AAn?$AA?9?$AAc?$AAo?$AAr?$AAe?$AA?9?$AAf?$AAi?$AAb?$AAe?$AAr?$AAs?$AA?9?$AAl?$AA1?$AA?9?$AA1?$AA?9?$AA1?$AA?$AA@ 0000000140016a30     libvcruntime:winapi_downlevel.obj
 0002:00000a70       ??_C@_1DK@LPPGFMPP@?$AAa?$AAp?$AAi?$AA?9?$AAm?$AAs?$AA?9?$AAw?$AAi?$AAn?$AA?9?$AAc?$AAo?$AAr?$AAe?$AA?9?$AAs?$AAy?$AAn?$AAc?$AAh?$AA?9?$AAl?$AA1?$AA?9?$AA2?$AA?9?$AA0?$AA?$AA@ 0000000140016a70     libvcruntime:winapi_downlevel.obj
 0002:00000ab0       ??_C@_1BC@GDMECMAK@?$AAk?$AAe?$AAr?$AAn?$AAe?$AAl?$AA3?$AA2?$AA?$AA@ 0000000140016ab0     libvcruntime:winapi_downlevel.obj
 0002:00000ac8       ??_C@_0O@BAMBGLIE@EventRegister?$AA@ 0000000140016ac8     libvcruntime:winapi_downlevel.obj
 0002:00000ae0       ??_C@_0BE@BJEEGHGK@EventSetInformation?$AA@ 0000000140016ae0     libvcruntime:winapi_downlevel.obj
 0002:00000af8       ??_C@_0BA@FAKLIPIC@EventUnregister?$AA@ 0000000140016af8     libvcruntime:winapi_downlevel.obj
 0002:00000b10       ??_C@_0BD@PKLHJPHD@EventWriteTransfer?$AA@ 0000000140016b10     libvcruntime:winapi_downlevel.obj
 0002:00000b30       ??_C@_08KNHFBNJ@FlsAlloc?$AA@ 0000000140016b30     libvcruntime:winapi_downlevel.obj
 0002:00000b48       ??_C@_07PEJMOBNF@FlsFree?$AA@ 0000000140016b48     libvcruntime:winapi_downlevel.obj
 0002:00000b58       ??_C@_0M@GDNOONDI@FlsGetValue?$AA@ 0000000140016b58     libvcruntime:winapi_downlevel.obj
 0002:00000b70       ??_C@_0M@JCPCPOEF@FlsSetValue?$AA@ 0000000140016b70     libvcruntime:winapi_downlevel.obj
 0002:00000b88       ??_C@_0BM@HCFOFFN@InitializeCriticalSectionEx?$AA@ 0000000140016b88     libvcruntime:winapi_downlevel.obj
 0002:00000ba4       ??_C@_01JOAMLHOP@?9?$AA@   0000000140016ba4     libvcruntime:undname.obj
 0002:00000ba8       ??_C@_01MIFGBAGJ@?$CL?$AA@ 0000000140016ba8     libvcruntime:undname.obj
 0002:00000bac       ??_C@_01HNPIGOCE@?$CG?$AA@ 0000000140016bac     libvcruntime:undname.obj
 0002:00000bb0       ??_C@_03MNHNFDLC@?9?$DO?$CK?$AA@ 0000000140016bb0     libvcruntime:undname.obj
 0002:00000bb4       ??_C@_01KMDKNFGN@?1?$AA@   0000000140016bb4     libvcruntime:undname.obj
 0002:00000bb8       ??_C@_01FGNFDNOH@?$CF?$AA@ 0000000140016bb8     libvcruntime:undname.obj
 0002:00000bbc       ??_C@_01MNNFJEPP@?$DM?$AA@ 0000000140016bbc     libvcruntime:undname.obj
 0002:00000bc0       ??_C@_02EHCHHCKH@?$DM?$DN?$AA@ 0000000140016bc0     libvcruntime:undname.obj
 0002:00000bc4       ??_C@_01PPODPGHN@?$DO?$AA@ 0000000140016bc4     libvcruntime:undname.obj
 0002:00000bc8       ??_C@_02EEKDKGMJ@?$DO?$DN?$AA@ 0000000140016bc8     libvcruntime:undname.obj
 0002:00000bcc       ??_C@_01IHBHIGKO@?0?$AA@   0000000140016bcc     libvcruntime:undname.obj
 0002:00000bd0       ??_C@_02HCKGKOFO@?$CI?$CJ?$AA@ 0000000140016bd0     libvcruntime:undname.obj
 0002:00000bd4       ??_C@_01PJKLJHI@?$HO?$AA@  0000000140016bd4     libvcruntime:undname.obj
 0002:00000bd8       ??_C@_01JKBOJNNK@?$FO?$AA@ 0000000140016bd8     libvcruntime:undname.obj
 0002:00000bdc       ??_C@_01DNKMNLPK@?$HM?$AA@ 0000000140016bdc     libvcruntime:undname.obj
 0002:00000be0       ??_C@_02PPKAJPJL@?$CG?$CG?$AA@ 0000000140016be0     libvcruntime:undname.obj
 0002:00000be4       ??_C@_02NONPIBCD@?$HM?$HM?$AA@ 0000000140016be4     libvcruntime:undname.obj
 0002:00000be8       ??_C@_02FPIMKNGF@?$CK?$DN?$AA@ 0000000140016be8     libvcruntime:undname.obj
 0002:00000bec       ??_C@_02FOEOMHFC@?$CL?$DN?$AA@ 0000000140016bec     libvcruntime:undname.obj
 0002:00000bf0       ??_C@_02FKMDLLOA@?9?$DN?$AA@ 0000000140016bf0     libvcruntime:undname.obj
 0002:00000bf4       ??_C@_02FJEHGPIO@?1?$DN?$AA@ 0000000140016bf4     libvcruntime:undname.obj
 0002:00000bf8       ??_C@_02FENAOKFI@?$CF?$DN?$AA@ 0000000140016bf8     libvcruntime:undname.obj
 0002:00000bfc       ??_C@_03IKFCCPFF@?$DO?$DO?$DN?$AA@ 0000000140016bfc     libvcruntime:undname.obj
 0002:00000c00       ??_C@_03CDNPDDLA@?$DM?$DM?$DN?$AA@ 0000000140016c00     libvcruntime:undname.obj
 0002:00000c04       ??_C@_02FGJGFEAB@?$CG?$DN?$AA@ 0000000140016c04     libvcruntime:undname.obj
 0002:00000c08       ??_C@_02DHLNPPGH@?$HM?$DN?$AA@ 0000000140016c08     libvcruntime:undname.obj
 0002:00000c0c       ??_C@_02MHEGNOJ@?$FO?$DN?$AA@ 0000000140016c0c     libvcruntime:undname.obj
 0002:00000c10       ??_C@_09IFPLHPGF@?$GAvftable?8?$AA@ 0000000140016c10     libvcruntime:undname.obj
 0002:00000c20       ??_C@_09BLBHBJP@?$GAvbtable?8?$AA@ 0000000140016c20     libvcruntime:undname.obj
 0002:00000c30       ??_C@_07FEEIOKP@?$GAvcall?8?$AA@ 0000000140016c30     libvcruntime:undname.obj
 0002:00000c38       ??_C@_08LLFFHHDJ@?$GAtypeof?8?$AA@ 0000000140016c38     libvcruntime:undname.obj
 0002:00000c48       ??_C@_0BF@KDPPACIK@?$GAlocal?5static?5guard?8?$AA@ 0000000140016c48     libvcruntime:undname.obj
 0002:00000c60       ??_C@_08OBABFOLI@?$GAstring?8?$AA@ 0000000140016c60     libvcruntime:undname.obj
 0002:00000c70       ??_C@_0BD@JDLKDPAB@?$GAvbase?5destructor?8?$AA@ 0000000140016c70     libvcruntime:undname.obj
 0002:00000c88       ??_C@_0BN@DEGPLNFK@?$GAvector?5deleting?5destructor?8?$AA@ 0000000140016c88     libvcruntime:undname.obj
 0002:00000ca8       ??_C@_0BO@OBMKPJIG@?$GAdefault?5constructor?5closure?8?$AA@ 0000000140016ca8     libvcruntime:undname.obj
 0002:00000cc8       ??_C@_0BN@IMDCHIKM@?$GAscalar?5deleting?5destructor?8?$AA@ 0000000140016cc8     libvcruntime:undname.obj
 0002:00000ce8       ??_C@_0BO@PFGOCPJJ@?$GAvector?5constructor?5iterator?8?$AA@ 0000000140016ce8     libvcruntime:undname.obj
 0002:00000d08       ??_C@_0BN@LFPFMEDL@?$GAvector?5destructor?5iterator?8?$AA@ 0000000140016d08     libvcruntime:undname.obj
 0002:00000d28       ??_C@_0CE@IKBNEHA@?$GAvector?5vbase?5constructor?5iterat@ 0000000140016d28     libvcruntime:undname.obj
 0002:00000d50       ??_C@_0BL@NILFHHPC@?$GAvirtual?5displacement?5map?8?$AA@ 0000000140016d50     libvcruntime:undname.obj
 0002:00000d70       ??_C@_0CB@JONCMFFK@?$GAeh?5vector?5constructor?5iterator?8@ 0000000140016d70     libvcruntime:undname.obj
 0002:00000d98       ??_C@_0CA@GCEOPDGL@?$GAeh?5vector?5destructor?5iterator?8?$AA@ 0000000140016d98     libvcruntime:undname.obj
 0002:00000db8       ??_C@_0CH@OOJPLCPH@?$GAeh?5vector?5vbase?5constructor?5ite@ 0000000140016db8     libvcruntime:undname.obj
 0002:00000de0       ??_C@_0BL@LLKPOHJI@?$GAcopy?5constructor?5closure?8?$AA@ 0000000140016de0     libvcruntime:undname.obj
 0002:00000e00       ??_C@_0BA@KBCDOMBN@?$GAudt?5returning?8?$AA@ 0000000140016e00     libvcruntime:undname.obj
 0002:00000e10       ??_C@_03KLGMFNMG@?$GAEH?$AA@ 0000000140016e10     libvcruntime:undname.obj
 0002:00000e14       ??_C@_05KHLCHHI@?$GARTTI?$AA@ 0000000140016e14     libvcruntime:undname.obj
 0002:00000e20       ??_C@_0BA@KKLDJDLB@?$GAlocal?5vftable?8?$AA@ 0000000140016e20     libvcruntime:undname.obj
 0002:00000e30       ??_C@_0CE@IIHCMGGL@?$GAlocal?5vftable?5constructor?5closu@ 0000000140016e30     libvcruntime:undname.obj
 0002:00000e54       ??_C@_06FHBGPFGH@?5new?$FL?$FN?$AA@ 0000000140016e54     libvcruntime:undname.obj
 0002:00000e60       ??_C@_09LBNFPBCA@?5delete?$FL?$FN?$AA@ 0000000140016e60     libvcruntime:undname.obj
 0002:00000e70       ??_C@_0P@HJKNJFNN@?$GAomni?5callsig?8?$AA@ 0000000140016e70     libvcruntime:undname.obj
 0002:00000e80       ??_C@_0BL@CNOONJFP@?$GAplacement?5delete?5closure?8?$AA@ 0000000140016e80     libvcruntime:undname.obj
 0002:00000ea0       ??_C@_0BN@CKNJLHMB@?$GAplacement?5delete?$FL?$FN?5closure?8?$AA@ 0000000140016ea0     libvcruntime:undname.obj
 0002:00000ec0       ??_C@_0CG@CFDHKGGD@?$GAmanaged?5vector?5constructor?5iter@ 0000000140016ec0     libvcruntime:undname.obj
 0002:00000ee8       ??_C@_0CF@IMGKMJNO@?$GAmanaged?5vector?5destructor?5itera@ 0000000140016ee8     libvcruntime:undname.obj
 0002:00000f10       ??_C@_0CG@HLDDJMAG@?$GAeh?5vector?5copy?5constructor?5iter@ 0000000140016f10     libvcruntime:undname.obj
 0002:00000f38       ??_C@_0CM@FCBBDIGB@?$GAeh?5vector?5vbase?5copy?5constructo@ 0000000140016f38     libvcruntime:undname.obj
 0002:00000f68       ??_C@_0BL@CLIPGLGB@?$GAdynamic?5initializer?5for?5?8?$AA@ 0000000140016f68     libvcruntime:undname.obj
 0002:00000f88       ??_C@_0CB@PDBIFEP@?$GAdynamic?5atexit?5destructor?5for?5?8@ 0000000140016f88     libvcruntime:undname.obj
 0002:00000fb0       ??_C@_0CD@CGAJBKEJ@?$GAvector?5copy?5constructor?5iterato@ 0000000140016fb0     libvcruntime:undname.obj
 0002:00000fd8       ??_C@_0CJ@GJELGAMM@?$GAvector?5vbase?5copy?5constructor?5i@ 0000000140016fd8     libvcruntime:undname.obj
 0002:00001008       ??_C@_0CL@FGIJHLCE@?$GAmanaged?5vector?5copy?5constructor@ 0000000140017008     libvcruntime:undname.obj
 0002:00001038       ??_C@_0BM@PMGGMLDN@?$GAlocal?5static?5thread?5guard?8?$AA@ 0000000140017038     libvcruntime:undname.obj
 0002:00001058       ??_C@_0N@BDNMDMOL@operator?5?$CC?$CC?5?$AA@ 0000000140017058     libvcruntime:undname.obj
 0002:00001398       ??_C@_0BC@DAFEJGAK@?5Type?5Descriptor?8?$AA@ 0000000140017398     libvcruntime:undname.obj
 0002:000013b0       ??_C@_0BM@LDKODKLH@?5Base?5Class?5Descriptor?5at?5?$CI?$AA@ 00000001400173b0     libvcruntime:undname.obj
 0002:000013d0       ??_C@_0BD@LGICGFMM@?5Base?5Class?5Array?8?$AA@ 00000001400173d0     libvcruntime:undname.obj
 0002:000013e8       ??_C@_0BN@MECKDCOJ@?5Class?5Hierarchy?5Descriptor?8?$AA@ 00000001400173e8     libvcruntime:undname.obj
 0002:00001408       ??_C@_0BK@CFCOFLF@?5Complete?5Object?5Locator?8?$AA@ 0000000140017408     libvcruntime:undname.obj
 0002:00001428       ??_C@_08EHJDFFNH@__based?$CI?$AA@ 0000000140017428     libvcruntime:undname.obj
 0002:00001438       ??_C@_07KOLFKCDI@__cdecl?$AA@ 0000000140017438     libvcruntime:undname.obj
 0002:00001440       ??_C@_08GHMPAG@__pascal?$AA@ 0000000140017440     libvcruntime:undname.obj
 0002:00001450       ??_C@_09IFJBGAPI@__stdcall?$AA@ 0000000140017450     libvcruntime:undname.obj
 0002:00001460       ??_C@_0L@NPHFGOKO@__thiscall?$AA@ 0000000140017460     libvcruntime:undname.obj
 0002:00001470       ??_C@_0L@JMKHOMEK@__fastcall?$AA@ 0000000140017470     libvcruntime:undname.obj
 0002:00001480       ??_C@_0N@BCKKPABJ@__vectorcall?$AA@ 0000000140017480     libvcruntime:undname.obj
 0002:00001490       ??_C@_09HIJEGCPM@__clrcall?$AA@ 0000000140017490     libvcruntime:undname.obj
 0002:0000149c       ??_C@_06GHPCKEAG@__eabi?$AA@ 000000014001749c     libvcruntime:undname.obj
 0002:000014a8       ??_C@_07JOMMBBKO@__ptr64?$AA@ 00000001400174a8     libvcruntime:undname.obj
 0002:000014b0       ??_C@_0L@PILCLIHE@__restrict?$AA@ 00000001400174b0     libvcruntime:undname.obj
 0002:000014c0       ??_C@_0M@GFIIJFMG@__unaligned?$AA@ 00000001400174c0     libvcruntime:undname.obj
 0002:000014d0       ??_C@_09DHDLOLLB@restrict?$CI?$AA@ 00000001400174d0     libvcruntime:undname.obj
 0002:000014dc       ??_C@_04NIHEBCM@?5new?$AA@ 00000001400174dc     libvcruntime:undname.obj
 0002:000014e8       ??_C@_07FPCDHGMM@?5delete?$AA@ 00000001400174e8     libvcruntime:undname.obj
 0002:000014f0       ??_C@_01NEMOKFLO@?$DN?$AA@ 00000001400174f0     libvcruntime:undname.obj
 0002:000014f4       ??_C@_02GPIOPFAK@?$DO?$DO?$AA@ 00000001400174f4     libvcruntime:undname.obj
 0002:000014f8       ??_C@_02FODMEDOG@?$DM?$DM?$AA@ 00000001400174f8     libvcruntime:undname.obj
 0002:000014fc       ??_C@_01DCLJPIOD@?$CB?$AA@ 00000001400174fc     libvcruntime:undname.obj
 0002:00001500       ??_C@_02EGOFBIJA@?$DN?$DN?$AA@ 0000000140017500     libvcruntime:undname.obj
 0002:00001504       ??_C@_02FDNJECIE@?$CB?$DN?$AA@ 0000000140017504     libvcruntime:undname.obj
 0002:00001508       ??_C@_02GPECMEKF@?$FL?$FN?$AA@ 0000000140017508     libvcruntime:undname.obj
 0002:00001510       ??_C@_08LHJFAFGD@operator?$AA@ 0000000140017510     libvcruntime:undname.obj
 0002:0000151c       ??_C@_02HBOOOICD@?9?$DO?$AA@ 000000014001751c     libvcruntime:undname.obj
 0002:00001520       ??_C@_01NBENCBCI@?$CK?$AA@ 0000000140017520     libvcruntime:undname.obj
 0002:00001524       ??_C@_02ECNGHCIF@?$CL?$CL?$AA@ 0000000140017524     libvcruntime:undname.obj
 0002:00001528       ??_C@_02BAABKJLB@?9?9?$AA@ 0000000140017528     libvcruntime:undname.obj
 0002:00001530       format_validation_lookup_table 0000000140017530     libucrt:output.obj
 0002:00001590       ??_C@_1O@CEDCILHN@?$AA?$CI?$AAn?$AAu?$AAl?$AAl?$AA?$CJ?$AA?$AA@ 0000000140017590     libucrt:output.obj
 0002:000015a0       ??_C@_06OJHGLDPL@?$CInull?$CJ?$AA@ 00000001400175a0     libucrt:output.obj
 0002:000015b0       __acrt_exception_action_table 00000001400175b0     libucrt:exception_filter.obj
 0002:00001670       __acrt_signal_action_table_count 0000000140017670     libucrt:exception_filter.obj
 0002:00001678       __acrt_signal_action_first_fpe_index 0000000140017678     libucrt:exception_filter.obj
 0002:00001680       __acrt_signal_action_fpe_count 0000000140017680     libucrt:exception_filter.obj
 0002:00001688       ??_C@_1BI@BGOHAHKC@?$AAm?$AAs?$AAc?$AAo?$AAr?$AAe?$AAe?$AA?4?$AAd?$AAl?$AAl?$AA?$AA@ 0000000140017688     libucrt:exit.obj
 0002:000016a0       ??_C@_0P@MIGLKIOC@CorExitProcess?$AA@ 00000001400176a0     libucrt:exit.obj
 0002:000019b0       ??_C@_1EA@JGEFHKEI@?$AAa?$AAp?$AAi?$AA?9?$AAm?$AAs?$AA?9?$AAw?$AAi?$AAn?$AA?9?$AAc?$AAo?$AAr?$AAe?$AA?9?$AAd?$AAa?$AAt?$AAe?$AAt?$AAi?$AAm?$AAe?$AA?9?$AAl?$AA1?$AA?9?$AA1?$AA?9?$AA1?$AA?$AA@ 00000001400179b0     libucrt:winapi_thunks.obj
 0002:000019f0       ??_C@_1DI@IJCEHOCB@?$AAa?$AAp?$AAi?$AA?9?$AAm?$AAs?$AA?9?$AAw?$AAi?$AAn?$AA?9?$AAc?$AAo?$AAr?$AAe?$AA?9?$AAf?$AAi?$AAl?$AAe?$AA?9?$AAl?$AA1?$AA?9?$AA2?$AA?9?$AA2?$AA?$AA@ 00000001400179f0     libucrt:winapi_thunks.obj
 0002:00001a30       ??_C@_1EI@MPIAOHOC@?$AAa?$AAp?$AAi?$AA?9?$AAm?$AAs?$AA?9?$AAw?$AAi?$AAn?$AA?9?$AAc?$AAo?$AAr?$AAe?$AA?9?$AAl?$AAo?$AAc?$AAa?$AAl?$AAi?$AAz?$AAa?$AAt?$AAi?$AAo?$AAn?$AA?9?$AAl?$AA1?$AA?9@ 0000000140017a30     libucrt:winapi_thunks.obj
 0002:00001a80       ??_C@_1FK@FPHCKFIE@?$AAa?$AAp?$AAi?$AA?9?$AAm?$AAs?$AA?9?$AAw?$AAi?$AAn?$AA?9?$AAc?$AAo?$AAr?$AAe?$AA?9?$AAl?$AAo?$AAc?$AAa?$AAl?$AAi?$AAz?$AAa?$AAt?$AAi?$AAo?$AAn?$AA?9?$AAo?$AAb?$AAs@ 0000000140017a80     libucrt:winapi_thunks.obj
 0002:00001ae0       ??_C@_1EM@DILCGIIO@?$AAa?$AAp?$AAi?$AA?9?$AAm?$AAs?$AA?9?$AAw?$AAi?$AAn?$AA?9?$AAc?$AAo?$AAr?$AAe?$AA?9?$AAp?$AAr?$AAo?$AAc?$AAe?$AAs?$AAs?$AAt?$AAh?$AAr?$AAe?$AAa?$AAd?$AAs?$AA?9?$AAl@ 0000000140017ae0     libucrt:winapi_thunks.obj
 0002:00001b30       ??_C@_1DM@LNCGDDPN@?$AAa?$AAp?$AAi?$AA?9?$AAm?$AAs?$AA?9?$AAw?$AAi?$AAn?$AA?9?$AAc?$AAo?$AAr?$AAe?$AA?9?$AAs?$AAt?$AAr?$AAi?$AAn?$AAg?$AA?9?$AAl?$AA1?$AA?9?$AA1?$AA?9?$AA0?$AA?$AA@ 0000000140017b30     libucrt:winapi_thunks.obj
 0002:00001b70       ??_C@_1DO@FPAPJEMD@?$AAa?$AAp?$AAi?$AA?9?$AAm?$AAs?$AA?9?$AAw?$AAi?$AAn?$AA?9?$AAc?$AAo?$AAr?$AAe?$AA?9?$AAs?$AAy?$AAs?$AAi?$AAn?$AAf?$AAo?$AA?9?$AAl?$AA1?$AA?9?$AA2?$AA?9?$AA1?$AA?$AA@ 0000000140017b70     libucrt:winapi_thunks.obj
 0002:00001bb0       ??_C@_1DK@NDHNAHIO@?$AAa?$AAp?$AAi?$AA?9?$AAm?$AAs?$AA?9?$AAw?$AAi?$AAn?$AA?9?$AAc?$AAo?$AAr?$AAe?$AA?9?$AAw?$AAi?$AAn?$AAr?$AAt?$AA?9?$AAl?$AA1?$AA?9?$AA1?$AA?9?$AA0?$AA?$AA@ 0000000140017bb0     libucrt:winapi_thunks.obj
 0002:00001bf0       ??_C@_1DM@KGHDGBCM@?$AAa?$AAp?$AAi?$AA?9?$AAm?$AAs?$AA?9?$AAw?$AAi?$AAn?$AA?9?$AAc?$AAo?$AAr?$AAe?$AA?9?$AAx?$AAs?$AAt?$AAa?$AAt?$AAe?$AA?9?$AAl?$AA2?$AA?9?$AA1?$AA?9?$AA0?$AA?$AA@ 0000000140017bf0     libucrt:winapi_thunks.obj
 0002:00001c30       ??_C@_1EO@IJIOEFOH@?$AAa?$AAp?$AAi?$AA?9?$AAm?$AAs?$AA?9?$AAw?$AAi?$AAn?$AA?9?$AAr?$AAt?$AAc?$AAo?$AAr?$AAe?$AA?9?$AAn?$AAt?$AAu?$AAs?$AAe?$AAr?$AA?9?$AAw?$AAi?$AAn?$AAd?$AAo?$AAw?$AA?9@ 0000000140017c30     libucrt:winapi_thunks.obj
 0002:00001c80       ??_C@_1FG@HHGEKANL@?$AAa?$AAp?$AAi?$AA?9?$AAm?$AAs?$AA?9?$AAw?$AAi?$AAn?$AA?9?$AAs?$AAe?$AAc?$AAu?$AAr?$AAi?$AAt?$AAy?$AA?9?$AAs?$AAy?$AAs?$AAt?$AAe?$AAm?$AAf?$AAu?$AAn?$AAc?$AAt?$AAi@ 0000000140017c80     libucrt:winapi_thunks.obj
 0002:00001ce0       ??_C@_1EG@DBIOJECG@?$AAe?$AAx?$AAt?$AA?9?$AAm?$AAs?$AA?9?$AAw?$AAi?$AAn?$AA?9?$AAn?$AAt?$AAu?$AAs?$AAe?$AAr?$AA?9?$AAd?$AAi?$AAa?$AAl?$AAo?$AAg?$AAb?$AAo?$AAx?$AA?9?$AAl?$AA1?$AA?9?$AA1@ 0000000140017ce0     libucrt:winapi_thunks.obj
 0002:00001d30       ??_C@_1EO@FIHMJCLF@?$AAe?$AAx?$AAt?$AA?9?$AAm?$AAs?$AA?9?$AAw?$AAi?$AAn?$AA?9?$AAn?$AAt?$AAu?$AAs?$AAe?$AAr?$AA?9?$AAw?$AAi?$AAn?$AAd?$AAo?$AAw?$AAs?$AAt?$AAa?$AAt?$AAi?$AAo?$AAn?$AA?9@ 0000000140017d30     libucrt:winapi_thunks.obj
 0002:00001d80       ??_C@_1M@OAIMIKLP@?$AAn?$AAt?$AAd?$AAl?$AAl?$AA?$AA@ 0000000140017d80     libucrt:winapi_thunks.obj
 0002:00001d90       ??_C@_1EG@DPGNFKGC@?$AAa?$AAp?$AAi?$AA?9?$AAm?$AAs?$AA?9?$AAw?$AAi?$AAn?$AA?9?$AAa?$AAp?$AAp?$AAm?$AAo?$AAd?$AAe?$AAl?$AA?9?$AAr?$AAu?$AAn?$AAt?$AAi?$AAm?$AAe?$AA?9?$AAl?$AA1?$AA?9?$AA1@ 0000000140017d90     libucrt:winapi_thunks.obj
 0002:00001dd8       ??_C@_1O@BCCLBEOE@?$AAu?$AAs?$AAe?$AAr?$AA3?$AA2?$AA?$AA@ 0000000140017dd8     libucrt:winapi_thunks.obj
 0002:00001de8       ??_C@_1BA@PFFKHIOG@?$AAa?$AAp?$AAi?$AA?9?$AAm?$AAs?$AA?9?$AA?$AA@ 0000000140017de8     libucrt:winapi_thunks.obj
 0002:00001df8       ??_C@_1BA@IAIFMGEF@?$AAe?$AAx?$AAt?$AA?9?$AAm?$AAs?$AA?9?$AA?$AA@ 0000000140017df8     libucrt:winapi_thunks.obj
 0002:00001e10       ??_C@_0BA@IHGNDAEB@CompareStringEx?$AA@ 0000000140017e10     libucrt:winapi_thunks.obj
 0002:00001e50       ??_C@_0O@KKBNKAPF@LCMapStringEx?$AA@ 0000000140017e50     libucrt:winapi_thunks.obj
 0002:00001e68       ??_C@_0BB@HBDEELFH@LocaleNameToLCID?$AA@ 0000000140017e68     libucrt:winapi_thunks.obj
 0002:00001e80       ??_C@_0CF@OJOFEIGO@AppPolicyGetProcessTerminationMe@ 0000000140017e80     libucrt:winapi_thunks.obj
 0002:00001ea8       ??_C@_03OEIAHPBN@INF?$AA@  0000000140017ea8     libucrt:cvt.obj
 0002:00001eac       ??_C@_03OJHLLCGB@inf?$AA@  0000000140017eac     libucrt:cvt.obj
 0002:00001eb0       ??_C@_03LKNCIKJB@NAN?$AA@  0000000140017eb0     libucrt:cvt.obj
 0002:00001eb4       ??_C@_03LHCJEHON@nan?$AA@  0000000140017eb4     libucrt:cvt.obj
 0002:00001eb8       ??_C@_09OFJJIMPC@NAN?$CISNAN?$CJ?$AA@ 0000000140017eb8     libucrt:cvt.obj
 0002:00001ec8       ??_C@_09IPFBKMDL@nan?$CIsnan?$CJ?$AA@ 0000000140017ec8     libucrt:cvt.obj
 0002:00001ed8       ??_C@_08IKHNHAJ@NAN?$CIIND?$CJ?$AA@ 0000000140017ed8     libucrt:cvt.obj
 0002:00001ee8       ??_C@_08OFCDMILK@nan?$CIind?$CJ?$AA@ 0000000140017ee8     libucrt:cvt.obj
 0002:00001ef4       ??_C@_05KLBDPFGC@e?$CL000?$AA@ 0000000140017ef4     libucrt:cvt.obj
 0002:00001f00       __lc_time_c                0000000140017f00     libucrt:nlsdata.obj
 0002:000021c0       ??_C@_03KOEHGMDN@Sun?$AA@  00000001400181c0     libucrt:nlsdata.obj
 0002:000021c4       ??_C@_03PDAGKDH@Mon?$AA@   00000001400181c4     libucrt:nlsdata.obj
 0002:000021c8       ??_C@_03NAGEINEP@Tue?$AA@  00000001400181c8     libucrt:nlsdata.obj
 0002:000021cc       ??_C@_03MHOMLAJA@Wed?$AA@  00000001400181cc     libucrt:nlsdata.obj
 0002:000021d0       ??_C@_03IOFIKPDN@Thu?$AA@  00000001400181d0     libucrt:nlsdata.obj
 0002:000021d4       ??_C@_03IDIOELNC@Fri?$AA@  00000001400181d4     libucrt:nlsdata.obj
 0002:000021d8       ??_C@_03FEFJNEK@Sat?$AA@   00000001400181d8     libucrt:nlsdata.obj
 0002:000021dc       ??_C@_06OOPIFAJ@Sunday?$AA@ 00000001400181dc     libucrt:nlsdata.obj
 0002:000021e4       ??_C@_06JLEDEDGH@Monday?$AA@ 00000001400181e4     libucrt:nlsdata.obj
 0002:000021f0       ??_C@_07BAAGCFCM@Tuesday?$AA@ 00000001400181f0     libucrt:nlsdata.obj
 0002:000021f8       ??_C@_09DLIGFAKA@Wednesday?$AA@ 00000001400181f8     libucrt:nlsdata.obj
 0002:00002208       ??_C@_08HACCIKIA@Thursday?$AA@ 0000000140018208     libucrt:nlsdata.obj
 0002:00002214       ??_C@_06JECMNKMI@Friday?$AA@ 0000000140018214     libucrt:nlsdata.obj
 0002:00002220       ??_C@_08INBOOONO@Saturday?$AA@ 0000000140018220     libucrt:nlsdata.obj
 0002:0000222c       ??_C@_03JIHJHPIE@Jan?$AA@  000000014001822c     libucrt:nlsdata.obj
 0002:00002230       ??_C@_03HJBDCHOM@Feb?$AA@  0000000140018230     libucrt:nlsdata.obj
 0002:00002234       ??_C@_03ODNJBKGA@Mar?$AA@  0000000140018234     libucrt:nlsdata.obj
 0002:00002238       ??_C@_03LEOLGMJP@Apr?$AA@  0000000140018238     libucrt:nlsdata.obj
 0002:0000223c       ??_C@_03CNMDKL@May?$AA@    000000014001823c     libucrt:nlsdata.obj
 0002:00002240       ??_C@_03IDFGHECI@Jun?$AA@  0000000140018240     libucrt:nlsdata.obj
 0002:00002244       ??_C@_03LBGABGKK@Jul?$AA@  0000000140018244     libucrt:nlsdata.obj
 0002:00002248       ??_C@_03IFJFEIGA@Aug?$AA@  0000000140018248     libucrt:nlsdata.obj
 0002:0000224c       ??_C@_03GGCAPAJC@Sep?$AA@  000000014001824c     libucrt:nlsdata.obj
 0002:00002250       ??_C@_03BMAOKBAD@Oct?$AA@  0000000140018250     libucrt:nlsdata.obj
 0002:00002254       ??_C@_03JPJOFNIA@Nov?$AA@  0000000140018254     libucrt:nlsdata.obj
 0002:00002258       ??_C@_03MKABNOCG@Dec?$AA@  0000000140018258     libucrt:nlsdata.obj
 0002:00002260       ??_C@_07CGJPFGJA@January?$AA@ 0000000140018260     libucrt:nlsdata.obj
 0002:00002268       ??_C@_08GNJGEPFN@February?$AA@ 0000000140018268     libucrt:nlsdata.obj
 0002:00002274       ??_C@_05HPCKOFNC@March?$AA@ 0000000140018274     libucrt:nlsdata.obj
 0002:0000227c       ??_C@_05DMJDNLEJ@April?$AA@ 000000014001827c     libucrt:nlsdata.obj
 0002:00002284       ??_C@_04CNLMGBGM@June?$AA@ 0000000140018284     libucrt:nlsdata.obj
 0002:0000228c       ??_C@_04MIEPOIFP@July?$AA@ 000000014001828c     libucrt:nlsdata.obj
 0002:00002294       ??_C@_06LBBHFDDG@August?$AA@ 0000000140018294     libucrt:nlsdata.obj
 0002:000022a0       ??_C@_09BHHEALKD@September?$AA@ 00000001400182a0     libucrt:nlsdata.obj
 0002:000022b0       ??_C@_07JJNFCEND@October?$AA@ 00000001400182b0     libucrt:nlsdata.obj
 0002:000022b8       ??_C@_08HCHEGEOA@November?$AA@ 00000001400182b8     libucrt:nlsdata.obj
 0002:000022c8       ??_C@_08EDHMEBNP@December?$AA@ 00000001400182c8     libucrt:nlsdata.obj
 0002:000022d4       ??_C@_02DEDBPAFC@AM?$AA@   00000001400182d4     libucrt:nlsdata.obj
 0002:000022d8       ??_C@_02CJNFDJBF@PM?$AA@   00000001400182d8     libucrt:nlsdata.obj
 0002:000022e0       ??_C@_08BPBNCDIB@MM?1dd?1yy?$AA@ 00000001400182e0     libucrt:nlsdata.obj
 0002:000022f0       ??_C@_0BE@CKGJFCPC@dddd?0?5MMMM?5dd?0?5yyyy?$AA@ 00000001400182f0     libucrt:nlsdata.obj
 0002:00002308       ??_C@_08JCCMCCIL@HH?3mm?3ss?$AA@ 0000000140018308     libucrt:nlsdata.obj
 0002:00002318       ??_C@_17MBGCMIPB@?$AAS?$AAu?$AAn?$AA?$AA@ 0000000140018318     libucrt:nlsdata.obj
 0002:00002320       ??_C@_17KBOMKBF@?$AAM?$AAo?$AAn?$AA?$AA@ 0000000140018320     libucrt:nlsdata.obj
 0002:00002328       ??_C@_17BMKGEGOJ@?$AAT?$AAu?$AAe?$AA?$AA@ 0000000140018328     libucrt:nlsdata.obj
 0002:00002330       ??_C@_17CJEDCEPE@?$AAW?$AAe?$AAd?$AA?$AA@ 0000000140018330     libucrt:nlsdata.obj
 0002:00002338       ??_C@_17PDPHAADD@?$AAT?$AAh?$AAu?$AA?$AA@ 0000000140018338     libucrt:nlsdata.obj
 0002:00002340       ??_C@_17HFOLPPLP@?$AAF?$AAr?$AAi?$AA?$AA@ 0000000140018340     libucrt:nlsdata.obj
 0002:00002348       ??_C@_17GGIBDPIH@?$AAS?$AAa?$AAt?$AA?$AA@ 0000000140018348     libucrt:nlsdata.obj
 0002:00002350       ??_C@_1O@IHNHDHPB@?$AAS?$AAu?$AAn?$AAd?$AAa?$AAy?$AA?$AA@ 0000000140018350     libucrt:nlsdata.obj
 0002:00002360       ??_C@_1O@MMNBFLIA@?$AAM?$AAo?$AAn?$AAd?$AAa?$AAy?$AA?$AA@ 0000000140018360     libucrt:nlsdata.obj
 0002:00002370       ??_C@_1BA@ENFBFFEK@?$AAT?$AAu?$AAe?$AAs?$AAd?$AAa?$AAy?$AA?$AA@ 0000000140018370     libucrt:nlsdata.obj
 0002:00002380       ??_C@_1BE@EBOGMDOH@?$AAW?$AAe?$AAd?$AAn?$AAe?$AAs?$AAd?$AAa?$AAy?$AA?$AA@ 0000000140018380     libucrt:nlsdata.obj
 0002:00002398       ??_C@_1BC@HHMNLIHE@?$AAT?$AAh?$AAu?$AAr?$AAs?$AAd?$AAa?$AAy?$AA?$AA@ 0000000140018398     libucrt:nlsdata.obj
 0002:000023b0       ??_C@_1O@PDICJHAG@?$AAF?$AAr?$AAi?$AAd?$AAa?$AAy?$AA?$AA@ 00000001400183b0     libucrt:nlsdata.obj
 0002:000023c0       ??_C@_1BC@ENMNNPAJ@?$AAS?$AAa?$AAt?$AAu?$AAr?$AAd?$AAa?$AAy?$AA?$AA@ 00000001400183c0     libucrt:nlsdata.obj
 0002:000023d8       ??_C@_17DKNBKCHM@?$AAJ?$AAa?$AAn?$AA?$AA@ 00000001400183d8     libucrt:nlsdata.obj
 0002:000023e0       ??_C@_17LMDJEKJN@?$AAF?$AAe?$AAb?$AA?$AA@ 00000001400183e0     libucrt:nlsdata.obj
 0002:000023e8       ??_C@_17CKNLEDEC@?$AAM?$AAa?$AAr?$AA?$AA@ 00000001400183e8     libucrt:nlsdata.obj
 0002:000023f0       ??_C@_17LFPOIHDD@?$AAA?$AAp?$AAr?$AA?$AA@ 00000001400183f0     libucrt:nlsdata.obj
 0002:000023f8       ??_C@_17PNNKMEED@?$AAM?$AAa?$AAy?$AA?$AA@ 00000001400183f8     libucrt:nlsdata.obj
 0002:00002400       ??_C@_17KCJGOCPB@?$AAJ?$AAu?$AAn?$AA?$AA@ 0000000140018400     libucrt:nlsdata.obj
 0002:00002408       ??_C@_17IJPCKHK@?$AAJ?$AAu?$AAl?$AA?$AA@ 0000000140018408     libucrt:nlsdata.obj
 0002:00002410       ??_C@_17ICPELBCN@?$AAA?$AAu?$AAg?$AA?$AA@ 0000000140018410     libucrt:nlsdata.obj
 0002:00002418       ??_C@_17HCHCOKMG@?$AAS?$AAe?$AAp?$AA?$AA@ 0000000140018418     libucrt:nlsdata.obj
 0002:00002420       ??_C@_17FNLKOI@?$AAO?$AAc?$AAt?$AA?$AA@ 0000000140018420     libucrt:nlsdata.obj
 0002:00002428       ??_C@_17BBDMLCIG@?$AAN?$AAo?$AAv?$AA?$AA@ 0000000140018428     libucrt:nlsdata.obj
 0002:00002430       ??_C@_17EGKACKIF@?$AAD?$AAe?$AAc?$AA?$AA@ 0000000140018430     libucrt:nlsdata.obj
 0002:00002438       ??_C@_1BA@EFMEIEBA@?$AAJ?$AAa?$AAn?$AAu?$AAa?$AAr?$AAy?$AA?$AA@ 0000000140018438     libucrt:nlsdata.obj
 0002:00002448       ??_C@_1BC@JGDDFFAM@?$AAF?$AAe?$AAb?$AAr?$AAu?$AAa?$AAr?$AAy?$AA?$AA@ 0000000140018448     libucrt:nlsdata.obj
 0002:00002460       ??_C@_1M@IKEENEDF@?$AAM?$AAa?$AAr?$AAc?$AAh?$AA?$AA@ 0000000140018460     libucrt:nlsdata.obj
 0002:00002470       ??_C@_1M@GJNLMHFD@?$AAA?$AAp?$AAr?$AAi?$AAl?$AA?$AA@ 0000000140018470     libucrt:nlsdata.obj
 0002:00002480       ??_C@_19EPFLPGAP@?$AAJ?$AAu?$AAn?$AAe?$AA?$AA@ 0000000140018480     libucrt:nlsdata.obj
 0002:00002490       ??_C@_19BIFMLPCD@?$AAJ?$AAu?$AAl?$AAy?$AA?$AA@ 0000000140018490     libucrt:nlsdata.obj
 0002:000024a0       ??_C@_1O@PAHLKOAC@?$AAA?$AAu?$AAg?$AAu?$AAs?$AAt?$AA?$AA@ 00000001400184a0     libucrt:nlsdata.obj
 0002:000024b0       ??_C@_1BE@DKAAMBJL@?$AAS?$AAe?$AAp?$AAt?$AAe?$AAm?$AAb?$AAe?$AAr?$AA?$AA@ 00000001400184b0     libucrt:nlsdata.obj
 0002:000024c8       ??_C@_1BA@EPANDLNG@?$AAO?$AAc?$AAt?$AAo?$AAb?$AAe?$AAr?$AA?$AA@ 00000001400184c8     libucrt:nlsdata.obj
 0002:000024d8       ??_C@_1BC@BGLIFPF@?$AAN?$AAo?$AAv?$AAe?$AAm?$AAb?$AAe?$AAr?$AA?$AA@ 00000001400184d8     libucrt:nlsdata.obj
 0002:000024f0       ??_C@_1BC@FEMKIFH@?$AAD?$AAe?$AAc?$AAe?$AAm?$AAb?$AAe?$AAr?$AA?$AA@ 00000001400184f0     libucrt:nlsdata.obj
 0002:00002504       ??_C@_15ODEHAHHF@?$AAA?$AAM?$AA?$AA@ 0000000140018504     libucrt:nlsdata.obj
 0002:0000250c       ??_C@_15CLMNNGEL@?$AAP?$AAM?$AA?$AA@ 000000014001850c     libucrt:nlsdata.obj
 0002:00002518       ??_C@_1BC@IEBCMHCM@?$AAM?$AAM?$AA?1?$AAd?$AAd?$AA?1?$AAy?$AAy?$AA?$AA@ 0000000140018518     libucrt:nlsdata.obj
 0002:00002530       ??_C@_1CI@KNAKOEBC@?$AAd?$AAd?$AAd?$AAd?$AA?0?$AA?5?$AAM?$AAM?$AAM?$AAM?$AA?5?$AAd?$AAd?$AA?0?$AA?5?$AAy?$AAy?$AAy?$AAy?$AA?$AA@ 0000000140018530     libucrt:nlsdata.obj
 0002:00002558       ??_C@_1BC@GDGBMEMK@?$AAH?$AAH?$AA?3?$AAm?$AAm?$AA?3?$AAs?$AAs?$AA?$AA@ 0000000140018558     libucrt:nlsdata.obj
 0002:00002570       ??_C@_1M@BMHNFIME@?$AAe?$AAn?$AA?9?$AAU?$AAS?$AA?$AA@ 0000000140018570     libucrt:nlsdata.obj
 0002:000025a0       ??_C@_1M@HPNHIDJI@?$AAj?$AAa?$AA?9?$AAJ?$AAP?$AA?$AA@ 00000001400185a0     libucrt:mbctype.obj
 0002:000025b0       ??_C@_1M@BIBDDEMK@?$AAz?$AAh?$AA?9?$AAC?$AAN?$AA?$AA@ 00000001400185b0     libucrt:mbctype.obj
 0002:000025c0       ??_C@_1M@JLOOOEGK@?$AAk?$AAo?$AA?9?$AAK?$AAR?$AA?$AA@ 00000001400185c0     libucrt:mbctype.obj
 0002:000025d0       ??_C@_1M@CLNBBOPM@?$AAz?$AAh?$AA?9?$AAT?$AAW?$AA?$AA@ 00000001400185d0     libucrt:mbctype.obj
 0002:000025e0       __newctype                 00000001400185e0     libucrt:ctype.obj
 0002:000028e0       __newclmap                 00000001400188e0     libucrt:ctype.obj
 0002:00002a60       __newcumap                 0000000140018a60     libucrt:ctype.obj
 0002:00002be0       ??_C@_15PJPFLCCM@?$AAu?$AAk?$AA?$AA@ 0000000140018be0     libucrt:get_qualified_locale.obj
 0002:00002be8       ??_C@_1M@BJNKEDC@?$AAc?$AAa?$AA?9?$AAE?$AAS?$AA?$AA@ 0000000140018be8     libucrt:lcidtoname_downlevel.obj
 0002:00002bf8       ??_C@_1M@IJJHFJHA@?$AAc?$AAs?$AA?9?$AAC?$AAZ?$AA?$AA@ 0000000140018bf8     libucrt:lcidtoname_downlevel.obj
 0002:00002c08       ??_C@_1M@CLPEOBGI@?$AAd?$AAa?$AA?9?$AAD?$AAK?$AA?$AA@ 0000000140018c08     libucrt:lcidtoname_downlevel.obj
 0002:00002c18       ??_C@_1M@MCMADGCB@?$AAd?$AAe?$AA?9?$AAD?$AAE?$AA?$AA@ 0000000140018c18     libucrt:lcidtoname_downlevel.obj
 0002:00002c28       ??_C@_1M@OOCKEMAM@?$AAe?$AAl?$AA?9?$AAG?$AAR?$AA?$AA@ 0000000140018c28     libucrt:lcidtoname_downlevel.obj
 0002:00002c38       ??_C@_1M@DDNJFGID@?$AAf?$AAi?$AA?9?$AAF?$AAI?$AA?$AA@ 0000000140018c38     libucrt:lcidtoname_downlevel.obj
 0002:00002c48       ??_C@_1M@GLIPPMAC@?$AAf?$AAr?$AA?9?$AAF?$AAR?$AA?$AA@ 0000000140018c48     libucrt:lcidtoname_downlevel.obj
 0002:00002c58       ??_C@_1M@GFMCHPE@?$AAh?$AAe?$AA?9?$AAI?$AAL?$AA?$AA@ 0000000140018c58     libucrt:lcidtoname_downlevel.obj
 0002:00002c68       ??_C@_1M@MHLPGNKM@?$AAh?$AAu?$AA?9?$AAH?$AAU?$AA?$AA@ 0000000140018c68     libucrt:lcidtoname_downlevel.obj
 0002:00002c78       ??_C@_1M@LPDDNNPN@?$AAi?$AAs?$AA?9?$AAI?$AAS?$AA?$AA@ 0000000140018c78     libucrt:lcidtoname_downlevel.obj
 0002:00002c88       ??_C@_1M@MADIPODN@?$AAi?$AAt?$AA?9?$AAI?$AAT?$AA?$AA@ 0000000140018c88     libucrt:lcidtoname_downlevel.obj
 0002:00002c98       ??_C@_1M@IHBJJGG@?$AAn?$AAl?$AA?9?$AAN?$AAL?$AA?$AA@ 0000000140018c98     libucrt:lcidtoname_downlevel.obj
 0002:00002ca8       ??_C@_1M@EANAGDL@?$AAn?$AAb?$AA?9?$AAN?$AAO?$AA?$AA@ 0000000140018ca8     libucrt:lcidtoname_downlevel.obj
 0002:00002cb8       ??_C@_1M@NEIEMEGP@?$AAp?$AAl?$AA?9?$AAP?$AAL?$AA?$AA@ 0000000140018cb8     libucrt:lcidtoname_downlevel.obj
 0002:00002cc8       ??_C@_1M@BOCFIGEP@?$AAp?$AAt?$AA?9?$AAB?$AAR?$AA?$AA@ 0000000140018cc8     libucrt:lcidtoname_downlevel.obj
 0002:00002cd8       ??_C@_1M@IMPFOPBG@?$AAr?$AAo?$AA?9?$AAR?$AAO?$AA?$AA@ 0000000140018cd8     libucrt:lcidtoname_downlevel.obj
 0002:00002ce8       ??_C@_1M@IDNNEJMM@?$AAr?$AAu?$AA?9?$AAR?$AAU?$AA?$AA@ 0000000140018ce8     libucrt:lcidtoname_downlevel.obj
 0002:00002cf8       ??_C@_1M@LILEEOGM@?$AAh?$AAr?$AA?9?$AAH?$AAR?$AA?$AA@ 0000000140018cf8     libucrt:lcidtoname_downlevel.obj
 0002:00002d08       ??_C@_1M@FKIFEHPB@?$AAs?$AAk?$AA?9?$AAS?$AAK?$AA?$AA@ 0000000140018d08     libucrt:lcidtoname_downlevel.obj
 0002:00002d18       ??_C@_1M@LJMAMNPJ@?$AAs?$AAq?$AA?9?$AAA?$AAL?$AA?$AA@ 0000000140018d18     libucrt:lcidtoname_downlevel.obj
 0002:00002d28       ??_C@_1M@GIAKDKJK@?$AAs?$AAv?$AA?9?$AAS?$AAE?$AA?$AA@ 0000000140018d28     libucrt:lcidtoname_downlevel.obj
 0002:00002d38       ??_C@_1M@MKJKIKCL@?$AAt?$AAh?$AA?9?$AAT?$AAH?$AA?$AA@ 0000000140018d38     libucrt:lcidtoname_downlevel.obj
 0002:00002d48       ??_C@_1M@MFLCCMPB@?$AAt?$AAr?$AA?9?$AAT?$AAR?$AA?$AA@ 0000000140018d48     libucrt:lcidtoname_downlevel.obj
 0002:00002d58       ??_C@_1M@OIJHDKJN@?$AAu?$AAr?$AA?9?$AAP?$AAK?$AA?$AA@ 0000000140018d58     libucrt:lcidtoname_downlevel.obj
 0002:00002d68       ??_C@_1M@LHIPCIEK@?$AAi?$AAd?$AA?9?$AAI?$AAD?$AA?$AA@ 0000000140018d68     libucrt:lcidtoname_downlevel.obj
 0002:00002d78       ??_C@_1M@MFMOBGI@?$AAu?$AAk?$AA?9?$AAU?$AAA?$AA?$AA@ 0000000140018d78     libucrt:lcidtoname_downlevel.obj
 0002:00002d88       ??_C@_1M@OBGLJIPL@?$AAb?$AAe?$AA?9?$AAB?$AAY?$AA?$AA@ 0000000140018d88     libucrt:lcidtoname_downlevel.obj
 0002:00002d98       ??_C@_1M@BCFAJEAD@?$AAs?$AAl?$AA?9?$AAS?$AAI?$AA?$AA@ 0000000140018d98     libucrt:lcidtoname_downlevel.obj
 0002:00002da8       ??_C@_1M@FKFFEDDN@?$AAe?$AAt?$AA?9?$AAE?$AAE?$AA?$AA@ 0000000140018da8     libucrt:lcidtoname_downlevel.obj
 0002:00002db8       ??_C@_1M@KGKKAACI@?$AAl?$AAv?$AA?9?$AAL?$AAV?$AA?$AA@ 0000000140018db8     libucrt:lcidtoname_downlevel.obj
 0002:00002dc8       ??_C@_1M@IFGBIJO@?$AAl?$AAt?$AA?9?$AAL?$AAT?$AA?$AA@ 0000000140018dc8     libucrt:lcidtoname_downlevel.obj
 0002:00002dd8       ??_C@_1M@FGEAHEDM@?$AAf?$AAa?$AA?9?$AAI?$AAR?$AA?$AA@ 0000000140018dd8     libucrt:lcidtoname_downlevel.obj
 0002:00002de8       ??_C@_1M@KBMAIBFN@?$AAv?$AAi?$AA?9?$AAV?$AAN?$AA?$AA@ 0000000140018de8     libucrt:lcidtoname_downlevel.obj
 0002:00002df8       ??_C@_1M@GPCBKDJK@?$AAh?$AAy?$AA?9?$AAA?$AAM?$AA?$AA@ 0000000140018df8     libucrt:lcidtoname_downlevel.obj
 0002:00002e08       ??_C@_1BG@BECMDDJB@?$AAa?$AAz?$AA?9?$AAA?$AAZ?$AA?9?$AAL?$AAa?$AAt?$AAn?$AA?$AA@ 0000000140018e08     libucrt:lcidtoname_downlevel.obj
 0002:00002e20       ??_C@_1M@MAOFCAEA@?$AAe?$AAu?$AA?9?$AAE?$AAS?$AA?$AA@ 0000000140018e20     libucrt:lcidtoname_downlevel.obj
 0002:00002e30       ??_C@_1M@IGHABKPI@?$AAm?$AAk?$AA?9?$AAM?$AAK?$AA?$AA@ 0000000140018e30     libucrt:lcidtoname_downlevel.obj
 0002:00002e40       ??_C@_1M@IAIGNEJG@?$AAt?$AAn?$AA?9?$AAZ?$AAA?$AA?$AA@ 0000000140018e40     libucrt:lcidtoname_downlevel.obj
 0002:00002e50       ??_C@_1M@IIJCOJFA@?$AAx?$AAh?$AA?9?$AAZ?$AAA?$AA?$AA@ 0000000140018e50     libucrt:lcidtoname_downlevel.obj
 0002:00002e60       ??_C@_1M@LGPJHNJH@?$AAz?$AAu?$AA?9?$AAZ?$AAA?$AA?$AA@ 0000000140018e60     libucrt:lcidtoname_downlevel.obj
 0002:00002e70       ??_C@_1M@HOKAOIO@?$AAa?$AAf?$AA?9?$AAZ?$AAA?$AA?$AA@ 0000000140018e70     libucrt:lcidtoname_downlevel.obj
 0002:00002e80       ??_C@_1M@DPCLHLIE@?$AAk?$AAa?$AA?9?$AAG?$AAE?$AA?$AA@ 0000000140018e80     libucrt:lcidtoname_downlevel.obj
 0002:00002e90       ??_C@_1M@BLKMHJBI@?$AAf?$AAo?$AA?9?$AAF?$AAO?$AA?$AA@ 0000000140018e90     libucrt:lcidtoname_downlevel.obj
 0002:00002ea0       ??_C@_1M@LGGJAPPB@?$AAh?$AAi?$AA?9?$AAI?$AAN?$AA?$AA@ 0000000140018ea0     libucrt:lcidtoname_downlevel.obj
 0002:00002eb0       ??_C@_1M@FIKPIHFE@?$AAm?$AAt?$AA?9?$AAM?$AAT?$AA?$AA@ 0000000140018eb0     libucrt:lcidtoname_downlevel.obj
 0002:00002ec0       ??_C@_1M@HEGGPBFA@?$AAs?$AAe?$AA?9?$AAN?$AAO?$AA?$AA@ 0000000140018ec0     libucrt:lcidtoname_downlevel.obj
 0002:00002ed0       ??_C@_1M@EIBJEEPA@?$AAm?$AAs?$AA?9?$AAM?$AAY?$AA?$AA@ 0000000140018ed0     libucrt:lcidtoname_downlevel.obj
 0002:00002ee0       ??_C@_1M@FHLBGMPP@?$AAk?$AAk?$AA?9?$AAK?$AAZ?$AA?$AA@ 0000000140018ee0     libucrt:lcidtoname_downlevel.obj
 0002:00002ef0       ??_C@_1M@NGJJLCGI@?$AAk?$AAy?$AA?9?$AAK?$AAG?$AA?$AA@ 0000000140018ef0     libucrt:lcidtoname_downlevel.obj
 0002:00002f00       ??_C@_1M@GIENNBFC@?$AAs?$AAw?$AA?9?$AAK?$AAE?$AA?$AA@ 0000000140018f00     libucrt:lcidtoname_downlevel.obj
 0002:00002f10       ??_C@_1BG@NDGMJIMJ@?$AAu?$AAz?$AA?9?$AAU?$AAZ?$AA?9?$AAL?$AAa?$AAt?$AAn?$AA?$AA@ 0000000140018f10     libucrt:lcidtoname_downlevel.obj
 0002:00002f28       ??_C@_1M@IDCCIHBC@?$AAt?$AAt?$AA?9?$AAR?$AAU?$AA?$AA@ 0000000140018f28     libucrt:lcidtoname_downlevel.obj
 0002:00002f38       ??_C@_1M@LOICPMOJ@?$AAb?$AAn?$AA?9?$AAI?$AAN?$AA?$AA@ 0000000140018f38     libucrt:lcidtoname_downlevel.obj
 0002:00002f48       ??_C@_1M@KPKKNEAH@?$AAp?$AAa?$AA?9?$AAI?$AAN?$AA?$AA@ 0000000140018f48     libucrt:lcidtoname_downlevel.obj
 0002:00002f58       ??_C@_1M@PJGPPBOG@?$AAg?$AAu?$AA?9?$AAI?$AAN?$AA?$AA@ 0000000140018f58     libucrt:lcidtoname_downlevel.obj
 0002:00002f68       ??_C@_1M@KMKMOPHI@?$AAt?$AAa?$AA?9?$AAI?$AAN?$AA?$AA@ 0000000140018f68     libucrt:lcidtoname_downlevel.obj
 0002:00002f78       ??_C@_1M@KFEHEPAC@?$AAt?$AAe?$AA?9?$AAI?$AAN?$AA?$AA@ 0000000140018f78     libucrt:lcidtoname_downlevel.obj
 0002:00002f88       ??_C@_1M@CDCLMGHI@?$AAk?$AAn?$AA?9?$AAI?$AAN?$AA?$AA@ 0000000140018f88     libucrt:lcidtoname_downlevel.obj
 0002:00002f98       ??_C@_1M@MIODLDKF@?$AAm?$AAl?$AA?9?$AAI?$AAN?$AA?$AA@ 0000000140018f98     libucrt:lcidtoname_downlevel.obj
 0002:00002fa8       ??_C@_1M@PBIEACPO@?$AAm?$AAr?$AA?9?$AAI?$AAN?$AA?$AA@ 0000000140018fa8     libucrt:lcidtoname_downlevel.obj
 0002:00002fb8       ??_C@_1M@NIDEAGPH@?$AAs?$AAa?$AA?9?$AAI?$AAN?$AA?$AA@ 0000000140018fb8     libucrt:lcidtoname_downlevel.obj
 0002:00002fc8       ??_C@_1M@FHIHCBIO@?$AAm?$AAn?$AA?9?$AAM?$AAN?$AA?$AA@ 0000000140018fc8     libucrt:lcidtoname_downlevel.obj
 0002:00002fd8       ??_C@_1M@JAIJPENP@?$AAc?$AAy?$AA?9?$AAG?$AAB?$AA?$AA@ 0000000140018fd8     libucrt:lcidtoname_downlevel.obj
 0002:00002fe8       ??_C@_1M@PHGFBEPN@?$AAg?$AAl?$AA?9?$AAE?$AAS?$AA?$AA@ 0000000140018fe8     libucrt:lcidtoname_downlevel.obj
 0002:00002ff8       ??_C@_1O@KPIPDNCP@?$AAk?$AAo?$AAk?$AA?9?$AAI?$AAN?$AA?$AA@ 0000000140018ff8     libucrt:lcidtoname_downlevel.obj
 0002:00003008       ??_C@_1O@KNHJLDJA@?$AAs?$AAy?$AAr?$AA?9?$AAS?$AAY?$AA?$AA@ 0000000140019008     libucrt:lcidtoname_downlevel.obj
 0002:00003018       ??_C@_1O@MKEKBLAH@?$AAd?$AAi?$AAv?$AA?9?$AAM?$AAV?$AA?$AA@ 0000000140019018     libucrt:lcidtoname_downlevel.obj
 0002:00003028       ??_C@_1O@OHDCKDDF@?$AAq?$AAu?$AAz?$AA?9?$AAB?$AAO?$AA?$AA@ 0000000140019028     libucrt:lcidtoname_downlevel.obj
 0002:00003038       ??_C@_1M@LEPJNLFD@?$AAn?$AAs?$AA?9?$AAZ?$AAA?$AA?$AA@ 0000000140019038     libucrt:lcidtoname_downlevel.obj
 0002:00003048       ??_C@_1M@OMLEIIJB@?$AAm?$AAi?$AA?9?$AAN?$AAZ?$AA?$AA@ 0000000140019048     libucrt:lcidtoname_downlevel.obj
 0002:00003058       ??_C@_1M@PMPEAILG@?$AAa?$AAr?$AA?9?$AAI?$AAQ?$AA?$AA@ 0000000140019058     libucrt:lcidtoname_downlevel.obj
 0002:00003068       ??_C@_1M@CNKPNOEE@?$AAd?$AAe?$AA?9?$AAC?$AAH?$AA?$AA@ 0000000140019068     libucrt:lcidtoname_downlevel.obj
 0002:00003078       ??_C@_1M@LKMGMLKO@?$AAe?$AAn?$AA?9?$AAG?$AAB?$AA?$AA@ 0000000140019078     libucrt:lcidtoname_downlevel.obj
 0002:00003088       ??_C@_1M@PGKJFFGL@?$AAe?$AAs?$AA?9?$AAM?$AAX?$AA?$AA@ 0000000140019088     libucrt:lcidtoname_downlevel.obj
 0002:00003098       ??_C@_1M@DNNANBDC@?$AAf?$AAr?$AA?9?$AAB?$AAE?$AA?$AA@ 0000000140019098     libucrt:lcidtoname_downlevel.obj
 0002:000030a8       ??_C@_1M@HLGMDFHM@?$AAi?$AAt?$AA?9?$AAC?$AAH?$AA?$AA@ 00000001400190a8     libucrt:lcidtoname_downlevel.obj
 0002:000030b8       ??_C@_1M@CLLBGJH@?$AAn?$AAl?$AA?9?$AAB?$AAE?$AA?$AA@ 00000001400190b8     libucrt:lcidtoname_downlevel.obj
 0002:000030c8       ??_C@_1M@BODBOGLF@?$AAn?$AAn?$AA?9?$AAN?$AAO?$AA?$AA@ 00000001400190c8     libucrt:lcidtoname_downlevel.obj
 0002:000030d8       ??_C@_1M@HFFAHKAD@?$AAp?$AAt?$AA?9?$AAP?$AAT?$AA?$AA@ 00000001400190d8     libucrt:lcidtoname_downlevel.obj
 0002:000030e8       ??_C@_1BG@LNOAKHIE@?$AAs?$AAr?$AA?9?$AAS?$AAP?$AA?9?$AAL?$AAa?$AAt?$AAn?$AA?$AA@ 00000001400190e8     libucrt:lcidtoname_downlevel.obj
 0002:00003100       ??_C@_1M@HBMHBGAK@?$AAs?$AAv?$AA?9?$AAF?$AAI?$AA?$AA@ 0000000140019100     libucrt:lcidtoname_downlevel.obj
 0002:00003110       ??_C@_1BG@DGCJGJBE@?$AAa?$AAz?$AA?9?$AAA?$AAZ?$AA?9?$AAC?$AAy?$AAr?$AAl?$AA?$AA@ 0000000140019110     libucrt:lcidtoname_downlevel.obj
 0002:00003128       ??_C@_1M@KEJDAAHB@?$AAs?$AAe?$AA?9?$AAS?$AAE?$AA?$AA@ 0000000140019128     libucrt:lcidtoname_downlevel.obj
 0002:00003138       ??_C@_1M@HEIBJJAD@?$AAm?$AAs?$AA?9?$AAB?$AAN?$AA?$AA@ 0000000140019138     libucrt:lcidtoname_downlevel.obj
 0002:00003148       ??_C@_1BG@PBGJMCEM@?$AAu?$AAz?$AA?9?$AAU?$AAZ?$AA?9?$AAC?$AAy?$AAr?$AAl?$AA?$AA@ 0000000140019148     libucrt:lcidtoname_downlevel.obj
 0002:00003160       ??_C@_1O@LAOBCMDF@?$AAq?$AAu?$AAz?$AA?9?$AAE?$AAC?$AA?$AA@ 0000000140019160     libucrt:lcidtoname_downlevel.obj
 0002:00003170       ??_C@_1M@POEEMAIO@?$AAa?$AAr?$AA?9?$AAE?$AAG?$AA?$AA@ 0000000140019170     libucrt:lcidtoname_downlevel.obj
 0002:00003180       ??_C@_1M@EFAKDEDL@?$AAz?$AAh?$AA?9?$AAH?$AAK?$AA?$AA@ 0000000140019180     libucrt:lcidtoname_downlevel.obj
 0002:00003190       ??_C@_1M@HKKIJHGI@?$AAd?$AAe?$AA?9?$AAA?$AAT?$AA?$AA@ 0000000140019190     libucrt:lcidtoname_downlevel.obj
 0002:000031a0       ??_C@_1M@KBFBEHJF@?$AAe?$AAn?$AA?9?$AAA?$AAU?$AA?$AA@ 00000001400191a0     libucrt:lcidtoname_downlevel.obj
 0002:000031b0       ??_C@_1M@MNPLFAAH@?$AAe?$AAs?$AA?9?$AAE?$AAS?$AA?$AA@ 00000001400191b0     libucrt:lcidtoname_downlevel.obj
 0002:000031c0       ??_C@_1M@HJOOJFMA@?$AAf?$AAr?$AA?9?$AAC?$AAA?$AA?$AA@ 00000001400191c0     libucrt:lcidtoname_downlevel.obj
 0002:000031d0       ??_C@_1BG@JPOFPNAB@?$AAs?$AAr?$AA?9?$AAS?$AAP?$AA?9?$AAC?$AAy?$AAr?$AAl?$AA?$AA@ 00000001400191d0     libucrt:lcidtoname_downlevel.obj
 0002:000031e8       ??_C@_1M@LNFOCMOB@?$AAs?$AAe?$AA?9?$AAF?$AAI?$AA?$AA@ 00000001400191e8     libucrt:lcidtoname_downlevel.obj
 0002:000031f8       ??_C@_1O@MGJBOAMB@?$AAq?$AAu?$AAz?$AA?9?$AAP?$AAE?$AA?$AA@ 00000001400191f8     libucrt:lcidtoname_downlevel.obj
 0002:00003208       ??_C@_1M@GJINLBOK@?$AAa?$AAr?$AA?9?$AAL?$AAY?$AA?$AA@ 0000000140019208     libucrt:lcidtoname_downlevel.obj
 0002:00003218       ??_C@_1M@GGMNHJNL@?$AAz?$AAh?$AA?9?$AAS?$AAG?$AA?$AA@ 0000000140019218     libucrt:lcidtoname_downlevel.obj
 0002:00003228       ??_C@_1M@HOIKODND@?$AAd?$AAe?$AA?9?$AAL?$AAU?$AA?$AA@ 0000000140019228     libucrt:lcidtoname_downlevel.obj
 0002:00003238       ??_C@_1M@DDOCCGFG@?$AAe?$AAn?$AA?9?$AAC?$AAA?$AA?$AA@ 0000000140019238     libucrt:lcidtoname_downlevel.obj
 0002:00003248       ??_C@_1M@BNOEMJLF@?$AAe?$AAs?$AA?9?$AAG?$AAT?$AA?$AA@ 0000000140019248     libucrt:lcidtoname_downlevel.obj
 0002:00003258       ??_C@_1M@EOGNKEK@?$AAf?$AAr?$AA?9?$AAC?$AAH?$AA?$AA@ 0000000140019258     libucrt:lcidtoname_downlevel.obj
 0002:00003268       ??_C@_1M@FLIDJFHL@?$AAh?$AAr?$AA?9?$AAB?$AAA?$AA?$AA@ 0000000140019268     libucrt:lcidtoname_downlevel.obj
 0002:00003278       ??_C@_1O@FMCELNAJ@?$AAs?$AAm?$AAj?$AA?9?$AAN?$AAO?$AA?$AA@ 0000000140019278     libucrt:lcidtoname_downlevel.obj
 0002:00003288       ??_C@_1M@JHGLJMGJ@?$AAa?$AAr?$AA?9?$AAD?$AAZ?$AA?$AA@ 0000000140019288     libucrt:lcidtoname_downlevel.obj
 0002:00003298       ??_C@_1M@JKKFDCNP@?$AAz?$AAh?$AA?9?$AAM?$AAO?$AA?$AA@ 0000000140019298     libucrt:lcidtoname_downlevel.obj
 0002:000032a8       ??_C@_1M@GEEFALPE@?$AAd?$AAe?$AA?9?$AAL?$AAI?$AA?$AA@ 00000001400192a8     libucrt:lcidtoname_downlevel.obj
 0002:000032b8       ??_C@_1M@IGEOFBG@?$AAe?$AAn?$AA?9?$AAN?$AAZ?$AA?$AA@ 00000001400192b8     libucrt:lcidtoname_downlevel.obj
 0002:000032c8       ??_C@_1M@KDBONEHP@?$AAe?$AAs?$AA?9?$AAC?$AAR?$AA?$AA@ 00000001400192c8     libucrt:lcidtoname_downlevel.obj
 0002:000032d8       ??_C@_1M@FHMDOHNN@?$AAf?$AAr?$AA?9?$AAL?$AAU?$AA?$AA@ 00000001400192d8     libucrt:lcidtoname_downlevel.obj
 0002:000032e8       ??_C@_1BG@NFKKMAFG@?$AAb?$AAs?$AA?9?$AAB?$AAA?$AA?9?$AAL?$AAa?$AAt?$AAn?$AA?$AA@ 00000001400192e8     libucrt:lcidtoname_downlevel.obj
 0002:00003300       ??_C@_1O@IMNBEMCI@?$AAs?$AAm?$AAj?$AA?9?$AAS?$AAE?$AA?$AA@ 0000000140019300     libucrt:lcidtoname_downlevel.obj
 0002:00003310       ??_C@_1M@DHHMBNDP@?$AAa?$AAr?$AA?9?$AAM?$AAA?$AA?$AA@ 0000000140019310     libucrt:lcidtoname_downlevel.obj
 0002:00003320       ??_C@_1M@BNBLJCGH@?$AAe?$AAn?$AA?9?$AAI?$AAE?$AA?$AA@ 0000000140019320     libucrt:lcidtoname_downlevel.obj
 0002:00003330       ??_C@_1M@GEPAFMDL@?$AAe?$AAs?$AA?9?$AAP?$AAA?$AA?$AA@ 0000000140019330     libucrt:lcidtoname_downlevel.obj
 0002:00003340       ??_C@_1M@OJONDMDL@?$AAf?$AAr?$AA?9?$AAM?$AAC?$AA?$AA@ 0000000140019340     libucrt:lcidtoname_downlevel.obj
 0002:00003350       ??_C@_1BG@OBCNFJB@?$AAs?$AAr?$AA?9?$AAB?$AAA?$AA?9?$AAL?$AAa?$AAt?$AAn?$AA?$AA@ 0000000140019350     libucrt:lcidtoname_downlevel.obj
 0002:00003368       ??_C@_1O@KEMEEGPO@?$AAs?$AAm?$AAa?$AA?9?$AAN?$AAO?$AA?$AA@ 0000000140019368     libucrt:lcidtoname_downlevel.obj
 0002:00003378       ??_C@_1M@ELMGFODK@?$AAa?$AAr?$AA?9?$AAT?$AAN?$AA?$AA@ 0000000140019378     libucrt:lcidtoname_downlevel.obj
 0002:00003388       ??_C@_1M@BHDLHFAF@?$AAe?$AAn?$AA?9?$AAZ?$AAA?$AA?$AA@ 0000000140019388     libucrt:lcidtoname_downlevel.obj
 0002:00003398       ??_C@_1M@BMGIGLIF@?$AAe?$AAs?$AA?9?$AAD?$AAO?$AA?$AA@ 0000000140019398     libucrt:lcidtoname_downlevel.obj
 0002:000033a8       ??_C@_1BG@CMBHIPBE@?$AAs?$AAr?$AA?9?$AAB?$AAA?$AA?9?$AAC?$AAy?$AAr?$AAl?$AA?$AA@ 00000001400193a8     libucrt:lcidtoname_downlevel.obj
 0002:000033c0       ??_C@_1O@HEDBLHNP@?$AAs?$AAm?$AAa?$AA?9?$AAS?$AAE?$AA?$AA@ 00000001400193c0     libucrt:lcidtoname_downlevel.obj
 0002:000033d0       ??_C@_1M@DAGCADIM@?$AAa?$AAr?$AA?9?$AAO?$AAM?$AA?$AA@ 00000001400193d0     libucrt:lcidtoname_downlevel.obj
 0002:000033e0       ??_C@_1M@FODLMICG@?$AAe?$AAn?$AA?9?$AAJ?$AAM?$AA?$AA@ 00000001400193e0     libucrt:lcidtoname_downlevel.obj
 0002:000033f0       ??_C@_1M@DNMLCIHB@?$AAe?$AAs?$AA?9?$AAV?$AAE?$AA?$AA@ 00000001400193f0     libucrt:lcidtoname_downlevel.obj
 0002:00003400       ??_C@_1O@EOKHMKJK@?$AAs?$AAm?$AAs?$AA?9?$AAF?$AAI?$AA?$AA@ 0000000140019400     libucrt:lcidtoname_downlevel.obj
 0002:00003410       ??_C@_1M@CAFJMKOF@?$AAa?$AAr?$AA?9?$AAY?$AAE?$AA?$AA@ 0000000140019410     libucrt:lcidtoname_downlevel.obj
 0002:00003420       ??_C@_1M@CBFHIJLI@?$AAe?$AAn?$AA?9?$AAC?$AAB?$AA?$AA@ 0000000140019420     libucrt:lcidtoname_downlevel.obj
 0002:00003430       ??_C@_1M@BGNFLDN@?$AAe?$AAs?$AA?9?$AAC?$AAO?$AA?$AA@ 0000000140019430     libucrt:lcidtoname_downlevel.obj
 0002:00003440       ??_C@_1O@JMPHMAMC@?$AAs?$AAm?$AAn?$AA?9?$AAF?$AAI?$AA?$AA@ 0000000140019440     libucrt:lcidtoname_downlevel.obj
 0002:00003450       ??_C@_1M@JLANABKE@?$AAa?$AAr?$AA?9?$AAS?$AAY?$AA?$AA@ 0000000140019450     libucrt:lcidtoname_downlevel.obj
 0002:00003460       ??_C@_1M@HPKGCFGN@?$AAe?$AAn?$AA?9?$AAB?$AAZ?$AA?$AA@ 0000000140019460     libucrt:lcidtoname_downlevel.obj
 0002:00003470       ??_C@_1M@OLJCMLGM@?$AAe?$AAs?$AA?9?$AAP?$AAE?$AA?$AA@ 0000000140019470     libucrt:lcidtoname_downlevel.obj
 0002:00003480       ??_C@_1M@MKKGFKLE@?$AAa?$AAr?$AA?9?$AAJ?$AAO?$AA?$AA@ 0000000140019480     libucrt:lcidtoname_downlevel.obj
 0002:00003490       ??_C@_1M@EKPGLDNI@?$AAe?$AAn?$AA?9?$AAT?$AAT?$AA?$AA@ 0000000140019490     libucrt:lcidtoname_downlevel.obj
 0002:000034a0       ??_C@_1M@OONGHFHE@?$AAe?$AAs?$AA?9?$AAA?$AAR?$AA?$AA@ 00000001400194a0     libucrt:lcidtoname_downlevel.obj
 0002:000034b0       ??_C@_1M@OOJFGBHE@?$AAa?$AAr?$AA?9?$AAL?$AAB?$AA?$AA@ 00000001400194b0     libucrt:lcidtoname_downlevel.obj
 0002:000034c0       ??_C@_1M@GCEJHNEG@?$AAe?$AAn?$AA?9?$AAZ?$AAW?$AA?$AA@ 00000001400194c0     libucrt:lcidtoname_downlevel.obj
 0002:000034d0       ??_C@_1M@JNOCAHJI@?$AAe?$AAs?$AA?9?$AAE?$AAC?$AA?$AA@ 00000001400194d0     libucrt:lcidtoname_downlevel.obj
 0002:000034e0       ??_C@_1M@JEFHPGGB@?$AAa?$AAr?$AA?9?$AAK?$AAW?$AA?$AA@ 00000001400194e0     libucrt:lcidtoname_downlevel.obj
 0002:000034f0       ??_C@_1M@MLKIBJOJ@?$AAe?$AAn?$AA?9?$AAP?$AAH?$AA?$AA@ 00000001400194f0     libucrt:lcidtoname_downlevel.obj
 0002:00003500       ??_C@_1M@BDNIPEND@?$AAe?$AAs?$AA?9?$AAC?$AAL?$AA?$AA@ 0000000140019500     libucrt:lcidtoname_downlevel.obj
 0002:00003510       ??_C@_1M@MPNMEKBD@?$AAa?$AAr?$AA?9?$AAA?$AAE?$AA?$AA@ 0000000140019510     libucrt:lcidtoname_downlevel.obj
 0002:00003520       ??_C@_1M@KBJALCPI@?$AAe?$AAs?$AA?9?$AAU?$AAY?$AA?$AA@ 0000000140019520     libucrt:lcidtoname_downlevel.obj
 0002:00003530       ??_C@_1M@LLCCOAGA@?$AAa?$AAr?$AA?9?$AAB?$AAH?$AA?$AA@ 0000000140019530     libucrt:lcidtoname_downlevel.obj
 0002:00003540       ??_C@_1M@PBFNCDEL@?$AAe?$AAs?$AA?9?$AAP?$AAY?$AA?$AA@ 0000000140019540     libucrt:lcidtoname_downlevel.obj
 0002:00003550       ??_C@_1M@EDGINPNP@?$AAa?$AAr?$AA?9?$AAQ?$AAA?$AA?$AA@ 0000000140019550     libucrt:lcidtoname_downlevel.obj
 0002:00003560       ??_C@_1M@MKDBIIJI@?$AAe?$AAs?$AA?9?$AAB?$AAO?$AA?$AA@ 0000000140019560     libucrt:lcidtoname_downlevel.obj
 0002:00003570       ??_C@_1M@CPKKEBLD@?$AAe?$AAs?$AA?9?$AAS?$AAV?$AA?$AA@ 0000000140019570     libucrt:lcidtoname_downlevel.obj
 0002:00003580       ??_C@_1M@NDBGMMJL@?$AAe?$AAs?$AA?9?$AAH?$AAN?$AA?$AA@ 0000000140019580     libucrt:lcidtoname_downlevel.obj
 0002:00003590       ??_C@_1M@JIJIBHDP@?$AAe?$AAs?$AA?9?$AAN?$AAI?$AA?$AA@ 0000000140019590     libucrt:lcidtoname_downlevel.obj
 0002:000035a0       ??_C@_1M@CGFMKEEK@?$AAe?$AAs?$AA?9?$AAP?$AAR?$AA?$AA@ 00000001400195a0     libucrt:lcidtoname_downlevel.obj
 0002:000035b0       ??_C@_1O@ICJHKIIK@?$AAz?$AAh?$AA?9?$AAC?$AAH?$AAT?$AA?$AA@ 00000001400195b0     libucrt:lcidtoname_downlevel.obj
 0002:000035c0       ??_C@_15CLNEJCE@?$AAs?$AAr?$AA?$AA@ 00000001400195c0     libucrt:lcidtoname_downlevel.obj
 0002:00004410       ??_C@_1M@KAHEKEIG@?$AAa?$AAf?$AA?9?$AAz?$AAa?$AA?$AA@ 000000014001a410     libucrt:lcidtoname_downlevel.obj
 0002:00004420       ??_C@_1M@GIECOABL@?$AAa?$AAr?$AA?9?$AAa?$AAe?$AA?$AA@ 000000014001a420     libucrt:lcidtoname_downlevel.obj
 0002:00004430       ??_C@_1M@BMLMEKGI@?$AAa?$AAr?$AA?9?$AAb?$AAh?$AA?$AA@ 000000014001a430     libucrt:lcidtoname_downlevel.obj
 0002:00004440       ??_C@_1M@DAPFDGGB@?$AAa?$AAr?$AA?9?$AAd?$AAz?$AA?$AA@ 000000014001a440     libucrt:lcidtoname_downlevel.obj
 0002:00004450       ??_C@_1M@FJNKGKIG@?$AAa?$AAr?$AA?9?$AAe?$AAg?$AA?$AA@ 000000014001a450     libucrt:lcidtoname_downlevel.obj
 0002:00004460       ??_C@_1M@FLGKKCLO@?$AAa?$AAr?$AA?9?$AAi?$AAq?$AA?$AA@ 000000014001a460     libucrt:lcidtoname_downlevel.obj
 0002:00004470       ??_C@_1M@GNDIPALM@?$AAa?$AAr?$AA?9?$AAj?$AAo?$AA?$AA@ 000000014001a470     libucrt:lcidtoname_downlevel.obj
 0002:00004480       ??_C@_1M@DDMJFMGJ@?$AAa?$AAr?$AA?9?$AAk?$AAw?$AA?$AA@ 000000014001a480     libucrt:lcidtoname_downlevel.obj
 0002:00004490       ??_C@_1M@EJALMLHM@?$AAa?$AAr?$AA?9?$AAl?$AAb?$AA?$AA@ 000000014001a490     libucrt:lcidtoname_downlevel.obj
 0002:000044a0       ??_C@_1M@MOBDBLOC@?$AAa?$AAr?$AA?9?$AAl?$AAy?$AA?$AA@ 000000014001a4a0     libucrt:lcidtoname_downlevel.obj
 0002:000044b0       ??_C@_1M@JAOCLHDH@?$AAa?$AAr?$AA?9?$AAm?$AAa?$AA?$AA@ 000000014001a4b0     libucrt:lcidtoname_downlevel.obj
 0002:000044c0       ??_C@_1M@JHPMKJIE@?$AAa?$AAr?$AA?9?$AAo?$AAm?$AA?$AA@ 000000014001a4c0     libucrt:lcidtoname_downlevel.obj
 0002:000044d0       ??_C@_1M@OEPGHFNH@?$AAa?$AAr?$AA?9?$AAq?$AAa?$AA?$AA@ 000000014001a4d0     libucrt:lcidtoname_downlevel.obj
 0002:000044e0       ??_C@_1M@KJDONENM@?$AAa?$AAr?$AA?9?$AAs?$AAa?$AA?$AA@ 000000014001a4e0     libucrt:lcidtoname_downlevel.obj
 0002:000044f0       ??_C@_1M@DMJDKLKM@?$AAa?$AAr?$AA?9?$AAs?$AAy?$AA?$AA@ 000000014001a4f0     libucrt:lcidtoname_downlevel.obj
 0002:00004500       ??_C@_1M@OMFIPEDC@?$AAa?$AAr?$AA?9?$AAt?$AAn?$AA?$AA@ 000000014001a500     libucrt:lcidtoname_downlevel.obj
 0002:00004510       ??_C@_1M@IHMHGAON@?$AAa?$AAr?$AA?9?$AAy?$AAe?$AA?$AA@ 000000014001a510     libucrt:lcidtoname_downlevel.obj
 0002:00004520       ??_C@_1BG@KDCPGJGB@?$AAa?$AAz?$AA?9?$AAa?$AAz?$AA?9?$AAc?$AAy?$AAr?$AAl?$AA?$AA@ 000000014001a520     libucrt:lcidtoname_downlevel.obj
 0002:00004538       ??_C@_1BG@IBCKDDOE@?$AAa?$AAz?$AA?9?$AAa?$AAz?$AA?9?$AAl?$AAa?$AAt?$AAn?$AA?$AA@ 000000014001a538     libucrt:lcidtoname_downlevel.obj
 0002:00004550       ??_C@_1M@EGPFDCPD@?$AAb?$AAe?$AA?9?$AAb?$AAy?$AA?$AA@ 000000014001a550     libucrt:lcidtoname_downlevel.obj
 0002:00004560       ??_C@_1M@PCMGMCGC@?$AAb?$AAg?$AA?9?$AAb?$AAg?$AA?$AA@ 000000014001a560     libucrt:lcidtoname_downlevel.obj
 0002:00004570       ??_C@_1M@BJBMFGOB@?$AAb?$AAn?$AA?9?$AAi?$AAn?$AA?$AA@ 000000014001a570     libucrt:lcidtoname_downlevel.obj
 0002:00004580       ??_C@_1BG@EAKMMACD@?$AAb?$AAs?$AA?9?$AAb?$AAa?$AA?9?$AAl?$AAa?$AAt?$AAn?$AA?$AA@ 000000014001a580     libucrt:lcidtoname_downlevel.obj
 0002:00004598       ??_C@_1M@KGADAODK@?$AAc?$AAa?$AA?9?$AAe?$AAs?$AA?$AA@ 000000014001a598     libucrt:lcidtoname_downlevel.obj
 0002:000045a8       ??_C@_1M@COAJPDHI@?$AAc?$AAs?$AA?9?$AAc?$AAz?$AA?$AA@ 000000014001a5a8     libucrt:lcidtoname_downlevel.obj
 0002:000045b8       ??_C@_1M@DHBHFONH@?$AAc?$AAy?$AA?9?$AAg?$AAb?$AA?$AA@ 000000014001a5b8     libucrt:lcidtoname_downlevel.obj
 0002:000045c8       ??_C@_1M@IMGKELGA@?$AAd?$AAa?$AA?9?$AAd?$AAk?$AA?$AA@ 000000014001a5c8     libucrt:lcidtoname_downlevel.obj
 0002:000045d8       ??_C@_1M@NNDGDNGA@?$AAd?$AAe?$AA?9?$AAa?$AAt?$AA?$AA@ 000000014001a5d8     libucrt:lcidtoname_downlevel.obj
 0002:000045e8       ??_C@_1M@IKDBHEEM@?$AAd?$AAe?$AA?9?$AAc?$AAh?$AA?$AA@ 000000014001a5e8     libucrt:lcidtoname_downlevel.obj
 0002:000045f8       ??_C@_1M@GFFOJMCJ@?$AAd?$AAe?$AA?9?$AAd?$AAe?$AA?$AA@ 000000014001a5f8     libucrt:lcidtoname_downlevel.obj
 0002:00004608       ??_C@_1M@MDNLKBPM@?$AAd?$AAe?$AA?9?$AAl?$AAi?$AA?$AA@ 000000014001a608     libucrt:lcidtoname_downlevel.obj
 0002:00004618       ??_C@_1M@NJBEEJNL@?$AAd?$AAe?$AA?9?$AAl?$AAu?$AA?$AA@ 000000014001a618     libucrt:lcidtoname_downlevel.obj
 0002:00004628       ??_C@_1O@GNNELBAP@?$AAd?$AAi?$AAv?$AA?9?$AAm?$AAv?$AA?$AA@ 000000014001a628     libucrt:lcidtoname_downlevel.obj
 0002:00004638       ??_C@_1M@EJLEOGAE@?$AAe?$AAl?$AA?9?$AAg?$AAr?$AA?$AA@ 000000014001a638     libucrt:lcidtoname_downlevel.obj
 0002:00004648       ??_C@_1M@GMPONJN@?$AAe?$AAn?$AA?9?$AAa?$AAu?$AA?$AA@ 000000014001a648     libucrt:lcidtoname_downlevel.obj
 0002:00004658       ??_C@_1M@NIDIIPGF@?$AAe?$AAn?$AA?9?$AAb?$AAz?$AA?$AA@ 000000014001a658     libucrt:lcidtoname_downlevel.obj
 0002:00004668       ??_C@_1M@JEHMIMFO@?$AAe?$AAn?$AA?9?$AAc?$AAa?$AA?$AA@ 000000014001a668     libucrt:lcidtoname_downlevel.obj
 0002:00004678       ??_C@_1M@IGMJCDLA@?$AAe?$AAn?$AA?9?$AAc?$AAb?$AA?$AA@ 000000014001a678     libucrt:lcidtoname_downlevel.obj
 0002:00004688       ??_C@_1M@BNFIGBKG@?$AAe?$AAn?$AA?9?$AAg?$AAb?$AA?$AA@ 000000014001a688     libucrt:lcidtoname_downlevel.obj
 0002:00004698       ??_C@_1M@LKIFDIGP@?$AAe?$AAn?$AA?9?$AAi?$AAe?$AA?$AA@ 000000014001a698     libucrt:lcidtoname_downlevel.obj
 0002:000046a8       ??_C@_1M@PJKFGCCO@?$AAe?$AAn?$AA?9?$AAj?$AAm?$AA?$AA@ 000000014001a6a8     libucrt:lcidtoname_downlevel.obj
 0002:000046b8       ??_C@_1M@KPPKEPBO@?$AAe?$AAn?$AA?9?$AAn?$AAz?$AA?$AA@ 000000014001a6b8     libucrt:lcidtoname_downlevel.obj
 0002:000046c8       ??_C@_1M@GMDGLDOB@?$AAe?$AAn?$AA?9?$AAp?$AAh?$AA?$AA@ 000000014001a6c8     libucrt:lcidtoname_downlevel.obj
 0002:000046d8       ??_C@_1M@ONGIBJNA@?$AAe?$AAn?$AA?9?$AAt?$AAt?$AA?$AA@ 000000014001a6d8     libucrt:lcidtoname_downlevel.obj
 0002:000046e8       ??_C@_1M@LLODPCMM@?$AAe?$AAn?$AA?9?$AAu?$AAs?$AA?$AA@ 000000014001a6e8     libucrt:lcidtoname_downlevel.obj
 0002:000046f8       ??_C@_1M@LAKFNPAN@?$AAe?$AAn?$AA?9?$AAz?$AAa?$AA?$AA@ 000000014001a6f8     libucrt:lcidtoname_downlevel.obj
 0002:00004708       ??_C@_1M@MFNHNHEO@?$AAe?$AAn?$AA?9?$AAz?$AAw?$AA?$AA@ 000000014001a708     libucrt:lcidtoname_downlevel.obj
 0002:00004718       ??_C@_1M@EJEINPHM@?$AAe?$AAs?$AA?9?$AAa?$AAr?$AA?$AA@ 000000014001a718     libucrt:lcidtoname_downlevel.obj
 0002:00004728       ??_C@_1M@GNKPCCJA@?$AAe?$AAs?$AA?9?$AAb?$AAo?$AA?$AA@ 000000014001a728     libucrt:lcidtoname_downlevel.obj
 0002:00004738       ??_C@_1M@LEEGFONL@?$AAe?$AAs?$AA?9?$AAc?$AAl?$AA?$AA@ 000000014001a738     libucrt:lcidtoname_downlevel.obj
 0002:00004748       ??_C@_1M@KGPDPBDF@?$AAe?$AAs?$AA?9?$AAc?$AAo?$AA?$AA@ 000000014001a748     libucrt:lcidtoname_downlevel.obj
 0002:00004758       ??_C@_1M@EIAHOHH@?$AAe?$AAs?$AA?9?$AAc?$AAr?$AA?$AA@ 000000014001a758     libucrt:lcidtoname_downlevel.obj
 0002:00004768       ??_C@_1M@LLPGMBIN@?$AAe?$AAs?$AA?9?$AAd?$AAo?$AA?$AA@ 000000014001a768     libucrt:lcidtoname_downlevel.obj
 0002:00004778       ??_C@_1M@DKHMKNJA@?$AAe?$AAs?$AA?9?$AAe?$AAc?$AA?$AA@ 000000014001a778     libucrt:lcidtoname_downlevel.obj
 0002:00004788       ??_C@_1M@GKGFPKAP@?$AAe?$AAs?$AA?9?$AAe?$AAs?$AA?$AA@ 000000014001a788     libucrt:lcidtoname_downlevel.obj
 0002:00004798       ??_C@_1M@LKHKGDLN@?$AAe?$AAs?$AA?9?$AAg?$AAt?$AA?$AA@ 000000014001a798     libucrt:lcidtoname_downlevel.obj
 0002:000047a8       ??_C@_1M@HEIIGGJD@?$AAe?$AAs?$AA?9?$AAh?$AAn?$AA?$AA@ 000000014001a7a8     libucrt:lcidtoname_downlevel.obj
 0002:000047b8       ??_C@_1M@FBDHPPGD@?$AAe?$AAs?$AA?9?$AAm?$AAx?$AA?$AA@ 000000014001a7b8     libucrt:lcidtoname_downlevel.obj
 0002:000047c8       ??_C@_1M@DPAGLNDH@?$AAe?$AAs?$AA?9?$AAn?$AAi?$AA?$AA@ 000000014001a7c8     libucrt:lcidtoname_downlevel.obj
 0002:000047d8       ??_C@_1M@MDGOPGDD@?$AAe?$AAs?$AA?9?$AAp?$AAa?$AA?$AA@ 000000014001a7d8     libucrt:lcidtoname_downlevel.obj
 0002:000047e8       ??_C@_1M@EMAMGBGE@?$AAe?$AAs?$AA?9?$AAp?$AAe?$AA?$AA@ 000000014001a7e8     libucrt:lcidtoname_downlevel.obj
 0002:000047f8       ??_C@_1M@IBMCAOEC@?$AAe?$AAs?$AA?9?$AAp?$AAr?$AA?$AA@ 000000014001a7f8     libucrt:lcidtoname_downlevel.obj
 0002:00004808       ??_C@_1M@FGMDIJED@?$AAe?$AAs?$AA?9?$AAp?$AAy?$AA?$AA@ 000000014001a808     libucrt:lcidtoname_downlevel.obj
 0002:00004818       ??_C@_1M@IIDEOLLL@?$AAe?$AAs?$AA?9?$AAs?$AAv?$AA?$AA@ 000000014001a818     libucrt:lcidtoname_downlevel.obj
 0002:00004828       ??_C@_1M@GAOBIPA@?$AAe?$AAs?$AA?9?$AAu?$AAy?$AA?$AA@ 000000014001a828     libucrt:lcidtoname_downlevel.obj
 0002:00004838       ??_C@_1M@JKFFICHJ@?$AAe?$AAs?$AA?9?$AAv?$AAe?$AA?$AA@ 000000014001a838     libucrt:lcidtoname_downlevel.obj
 0002:00004848       ??_C@_1M@PNMLOJDF@?$AAe?$AAt?$AA?9?$AAe?$AAe?$AA?$AA@ 000000014001a848     libucrt:lcidtoname_downlevel.obj
 0002:00004858       ??_C@_1M@GHHLIKEI@?$AAe?$AAu?$AA?9?$AAe?$AAs?$AA?$AA@ 000000014001a858     libucrt:lcidtoname_downlevel.obj
 0002:00004868       ??_C@_1M@PBNONODE@?$AAf?$AAa?$AA?9?$AAi?$AAr?$AA?$AA@ 000000014001a868     libucrt:lcidtoname_downlevel.obj
 0002:00004878       ??_C@_1M@JEEHPMIL@?$AAf?$AAi?$AA?9?$AAf?$AAi?$AA?$AA@ 000000014001a878     libucrt:lcidtoname_downlevel.obj
 0002:00004888       ??_C@_1M@LMDCNDBA@?$AAf?$AAo?$AA?9?$AAf?$AAo?$AA?$AA@ 000000014001a888     libucrt:lcidtoname_downlevel.obj
 0002:00004898       ??_C@_1M@JKEOHLDK@?$AAf?$AAr?$AA?9?$AAb?$AAe?$AA?$AA@ 000000014001a898     libucrt:lcidtoname_downlevel.obj
 0002:000048a8       ??_C@_1M@NOHADPMI@?$AAf?$AAr?$AA?9?$AAc?$AAa?$AA?$AA@ 000000014001a8a8     libucrt:lcidtoname_downlevel.obj
 0002:000048b8       ??_C@_1M@KDHIHAEC@?$AAf?$AAr?$AA?9?$AAc?$AAh?$AA?$AA@ 000000014001a8b8     libucrt:lcidtoname_downlevel.obj
 0002:000048c8       ??_C@_1M@MMBBFGAK@?$AAf?$AAr?$AA?9?$AAf?$AAr?$AA?$AA@ 000000014001a8c8     libucrt:lcidtoname_downlevel.obj
 0002:000048d8       ??_C@_1M@PAFNENNF@?$AAf?$AAr?$AA?9?$AAl?$AAu?$AA?$AA@ 000000014001a8d8     libucrt:lcidtoname_downlevel.obj
 0002:000048e8       ??_C@_1M@EOHDJGDD@?$AAf?$AAr?$AA?9?$AAm?$AAc?$AA?$AA@ 000000014001a8e8     libucrt:lcidtoname_downlevel.obj
 0002:000048f8       ??_C@_1M@FAPLLOPF@?$AAg?$AAl?$AA?9?$AAe?$AAs?$AA?$AA@ 000000014001a8f8     libucrt:lcidtoname_downlevel.obj
 0002:00004908       ??_C@_1M@FOPBFLOO@?$AAg?$AAu?$AA?9?$AAi?$AAn?$AA?$AA@ 000000014001a908     libucrt:lcidtoname_downlevel.obj
 0002:00004918       ??_C@_1M@KBMCINPM@?$AAh?$AAe?$AA?9?$AAi?$AAl?$AA?$AA@ 000000014001a918     libucrt:lcidtoname_downlevel.obj
 0002:00004928       ??_C@_1M@BBPHKFPJ@?$AAh?$AAi?$AA?9?$AAi?$AAn?$AA?$AA@ 000000014001a928     libucrt:lcidtoname_downlevel.obj
 0002:00004938       ??_C@_1M@PMBNDPHD@?$AAh?$AAr?$AA?9?$AAb?$AAa?$AA?$AA@ 000000014001a938     libucrt:lcidtoname_downlevel.obj
 0002:00004948       ??_C@_1M@BPCKOEGE@?$AAh?$AAr?$AA?9?$AAh?$AAr?$AA?$AA@ 000000014001a948     libucrt:lcidtoname_downlevel.obj
 0002:00004958       ??_C@_1M@GACBMHKE@?$AAh?$AAu?$AA?9?$AAh?$AAu?$AA?$AA@ 000000014001a958     libucrt:lcidtoname_downlevel.obj
 0002:00004968       ??_C@_1M@MILPAJJC@?$AAh?$AAy?$AA?9?$AAa?$AAm?$AA?$AA@ 000000014001a968     libucrt:lcidtoname_downlevel.obj
 0002:00004978       ??_C@_1M@BABBICEC@?$AAi?$AAd?$AA?9?$AAi?$AAd?$AA?$AA@ 000000014001a978     libucrt:lcidtoname_downlevel.obj
 0002:00004988       ??_C@_1M@BIKNHHPF@?$AAi?$AAs?$AA?9?$AAi?$AAs?$AA?$AA@ 000000014001a988     libucrt:lcidtoname_downlevel.obj
 0002:00004998       ??_C@_1M@NMPCJPHE@?$AAi?$AAt?$AA?9?$AAc?$AAh?$AA?$AA@ 000000014001a998     libucrt:lcidtoname_downlevel.obj
 0002:000049a8       ??_C@_1M@GHKGFEDF@?$AAi?$AAt?$AA?9?$AAi?$AAt?$AA?$AA@ 000000014001a9a8     libucrt:lcidtoname_downlevel.obj
 0002:000049b8       ??_C@_1M@NIEJCJJA@?$AAj?$AAa?$AA?9?$AAj?$AAp?$AA?$AA@ 000000014001a9b8     libucrt:lcidtoname_downlevel.obj
 0002:000049c8       ??_C@_1M@JILFNBIM@?$AAk?$AAa?$AA?9?$AAg?$AAe?$AA?$AA@ 000000014001a9c8     libucrt:lcidtoname_downlevel.obj
 0002:000049d8       ??_C@_1M@PACPMGPH@?$AAk?$AAk?$AA?9?$AAk?$AAz?$AA?$AA@ 000000014001a9d8     libucrt:lcidtoname_downlevel.obj
 0002:000049e8       ??_C@_1M@IELFGMHA@?$AAk?$AAn?$AA?9?$AAi?$AAn?$AA?$AA@ 000000014001a9e8     libucrt:lcidtoname_downlevel.obj
 0002:000049f8       ??_C@_1O@IBBJHCH@?$AAk?$AAo?$AAk?$AA?9?$AAi?$AAn?$AA?$AA@ 000000014001a9f8     libucrt:lcidtoname_downlevel.obj
 0002:00004a08       ??_C@_1M@DMHAEOGC@?$AAk?$AAo?$AA?9?$AAk?$AAr?$AA?$AA@ 000000014001aa08     libucrt:lcidtoname_downlevel.obj
 0002:00004a18       ??_C@_1M@HBAHBIGA@?$AAk?$AAy?$AA?9?$AAk?$AAg?$AA?$AA@ 000000014001aa18     libucrt:lcidtoname_downlevel.obj
 0002:00004a28       ??_C@_1M@KPMILCJG@?$AAl?$AAt?$AA?9?$AAl?$AAt?$AA?$AA@ 000000014001aa28     libucrt:lcidtoname_downlevel.obj
 0002:00004a38       ??_C@_1M@BDEKKCA@?$AAl?$AAv?$AA?9?$AAl?$AAv?$AA?$AA@ 000000014001aa38     libucrt:lcidtoname_downlevel.obj
 0002:00004a48       ??_C@_1M@ELCKCCJJ@?$AAm?$AAi?$AA?9?$AAn?$AAz?$AA?$AA@ 000000014001aa48     libucrt:lcidtoname_downlevel.obj
 0002:00004a58       ??_C@_1M@CBOOLAPA@?$AAm?$AAk?$AA?9?$AAm?$AAk?$AA?$AA@ 000000014001aa58     libucrt:lcidtoname_downlevel.obj
 0002:00004a68       ??_C@_1M@GPHNBJKN@?$AAm?$AAl?$AA?9?$AAi?$AAn?$AA?$AA@ 000000014001aa68     libucrt:lcidtoname_downlevel.obj
 0002:00004a78       ??_C@_1M@PABJILIG@?$AAm?$AAn?$AA?9?$AAm?$AAn?$AA?$AA@ 000000014001aa78     libucrt:lcidtoname_downlevel.obj
 0002:00004a88       ??_C@_1M@FGBKKIPG@?$AAm?$AAr?$AA?9?$AAi?$AAn?$AA?$AA@ 000000014001aa88     libucrt:lcidtoname_downlevel.obj
 0002:00004a98       ??_C@_1M@NDBPDDAL@?$AAm?$AAs?$AA?9?$AAb?$AAn?$AA?$AA@ 000000014001aa98     libucrt:lcidtoname_downlevel.obj
 0002:00004aa8       ??_C@_1M@OPIHOOPI@?$AAm?$AAs?$AA?9?$AAm?$AAy?$AA?$AA@ 000000014001aaa8     libucrt:lcidtoname_downlevel.obj
 0002:00004ab8       ??_C@_1M@PPDBCNFM@?$AAm?$AAt?$AA?9?$AAm?$AAt?$AA?$AA@ 000000014001aab8     libucrt:lcidtoname_downlevel.obj
 0002:00004ac8       ??_C@_1M@KDJDKMDD@?$AAn?$AAb?$AA?9?$AAn?$AAo?$AA?$AA@ 000000014001aac8     libucrt:lcidtoname_downlevel.obj
 0002:00004ad8       ??_C@_1M@KFCFLMJP@?$AAn?$AAl?$AA?9?$AAb?$AAe?$AA?$AA@ 000000014001aad8     libucrt:lcidtoname_downlevel.obj
 0002:00004ae8       ??_C@_1M@KPOPDDGO@?$AAn?$AAl?$AA?9?$AAn?$AAl?$AA?$AA@ 000000014001aae8     libucrt:lcidtoname_downlevel.obj
 0002:00004af8       ??_C@_1M@LJKPEMLN@?$AAn?$AAn?$AA?9?$AAn?$AAo?$AA?$AA@ 000000014001aaf8     libucrt:lcidtoname_downlevel.obj
 0002:00004b08       ??_C@_1M@BDGHHBFL@?$AAn?$AAs?$AA?9?$AAz?$AAa?$AA?$AA@ 000000014001ab08     libucrt:lcidtoname_downlevel.obj
 0002:00004b18       ??_C@_1M@IDEHOAP@?$AAp?$AAa?$AA?9?$AAi?$AAn?$AA?$AA@ 000000014001ab18     libucrt:lcidtoname_downlevel.obj
 0002:00004b28       ??_C@_1M@HDBKGOGH@?$AAp?$AAl?$AA?9?$AAp?$AAl?$AA?$AA@ 000000014001ab28     libucrt:lcidtoname_downlevel.obj
 0002:00004b38       ??_C@_1M@LJLLCMEH@?$AAp?$AAt?$AA?9?$AAb?$AAr?$AA?$AA@ 000000014001ab38     libucrt:lcidtoname_downlevel.obj
 0002:00004b48       ??_C@_1M@NCMONAAL@?$AAp?$AAt?$AA?9?$AAp?$AAt?$AA?$AA@ 000000014001ab48     libucrt:lcidtoname_downlevel.obj
 0002:00004b58       ??_C@_1O@EAKMAJDN@?$AAq?$AAu?$AAz?$AA?9?$AAb?$AAo?$AA?$AA@ 000000014001ab58     libucrt:lcidtoname_downlevel.obj
 0002:00004b68       ??_C@_1O@BHHPIGDN@?$AAq?$AAu?$AAz?$AA?9?$AAe?$AAc?$AA?$AA@ 000000014001ab68     libucrt:lcidtoname_downlevel.obj
 0002:00004b78       ??_C@_1O@GBAPEKMJ@?$AAq?$AAu?$AAz?$AA?9?$AAp?$AAe?$AA?$AA@ 000000014001ab78     libucrt:lcidtoname_downlevel.obj
 0002:00004b88       ??_C@_1M@CLGLEFBO@?$AAr?$AAo?$AA?9?$AAr?$AAo?$AA?$AA@ 000000014001ab88     libucrt:lcidtoname_downlevel.obj
 0002:00004b98       ??_C@_1M@CEEDODME@?$AAr?$AAu?$AA?9?$AAr?$AAu?$AA?$AA@ 000000014001ab98     libucrt:lcidtoname_downlevel.obj
 0002:00004ba8       ??_C@_1M@HPKKKMPP@?$AAs?$AAa?$AA?9?$AAi?$AAn?$AA?$AA@ 000000014001aba8     libucrt:lcidtoname_downlevel.obj
 0002:00004bb8       ??_C@_1M@BKMAIGOJ@?$AAs?$AAe?$AA?9?$AAf?$AAi?$AA?$AA@ 000000014001abb8     libucrt:lcidtoname_downlevel.obj
 0002:00004bc8       ??_C@_1M@NDPIFLFI@?$AAs?$AAe?$AA?9?$AAn?$AAo?$AA?$AA@ 000000014001abc8     libucrt:lcidtoname_downlevel.obj
 0002:00004bd8       ??_C@_1M@DANKKHJ@?$AAs?$AAe?$AA?9?$AAs?$AAe?$AA?$AA@ 000000014001abd8     libucrt:lcidtoname_downlevel.obj
 0002:00004be8       ??_C@_1M@PNBLONPJ@?$AAs?$AAk?$AA?9?$AAs?$AAk?$AA?$AA@ 000000014001abe8     libucrt:lcidtoname_downlevel.obj
 0002:00004bf8       ??_C@_1M@LFMODOAL@?$AAs?$AAl?$AA?9?$AAs?$AAi?$AA?$AA@ 000000014001abf8     libucrt:lcidtoname_downlevel.obj
 0002:00004c08       ??_C@_1O@DFKOMPG@?$AAs?$AAm?$AAa?$AA?9?$AAn?$AAo?$AA?$AA@ 000000014001ac08     libucrt:lcidtoname_downlevel.obj
 0002:00004c18       ??_C@_1O@NDKPBNNH@?$AAs?$AAm?$AAa?$AA?9?$AAs?$AAe?$AA?$AA@ 000000014001ac18     libucrt:lcidtoname_downlevel.obj
 0002:00004c28       ??_C@_1O@PLLKBHAB@?$AAs?$AAm?$AAj?$AA?9?$AAn?$AAo?$AA?$AA@ 000000014001ac28     libucrt:lcidtoname_downlevel.obj
 0002:00004c38       ??_C@_1O@CLEPOGCA@?$AAs?$AAm?$AAj?$AA?9?$AAs?$AAe?$AA?$AA@ 000000014001ac38     libucrt:lcidtoname_downlevel.obj
 0002:00004c48       ??_C@_1O@DLGJGKMK@?$AAs?$AAm?$AAn?$AA?9?$AAf?$AAi?$AA?$AA@ 000000014001ac48     libucrt:lcidtoname_downlevel.obj
 0002:00004c58       ??_C@_1O@OJDJGAJC@?$AAs?$AAm?$AAs?$AA?9?$AAf?$AAi?$AA?$AA@ 000000014001ac58     libucrt:lcidtoname_downlevel.obj
 0002:00004c68       ??_C@_1M@BOFOGHPB@?$AAs?$AAq?$AA?9?$AAa?$AAl?$AA?$AA@ 000000014001ac68     libucrt:lcidtoname_downlevel.obj
 0002:00004c78       ??_C@_1BG@LJBBIPGB@?$AAs?$AAr?$AA?9?$AAb?$AAa?$AA?9?$AAc?$AAy?$AAr?$AAl?$AA?$AA@ 000000014001ac78     libucrt:lcidtoname_downlevel.obj
 0002:00004c90       ??_C@_1BG@JLBENFOE@?$AAs?$AAr?$AA?9?$AAb?$AAa?$AA?9?$AAl?$AAa?$AAt?$AAn?$AA?$AA@ 000000014001ac90     libucrt:lcidtoname_downlevel.obj
 0002:00004ca8       ??_C@_1BG@KODPNHE@?$AAs?$AAr?$AA?9?$AAs?$AAp?$AA?9?$AAc?$AAy?$AAr?$AAl?$AA?$AA@ 000000014001aca8     libucrt:lcidtoname_downlevel.obj
 0002:00004cc0       ??_C@_1BG@CIOGKHPB@?$AAs?$AAr?$AA?9?$AAs?$AAp?$AA?9?$AAl?$AAa?$AAt?$AAn?$AA?$AA@ 000000014001acc0     libucrt:lcidtoname_downlevel.obj
 0002:00004cd8       ??_C@_1M@NGFJLMAC@?$AAs?$AAv?$AA?9?$AAf?$AAi?$AA?$AA@ 000000014001acd8     libucrt:lcidtoname_downlevel.obj
 0002:00004ce8       ??_C@_1M@MPJEJAJC@?$AAs?$AAv?$AA?9?$AAs?$AAe?$AA?$AA@ 000000014001ace8     libucrt:lcidtoname_downlevel.obj
 0002:00004cf8       ??_C@_1M@MPNDHLFK@?$AAs?$AAw?$AA?9?$AAk?$AAe?$AA?$AA@ 000000014001acf8     libucrt:lcidtoname_downlevel.obj
 0002:00004d08       ??_C@_1O@KOHBJJI@?$AAs?$AAy?$AAr?$AA?9?$AAs?$AAy?$AA?$AA@ 000000014001ad08     libucrt:lcidtoname_downlevel.obj
 0002:00004d18       ??_C@_1M@LDCEFHA@?$AAt?$AAa?$AA?9?$AAi?$AAn?$AA?$AA@ 000000014001ad18     libucrt:lcidtoname_downlevel.obj
 0002:00004d28       ??_C@_1M@CNJOFAK@?$AAt?$AAe?$AA?9?$AAi?$AAn?$AA?$AA@ 000000014001ad28     libucrt:lcidtoname_downlevel.obj
 0002:00004d38       ??_C@_1M@GNAECACD@?$AAt?$AAh?$AA?9?$AAt?$AAh?$AA?$AA@ 000000014001ad38     libucrt:lcidtoname_downlevel.obj
 0002:00004d48       ??_C@_1M@CHBIHOJO@?$AAt?$AAn?$AA?9?$AAz?$AAa?$AA?$AA@ 000000014001ad48     libucrt:lcidtoname_downlevel.obj
 0002:00004d58       ??_C@_1M@GCCMIGPJ@?$AAt?$AAr?$AA?9?$AAt?$AAr?$AA?$AA@ 000000014001ad58     libucrt:lcidtoname_downlevel.obj
 0002:00004d68       ??_C@_1M@CELMCNBK@?$AAt?$AAt?$AA?9?$AAr?$AAu?$AA?$AA@ 000000014001ad68     libucrt:lcidtoname_downlevel.obj
 0002:00004d78       ??_C@_1M@KLMCELGA@?$AAu?$AAk?$AA?9?$AAu?$AAa?$AA?$AA@ 000000014001ad78     libucrt:lcidtoname_downlevel.obj
 0002:00004d88       ??_C@_1M@EPAJJAJF@?$AAu?$AAr?$AA?9?$AAp?$AAk?$AA?$AA@ 000000014001ad88     libucrt:lcidtoname_downlevel.obj
 0002:00004d98       ??_C@_1BG@GEGPMCDJ@?$AAu?$AAz?$AA?9?$AAu?$AAz?$AA?9?$AAc?$AAy?$AAr?$AAl?$AA?$AA@ 000000014001ad98     libucrt:lcidtoname_downlevel.obj
 0002:00004db0       ??_C@_1BG@EGGKJILM@?$AAu?$AAz?$AA?9?$AAu?$AAz?$AA?9?$AAl?$AAa?$AAt?$AAn?$AA?$AA@ 000000014001adb0     libucrt:lcidtoname_downlevel.obj
 0002:00004dc8       ??_C@_1M@GFOCLFF@?$AAv?$AAi?$AA?9?$AAv?$AAn?$AA?$AA@ 000000014001adc8     libucrt:lcidtoname_downlevel.obj
 0002:00004dd8       ??_C@_1M@CPAMEDFI@?$AAx?$AAh?$AA?9?$AAz?$AAa?$AA?$AA@ 000000014001add8     libucrt:lcidtoname_downlevel.obj
 0002:00004de8       ??_C@_1O@EBKIFIGN@?$AAz?$AAh?$AA?9?$AAc?$AAh?$AAs?$AA?$AA@ 000000014001ade8     libucrt:lcidtoname_downlevel.obj
 0002:00004df8       ??_C@_1O@NMHPGANE@?$AAz?$AAh?$AA?9?$AAc?$AAh?$AAt?$AA?$AA@ 000000014001adf8     libucrt:lcidtoname_downlevel.obj
 0002:00004e08       ??_C@_1M@LPINJOMC@?$AAz?$AAh?$AA?9?$AAc?$AAn?$AA?$AA@ 000000014001ae08     libucrt:lcidtoname_downlevel.obj
 0002:00004e18       ??_C@_1M@OCJEJODD@?$AAz?$AAh?$AA?9?$AAh?$AAk?$AA?$AA@ 000000014001ae18     libucrt:lcidtoname_downlevel.obj
 0002:00004e28       ??_C@_1M@DNDLJINH@?$AAz?$AAh?$AA?9?$AAm?$AAo?$AA?$AA@ 000000014001ae28     libucrt:lcidtoname_downlevel.obj
 0002:00004e38       ??_C@_1M@MBFDNDND@?$AAz?$AAh?$AA?9?$AAs?$AAg?$AA?$AA@ 000000014001ae38     libucrt:lcidtoname_downlevel.obj
 0002:00004e48       ??_C@_1M@IMEPLEPE@?$AAz?$AAh?$AA?9?$AAt?$AAw?$AA?$AA@ 000000014001ae48     libucrt:lcidtoname_downlevel.obj
 0002:00004e58       ??_C@_1M@BBGHNHJP@?$AAz?$AAu?$AA?9?$AAz?$AAa?$AA?$AA@ 000000014001ae58     libucrt:lcidtoname_downlevel.obj
 0002:00005cb0       ??_C@_15EMKDOKLE@?$AAa?$AAr?$AA?$AA@ 000000014001bcb0     libucrt:lcidtoname_downlevel.obj
 0002:00005cb8       ??_C@_15KNPADPLH@?$AAb?$AAg?$AA?$AA@ 000000014001bcb8     libucrt:lcidtoname_downlevel.obj
 0002:00005cc0       ??_C@_15EDMHLDMO@?$AAc?$AAa?$AA?$AA@ 000000014001bcc0     libucrt:lcidtoname_downlevel.obj
 0002:00005cc8       ??_C@_1O@BPEAJADD@?$AAz?$AAh?$AA?9?$AAC?$AAH?$AAS?$AA?$AA@ 000000014001bcc8     libucrt:lcidtoname_downlevel.obj
 0002:00005cd8       ??_C@_15LJNHCMNK@?$AAc?$AAs?$AA?$AA@ 000000014001bcd8     libucrt:lcidtoname_downlevel.obj
 0002:00005ce0       ??_C@_15FOMCIDHG@?$AAd?$AAa?$AA?$AA@ 000000014001bce0     libucrt:lcidtoname_downlevel.obj
 0002:00005ce8       ??_C@_15NBKABECB@?$AAd?$AAe?$AA?$AA@ 000000014001bce8     libucrt:lcidtoname_downlevel.obj
 0002:00005cf0       ??_C@_15GHPEIIAO@?$AAe?$AAl?$AA?$AA@ 000000014001bcf0     libucrt:lcidtoname_downlevel.obj
 0002:00005cf8       ??_C@_15MNPNEAIF@?$AAe?$AAn?$AA?$AA@ 000000014001bcf8     libucrt:lcidtoname_downlevel.obj
 0002:00005d00       ??_C@_15GPIOMPMH@?$AAe?$AAs?$AA?$AA@ 000000014001bd00     libucrt:lcidtoname_downlevel.obj
 0002:00005d08       ??_C@_15NGLOAKJC@?$AAf?$AAi?$AA?$AA@ 000000014001bd08     libucrt:lcidtoname_downlevel.obj
 0002:00005d10       ??_C@_15FBKGNKAM@?$AAf?$AAr?$AA?$AA@ 000000014001bd10     libucrt:lcidtoname_downlevel.obj
 0002:00005d18       ??_C@_15KGGCNEFK@?$AAh?$AAe?$AA?$AA@ 000000014001bd18     libucrt:lcidtoname_downlevel.obj
 0002:00005d20       ??_C@_15PGHLIDMF@?$AAh?$AAu?$AA?$AA@ 000000014001bd20     libucrt:lcidtoname_downlevel.obj
 0002:00005d28       ??_C@_15BIEMAPLM@?$AAi?$AAs?$AA?$AA@ 000000014001bd28     libucrt:lcidtoname_downlevel.obj
 0002:00005d30       ??_C@_15IFJLDHAF@?$AAi?$AAt?$AA?$AA@ 000000014001bd30     libucrt:lcidtoname_downlevel.obj
 0002:00005d38       ??_C@_15GEMIOCAG@?$AAj?$AAa?$AA?$AA@ 000000014001bd38     libucrt:lcidtoname_downlevel.obj
 0002:00005d40       ??_C@_15EPELEGJA@?$AAk?$AAo?$AA?$AA@ 000000014001bd40     libucrt:lcidtoname_downlevel.obj
 0002:00005d48       ??_C@_15NDDHIMN@?$AAn?$AAl?$AA?$AA@ 000000014001bd48     libucrt:lcidtoname_downlevel.obj
 0002:00005d50       ??_C@_15BPIGNHCD@?$AAn?$AAo?$AA?$AA@ 000000014001bd50     libucrt:lcidtoname_downlevel.obj
 0002:00005d58       ??_C@_15DEOPBLCG@?$AAp?$AAl?$AA?$AA@ 000000014001bd58     libucrt:lcidtoname_downlevel.obj
 0002:00005d60       ??_C@_15KBECGEFG@?$AAp?$AAt?$AA?$AA@ 000000014001bd60     libucrt:lcidtoname_downlevel.obj
 0002:00005d68       ??_C@_15GLJCBFMD@?$AAr?$AAo?$AA?$AA@ 000000014001bd68     libucrt:lcidtoname_downlevel.obj
 0002:00005d70       ??_C@_15FEDGKCDI@?$AAr?$AAu?$AA?$AA@ 000000014001bd70     libucrt:lcidtoname_downlevel.obj
 0002:00005d78       ??_C@_15GLKMLLHM@?$AAh?$AAr?$AA?$AA@ 000000014001bd78     libucrt:lcidtoname_downlevel.obj
 0002:00005d80       ??_C@_15CPKMFBDB@?$AAs?$AAk?$AA?$AA@ 000000014001bd80     libucrt:lcidtoname_downlevel.obj
 0002:00005d88       ??_C@_15BAAIOGMK@?$AAs?$AAq?$AA?$AA@ 000000014001bd88     libucrt:lcidtoname_downlevel.obj
 0002:00005d90       ??_C@_15INNPNOHD@?$AAs?$AAv?$AA?$AA@ 000000014001bd90     libucrt:lcidtoname_downlevel.obj
 0002:00005d98       ??_C@_15CABMMOGH@?$AAt?$AAh?$AA?$AA@ 000000014001bd98     libucrt:lcidtoname_downlevel.obj
 0002:00005da0       ??_C@_15BPLIHJJM@?$AAt?$AAr?$AA?$AA@ 000000014001bda0     libucrt:lcidtoname_downlevel.obj
 0002:00005da8       ??_C@_15NEOEKKDJ@?$AAu?$AAr?$AA?$AA@ 000000014001bda8     libucrt:lcidtoname_downlevel.obj
 0002:00005db0       ??_C@_15NFICGAJK@?$AAi?$AAd?$AA?$AA@ 000000014001bdb0     libucrt:lcidtoname_downlevel.obj
 0002:00005db8       ??_C@_15HPJPHDM@?$AAb?$AAe?$AA?$AA@ 000000014001bdb8     libucrt:lcidtoname_downlevel.obj
 0002:00005dc0       ??_C@_15LCHLGJII@?$AAs?$AAl?$AA?$AA@ 000000014001bdc0     libucrt:lcidtoname_downlevel.obj
 0002:00005dc8       ??_C@_15PCFJPHHO@?$AAe?$AAt?$AA?$AA@ 000000014001bdc8     libucrt:lcidtoname_downlevel.obj
 0002:00005dd0       ??_C@_15HPFPGODN@?$AAl?$AAv?$AA?$AA@ 000000014001bdd0     libucrt:lcidtoname_downlevel.obj
 0002:00005dd8       ??_C@_15NFFGKGLG@?$AAl?$AAt?$AA?$AA@ 000000014001bdd8     libucrt:lcidtoname_downlevel.obj
 0002:00005de0       ??_C@_15BDAKCCHN@?$AAf?$AAa?$AA?$AA@ 000000014001bde0     libucrt:lcidtoname_downlevel.obj
 0002:00005de8       ??_C@_15NFGIAIAJ@?$AAv?$AAi?$AA?$AA@ 000000014001bde8     libucrt:lcidtoname_downlevel.obj
 0002:00005df0       ??_C@_15LMKNDMHN@?$AAh?$AAy?$AA?$AA@ 000000014001bdf0     libucrt:lcidtoname_downlevel.obj
 0002:00005df8       ??_C@_15IJBHMCFL@?$AAa?$AAz?$AA?$AA@ 000000014001bdf8     libucrt:lcidtoname_downlevel.obj
 0002:00005e00       ??_C@_15EKOFJABL@?$AAe?$AAu?$AA?$AA@ 000000014001be00     libucrt:lcidtoname_downlevel.obj
 0002:00005e08       ??_C@_15BGHADCNK@?$AAm?$AAk?$AA?$AA@ 000000014001be08     libucrt:lcidtoname_downlevel.obj
 0002:00005e10       ??_C@_15JDNICKHM@?$AAa?$AAf?$AA?$AA@ 000000014001be10     libucrt:lcidtoname_downlevel.obj
 0002:00005e18       ??_C@_15KPJEDBKD@?$AAk?$AAa?$AA?$AA@ 000000014001be18     libucrt:lcidtoname_downlevel.obj
 0002:00005e20       ??_C@_15PDNFFFEO@?$AAf?$AAo?$AA?$AA@ 000000014001be20     libucrt:lcidtoname_downlevel.obj
 0002:00005e28       ??_C@_15OMLEGLOC@?$AAh?$AAi?$AA?$AA@ 000000014001be28     libucrt:lcidtoname_downlevel.obj
 0002:00005e30       ??_C@_15IDNNENKK@?$AAm?$AAs?$AA?$AA@ 000000014001be30     libucrt:lcidtoname_downlevel.obj
 0002:00005e38       ??_C@_15MACJNBMH@?$AAk?$AAk?$AA?$AA@ 000000014001be38     libucrt:lcidtoname_downlevel.obj
 0002:00005e40       ??_C@_15DKDJEOND@?$AAk?$AAy?$AA?$AA@ 000000014001be40     libucrt:lcidtoname_downlevel.obj
 0002:00005e48       ??_C@_15DFGDLJBG@?$AAs?$AAw?$AA?$AA@ 000000014001be48     libucrt:lcidtoname_downlevel.obj
 0002:00005e50       ??_C@_15BBFAICNG@?$AAu?$AAz?$AA?$AA@ 000000014001be50     libucrt:lcidtoname_downlevel.obj
 0002:00005e58       ??_C@_15DKNDCGEA@?$AAt?$AAt?$AA?$AA@ 000000014001be58     libucrt:lcidtoname_downlevel.obj
 0002:00005e60       ??_C@_15MGIFMDPL@?$AAp?$AAa?$AA?$AA@ 000000014001be60     libucrt:lcidtoname_downlevel.obj
 0002:00005e68       ??_C@_15HCNDBBA@?$AAg?$AAu?$AA?$AA@ 000000014001be68     libucrt:lcidtoname_downlevel.obj
 0002:00005e70       ??_C@_15FNBEIBON@?$AAt?$AAa?$AA?$AA@ 000000014001be70     libucrt:lcidtoname_downlevel.obj
 0002:00005e78       ??_C@_15NCHGBGLK@?$AAt?$AAe?$AA?$AA@ 000000014001be78     libucrt:lcidtoname_downlevel.obj
 0002:00005e80       ??_C@_15PHPHCBPF@?$AAk?$AAn?$AA?$AA@ 000000014001be80     libucrt:lcidtoname_downlevel.obj
 0002:00005e88       ??_C@_15DLGBCKMP@?$AAm?$AAr?$AA?$AA@ 000000014001be88     libucrt:lcidtoname_downlevel.obj
 0002:00005e90       ??_C@_15EABBLBFF@?$AAs?$AAa?$AA?$AA@ 000000014001be90     libucrt:lcidtoname_downlevel.obj
 0002:00005e98       ??_C@_15CBKOMCOI@?$AAm?$AAn?$AA?$AA@ 000000014001be98     libucrt:lcidtoname_downlevel.obj
 0002:00005ea0       ??_C@_15CKDMCJAF@?$AAg?$AAl?$AA?$AA@ 000000014001bea0     libucrt:lcidtoname_downlevel.obj
 0002:00005ea8       ??_C@_17CNJFBPG@?$AAk?$AAo?$AAk?$AA?$AA@ 000000014001bea8     libucrt:lcidtoname_downlevel.obj
 0002:00005eb0       ??_C@_17FFBJICPL@?$AAs?$AAy?$AAr?$AA?$AA@ 000000014001beb0     libucrt:lcidtoname_downlevel.obj
 0002:00005eb8       ??_C@_17KPNDCPAF@?$AAd?$AAi?$AAv?$AA?$AA@ 000000014001beb8     libucrt:lcidtoname_downlevel.obj
 0002:00005ec0       ??_C@_1M@OKAHONE@?$AAa?$AAr?$AA?9?$AAS?$AAA?$AA?$AA@ 000000014001bec0     libucrt:lcidtoname_downlevel.obj
 0002:00005ed0       ??_C@_1M@FFFIGIGK@?$AAb?$AAg?$AA?9?$AAB?$AAG?$AA?$AA@ 000000014001bed0     libucrt:lcidtoname_downlevel.obj
 0002:00005ee0       ?large_power_data@?1??multiply_by_power_of_ten@__crt_strtox@@YA_NAEAUbig_integer@2@I@Z@4QBIB 000000014001bee0     libucrt:cfout.obj
 0002:000067f0       ?large_power_indices@?1??multiply_by_power_of_ten@__crt_strtox@@YA_NAEAUbig_integer@2@I@Z@4QBUunpack_index@?1??12@YA_N0I@Z@B 000000014001c7f0     libucrt:cfout.obj
 0002:00006888       ?small_powers_of_ten@?1??multiply_by_power_of_ten@__crt_strtox@@YA_NAEAUbig_integer@2@I@Z@4QBIB 000000014001c888     libucrt:cfout.obj
 0002:000068ac       ??_C@_01GBGANLPD@0?$AA@    000000014001c8ac     libucrt:cfout.obj
 0002:000068b0       ??_C@_05DNEBIAHO@1?$CDINF?$AA@ 000000014001c8b0     libucrt:cfout.obj
 0002:000068b8       ??_C@_06IMKFLFPG@1?$CDQNAN?$AA@ 000000014001c8b8     libucrt:cfout.obj
 0002:000068c0       ??_C@_06PGGFOGJG@1?$CDSNAN?$AA@ 000000014001c8c0     libucrt:cfout.obj
 0002:000068c8       ??_C@_05PHHOCPM@1?$CDIND?$AA@ 000000014001c8c8     libucrt:cfout.obj
 0002:000068d0       __real@3ff0000000000000    000000014001c8d0     libucrt:ceil.obj
 0002:00006b30       ??_C@_1BA@BALFACEM@?$AAC?$AAO?$AAN?$AAO?$AAU?$AAT?$AA$?$AA?$AA@ 000000014001cb30     libucrt:initcon.obj
 0002:00006b40       __log10_256_lead           000000014001cb40     libucrt:log10_256_lead_tail_table.obj
 0002:00007350       __log10_256_tail           000000014001d350     libucrt:log10_256_lead_tail_table.obj
 0002:00007b60       __log_F_inv_qword          000000014001db60     libucrt:log_f_inv_qword_table.obj
 0002:00008370       ??_C@_05HGHHAHAP@log10?$AA@ 000000014001e370     libucrt:log_special.obj
 0002:00008390       ??_C@_0M@HFFOIJBL@Fatal?5Error?$AA@ 000000014001e390     SDL2main:SDL_windows_main.obj
 0002:000083a0       ??_C@_0BJ@HFNMHALN@Out?5of?5memory?5?9?5aborting?$AA@ 000000014001e3a0     SDL2main:SDL_windows_main.obj
 0002:000083bc       ??_C@_05EGJIMALK@UTF?98?$AA@ 000000014001e3bc     SDL2main:SDL_windows_main.obj
 0002:000083c8       ??_C@_08NBDJLNFA@UTF?916LE?$AA@ 000000014001e3c8     SDL2main:SDL_windows_main.obj
 0002:00008440       _load_config_used          000000014001e440     LIBCMT:loadcfg.obj
 0002:000084d8       ??_R4exception@std@@6B@    000000014001e4d8     libcpmt:xthrow.obj
 0002:00008500       ??_R3exception@std@@8      000000014001e500     libcpmt:xthrow.obj
 0002:00008518       ??_R2exception@std@@8      000000014001e518     libcpmt:xthrow.obj
 0002:00008528       ??_R1A@?0A@EA@exception@std@@8 000000014001e528     libcpmt:xthrow.obj
 0002:00008550       ??_R4bad_alloc@std@@6B@    000000014001e550     libcpmt:xthrow.obj
 0002:00008578       ??_R3bad_alloc@std@@8      000000014001e578     libcpmt:xthrow.obj
 0002:00008590       ??_R2bad_alloc@std@@8      000000014001e590     libcpmt:xthrow.obj
 0002:000085a8       ??_R1A@?0A@EA@bad_alloc@std@@8 000000014001e5a8     libcpmt:xthrow.obj
 0002:000085d0       ??_R4logic_error@std@@6B@  000000014001e5d0     libcpmt:xthrow.obj
 0002:000085f8       ??_R3logic_error@std@@8    000000014001e5f8     libcpmt:xthrow.obj
 0002:00008610       ??_R2logic_error@std@@8    000000014001e610     libcpmt:xthrow.obj
 0002:00008628       ??_R1A@?0A@EA@logic_error@std@@8 000000014001e628     libcpmt:xthrow.obj
 0002:00008650       ??_R4length_error@std@@6B@ 000000014001e650     libcpmt:xthrow.obj
 0002:00008678       ??_R3length_error@std@@8   000000014001e678     libcpmt:xthrow.obj
 0002:00008690       ??_R2length_error@std@@8   000000014001e690     libcpmt:xthrow.obj
 0002:000086b0       ??_R1A@?0A@EA@length_error@std@@8 000000014001e6b0     libcpmt:xthrow.obj
 0002:000086d8       ??_R4out_of_range@std@@6B@ 000000014001e6d8     libcpmt:xthrow.obj
 0002:00008700       ??_R3out_of_range@std@@8   000000014001e700     libcpmt:xthrow.obj
 0002:00008718       ??_R2out_of_range@std@@8   000000014001e718     libcpmt:xthrow.obj
 0002:00008738       ??_R1A@?0A@EA@out_of_range@std@@8 000000014001e738     libcpmt:xthrow.obj
 0002:00008760       ??_R4type_info@@6B@        000000014001e760     LIBCMT:std_type_info_static.obj
 0002:00008788       ??_R3type_info@@8          000000014001e788     LIBCMT:std_type_info_static.obj
 0002:000087a0       ??_R2type_info@@8          000000014001e7a0     LIBCMT:std_type_info_static.obj
 0002:000087b0       ??_R1A@?0A@EA@type_info@@8 000000014001e7b0     LIBCMT:std_type_info_static.obj
 0002:000087d8       ??_R4bad_array_new_length@std@@6B@ 000000014001e7d8     LIBCMT:throw_bad_alloc.obj
 0002:00008800       ??_R3bad_array_new_length@std@@8 000000014001e800     LIBCMT:throw_bad_alloc.obj
 0002:00008818       ??_R2bad_array_new_length@std@@8 000000014001e818     LIBCMT:throw_bad_alloc.obj
 0002:00008838       ??_R1A@?0A@EA@bad_array_new_length@std@@8 000000014001e838     LIBCMT:throw_bad_alloc.obj
 0002:00008860       ??_R4bad_exception@std@@6B@ 000000014001e860     libvcruntime:frame.obj
 0002:00008888       ??_R3bad_exception@std@@8  000000014001e888     libvcruntime:frame.obj
 0002:000088a0       ??_R2bad_exception@std@@8  000000014001e8a0     libvcruntime:frame.obj
 0002:000088b8       ??_R1A@?0A@EA@bad_exception@std@@8 000000014001e8b8     libvcruntime:frame.obj
 0002:000088e0       ?_TraceLoggingMetadata@?1??_TlgWrite@__vcrt_trace_logging_provider@@YAJPEBU_TlgProvider_t@2@PEFBXPEBU_GUID@@2IPEAU_EVENT_DATA_DESCRIPTOR@@@Z@4U_TraceLoggingMetadata_t@2@B 000000014001e8e0     libvcruntime:telemetry.obj
 0002:00008993       ?_TraceLoggingMetadataEnd@?1??_TlgWrite@__vcrt_trace_logging_provider@@YAJPEBU_TlgProvider_t@2@PEFBXPEBU_GUID@@2IPEAU_EVENT_DATA_DESCRIPTOR@@@Z@4EB 000000014001e993     libvcruntime:telemetry.obj
 0002:00008d68       __rtc_iaa                  000000014001ed68     LIBCMT:_initsect_.obj
 0002:00008d70       __rtc_izz                  000000014001ed70     LIBCMT:_initsect_.obj
 0002:00008d78       __rtc_taa                  000000014001ed78     LIBCMT:_initsect_.obj
 0002:00008d80       __rtc_tzz                  000000014001ed80     LIBCMT:_initsect_.obj
 0002:00009f18       _TI2?AVbad_alloc@std@@     000000014001ff18     libcpmt:xthrow.obj
 0002:00009f38       _CTA2?AVbad_alloc@std@@    000000014001ff38     libcpmt:xthrow.obj
 0002:00009f50       _CT??_R0?AVbad_alloc@std@@@8??0bad_alloc@std@@QEAA@AEBV01@@Z24 000000014001ff50     libcpmt:xthrow.obj
 0002:00009f78       _CT??_R0?AVexception@std@@@8??0exception@std@@QEAA@AEBV01@@Z24 000000014001ff78     libcpmt:xthrow.obj
 0002:00009fa0       _CT??_R0?AVlogic_error@std@@@8??0logic_error@std@@QEAA@AEBV01@@Z24 000000014001ffa0     libcpmt:xthrow.obj
 0002:00009fc8       _TI3?AVlength_error@std@@  000000014001ffc8     libcpmt:xthrow.obj
 0002:00009fe8       _CTA3?AVlength_error@std@@ 000000014001ffe8     libcpmt:xthrow.obj
 0002:0000a008       _CT??_R0?AVlength_error@std@@@8??0length_error@std@@QEAA@AEBV01@@Z24 0000000140020008     libcpmt:xthrow.obj
 0002:0000a030       _TI3?AVout_of_range@std@@  0000000140020030     libcpmt:xthrow.obj
 0002:0000a050       _CTA3?AVout_of_range@std@@ 0000000140020050     libcpmt:xthrow.obj
 0002:0000a070       _CT??_R0?AVout_of_range@std@@@8??0out_of_range@std@@QEAA@AEBV01@@Z24 0000000140020070     libcpmt:xthrow.obj
 0002:0000a098       _TI3?AVbad_array_new_length@std@@ 0000000140020098     LIBCMT:throw_bad_alloc.obj
 0002:0000a0b8       _CTA3?AVbad_array_new_length@std@@ 00000001400200b8     LIBCMT:throw_bad_alloc.obj
 0002:0000a0d8       _CT??_R0?AVbad_array_new_length@std@@@8??0bad_array_new_length@std@@QEAA@AEBV01@@Z24 00000001400200d8     LIBCMT:throw_bad_alloc.obj
 0002:0000a100       _TI2?AVbad_exception@std@@ 0000000140020100     libvcruntime:frame.obj
 0002:0000a120       _CTA2?AVbad_exception@std@@ 0000000140020120     libvcruntime:frame.obj
 0002:0000a138       _CT??_R0?AVbad_exception@std@@@8??0bad_exception@std@@QEAA@AEBV01@@Z24 0000000140020138     libvcruntime:frame.obj
 0002:0000a15c       __IMPORT_DESCRIPTOR_SDL2   000000014002015c     SDL2:SDL2.dll
 0002:0000a170       __IMPORT_DESCRIPTOR_SDL2_image 0000000140020170     SDL2_image:SDL2_image.dll
 0002:0000a184       __IMPORT_DESCRIPTOR_SDL2_ttf 0000000140020184     SDL2_ttf:SDL2_ttf.dll
 0002:0000a198       __IMPORT_DESCRIPTOR_KERNEL32 0000000140020198     kernel32:KERNEL32.dll
 0002:0000a1ac       __IMPORT_DESCRIPTOR_ADVAPI32 00000001400201ac     advapi32:ADVAPI32.dll
 0002:0000a1c0       __NULL_IMPORT_DESCRIPTOR   00000001400201c0     SDL2:SDL2.dll
 0003:00000000       __scrt_native_dllmain_reason 0000000140021000     LIBCMT:utility.obj
 0003:00000010       __security_cookie          0000000140021010     LIBCMT:gs_cookie.obj
 0003:00000018       __security_cookie_complement 0000000140021018     LIBCMT:gs_cookie.obj
 0003:00000020       _fltused                   0000000140021020     LIBCMT:fltused.obj
 0003:00000028       __isa_available            0000000140021028     LIBCMT:_cpu_disp_.obj
 0003:0000002c       __isa_enabled              000000014002102c     LIBCMT:_cpu_disp_.obj
 0003:00000030       __memcpy_nt_iters          0000000140021030     LIBCMT:_cpu_disp_.obj
 0003:00000038       __scrt_default_matherr     0000000140021038     LIBCMT:matherr.obj
 0003:000000a0       _iob                       00000001400210a0     libucrt:_file.obj
 0003:000001a8       __abort_behavior           00000001400211a8     libucrt:abort.obj
 0003:000001c0       __badioinfo                00000001400211c0     libucrt:ioinit.obj
 0003:00000200       __acrt_initial_locale_data 0000000140021200     libucrt:nlsdata.obj
 0003:00000358       __acrt_initial_locale_pointers 0000000140021358     libucrt:nlsdata.obj
 0003:00000368       __acrt_wide_c_locale_string 0000000140021368     libucrt:nlsdata.obj
 0003:00000370       __acrt_initial_multibyte_data 0000000140021370     libucrt:mbctype.obj
 0003:000008b0       __acrt_lconv_c             00000001400218b0     libucrt:localeconv.obj
 0003:00000948       __acrt_lconv_static_decimal 0000000140021948     libucrt:localeconv.obj
 0003:0000094c       __acrt_lconv_static_W_decimal 000000014002194c     libucrt:localeconv.obj
 0003:00000950       __globallocalestatus       0000000140021950     libucrt:glstatus.obj
 0003:00000980       ??_R0?AVbad_alloc@std@@@8  0000000140021980     libcpmt:xthrow.obj
 0003:000009a8       ??_R0?AVexception@std@@@8  00000001400219a8     libcpmt:xthrow.obj
 0003:000009d0       ??_R0?AVlogic_error@std@@@8 00000001400219d0     libcpmt:xthrow.obj
 0003:000009f8       ??_R0?AVlength_error@std@@@8 00000001400219f8     libcpmt:xthrow.obj
 0003:00000a20       ??_R0?AVout_of_range@std@@@8 0000000140021a20     libcpmt:xthrow.obj
 0003:00000a48       ??_R0?AVtype_info@@@8      0000000140021a48     LIBCMT:std_type_info_static.obj
 0003:00000a68       ??_R0?AVbad_array_new_length@std@@@8 0000000140021a68     LIBCMT:throw_bad_alloc.obj
 0003:00000a98       ??_R0?AVbad_exception@std@@@8 0000000140021a98     libvcruntime:frame.obj
 0003:00000ac0       ?screen@@3PEAUSDL_Window@@EA 0000000140021ac0     main.obj
 0003:00000ac8       ?sdlRenderer@@3PEAUSDL_Renderer@@EA 0000000140021ac8     main.obj
 0003:00000ad0       ?gFont@@3PEAU_TTF_Font@@EA 0000000140021ad0     main.obj
 0003:00000ae0       ?gSpriteClips@@3PAUSDL_Rect@@A 0000000140021ae0     main.obj
 0003:00000b20       ?gBackgroundTexture@@3VLTexture@@A 0000000140021b20     main.obj
 0003:00000b30       ?gTexture@@3VLTexture@@A   0000000140021b30     main.obj
 0003:00000b40       ?gTextTexture@@3VLTexture@@A 0000000140021b40     main.obj
 0003:00000b50       ?_OptionsStorage@?1??__local_stdio_printf_options@@9@4_KA 0000000140021b50     main.obj
 0003:00000b58       __scrt_current_native_startup_state 0000000140021b58     LIBCMT:utility.obj
 0003:00000b60       __scrt_native_startup_lock 0000000140021b60     LIBCMT:utility.obj
 0003:00000b9c       __favor                    0000000140021b9c     LIBCMT:_cpu_disp_.obj
 0003:00000ba0       __scrt_debugger_hook_flag  0000000140021ba0     LIBCMT:utility_desktop.obj
 0003:00001120       ?__type_info_root_node@@3U__type_info_node@@A 0000000140022120     LIBCMT:tncleanup.obj
 0003:00001130       ?_OptionsStorage@?1??__local_stdio_scanf_options@@9@4_KA 0000000140022130     LIBCMT:default_local_stdio_options.obj
 0003:000011b8       ?g_OutOfMemoryExceptionCallback@@3P6APEAXXZEA 00000001400221b8     libvcruntime:frame.obj
 0003:00001258       __pPurecall                0000000140022258     libvcruntime:purevirt_data.obj
 0003:00001260       ?pArgList@UnDecorator@@0PEAVReplicator@@EA 0000000140022260     libvcruntime:undname.obj
 0003:00001268       ?pZNameList@UnDecorator@@0PEAVReplicator@@EA 0000000140022268     libvcruntime:undname.obj
 0003:00001270       ?pTemplateArgList@UnDecorator@@0PEAVReplicator@@EA 0000000140022270     libvcruntime:undname.obj
 0003:00001278       ?gName@UnDecorator@@0PEBDEB 0000000140022278     libvcruntime:undname.obj
 0003:00001280       ?name@UnDecorator@@0PEBDEB 0000000140022280     libvcruntime:undname.obj
 0003:00001288       ?outputString@UnDecorator@@0PEADEA 0000000140022288     libvcruntime:undname.obj
 0003:00001290       ?maxStringLength@UnDecorator@@0HA 0000000140022290     libvcruntime:undname.obj
 0003:00001294       ?disableFlags@UnDecorator@@0KA 0000000140022294     libvcruntime:undname.obj
 0003:00001298       ?fExplicitTemplateParams@UnDecorator@@0_NA 0000000140022298     libvcruntime:undname.obj
 0003:00001299       ?fGetTemplateArgumentList@UnDecorator@@0_NA 0000000140022299     libvcruntime:undname.obj
 0003:000012a0       ?m_pGetParameter@UnDecorator@@0P6APEADJ@ZEA 00000001400222a0     libvcruntime:undname.obj
 0003:000012d8       _nstream                   00000001400222d8     libucrt:_file.obj
 0003:000012e0       __piob                     00000001400222e0     libucrt:_file.obj
 0003:000012e8       _cflush                    00000001400222e8     libucrt:_file.obj
 0003:00001308       ?c_exit_complete@?1???R<lambda_6e4b09c48022b2350581041d5f6b0c4c>@@QEBA@XZ@4_NA 0000000140022308     libucrt:exit.obj
 0003:00001310       _environ_table             0000000140022310     libucrt:environment_initialization.obj
 0003:00001318       _wenviron_table            0000000140022318     libucrt:environment_initialization.obj
 0003:00001320       __dcrt_initial_wide_environment 0000000140022320     libucrt:environment_initialization.obj
 0003:00001328       __dcrt_initial_narrow_environment 0000000140022328     libucrt:environment_initialization.obj
 0003:00001330       __acrt_atexit_table        0000000140022330     libucrt:onexit.obj
 0003:00001348       __acrt_at_quick_exit_table 0000000140022348     libucrt:onexit.obj
 0003:00001478       __argc                     0000000140022478     libucrt:argv_data.obj
 0003:00001480       __argv                     0000000140022480     libucrt:argv_data.obj
 0003:00001488       __wargv                    0000000140022488     libucrt:argv_data.obj
 0003:00001490       _acmdln                    0000000140022490     libucrt:argv_data.obj
 0003:00001498       _wcmdln                    0000000140022498     libucrt:argv_data.obj
 0003:000014a0       _pgmptr                    00000001400224a0     libucrt:argv_data.obj
 0003:000014a8       __acrt_locale_changed_data 00000001400224a8     libucrt:wsetlocale.obj
 0003:000014b0       _commode                   00000001400224b0     libucrt:ncommode.obj
 0003:00001670       __pioinfo                  0000000140022670     libucrt:ioinit.obj
 0003:00001a70       _nhandle                   0000000140022a70     libucrt:ioinit.obj
 0003:00001a80       __acrt_stdout_buffer       0000000140022a80     libucrt:_sftbuf.obj
 0003:00001a88       __acrt_stderr_buffer       0000000140022a88     libucrt:_sftbuf.obj
 0003:00001a90       __acrt_current_locale_data 0000000140022a90     libucrt:nlsdata.obj
 0003:00001cd8       __acrt_current_multibyte_data 0000000140022cd8     libucrt:mbctype.obj
 0003:00001ce0       _mbctype                   0000000140022ce0     libucrt:mbctype.obj
 0003:00001ce8       _mbcasemap                 0000000140022ce8     libucrt:mbctype.obj
 0003:00001cf8       __acrt_heap                0000000140022cf8     libucrt:heap_handle.obj
 0003:00001d20       _fmode                     0000000140022d20     libucrt:txtmode.obj
 0003:00001d24       __acrt_lconv_static_null   0000000140022d24     libucrt:localeconv.obj
 0003:00001d28       __acrt_lconv_static_W_null 0000000140022d28     libucrt:localeconv.obj
 0003:00001d2c       __fma3_is_available        0000000140022d2c     libucrt:fma3_available.obj
 0003:00001d30       __use_fma3_lib             0000000140022d30     libucrt:fma3_available.obj
 0003:00001d38       __dyn_tls_dtor_callback    0000000140022d38     <common>
 0003:00001d40       __dyn_tls_init_callback    0000000140022d40     <common>
 0003:00001d48       __scrt_ucrt_dll_is_in_use  0000000140022d48     <common>

 entry point at        0001:00002a2c

 Static symbols

 0000:fffd9000       .debug$S                   0000000140000000     kernel32:KERNEL32.dll
 0000:fffd9000       .debug$S                   0000000140000000     SDL2:SDL2.dll
 0000:fffd9000       .debug$S                   0000000140000000     SDL2:SDL2.dll
 0000:fffd9000       .debug$S                   0000000140000000     SDL2:SDL2.dll
 0000:fffd9000       .debug$S                   0000000140000000     SDL2:SDL2.dll
 0000:fffd9000       .debug$S                   0000000140000000     SDL2:SDL2.dll
 0000:fffd9000       .debug$S                   0000000140000000     SDL2:SDL2.dll
 0000:fffd9000       .debug$S                   0000000140000000     SDL2:SDL2.dll
 0000:fffd9000       .debug$S                   0000000140000000     SDL2:SDL2.dll
 0000:fffd9000       .debug$S                   0000000140000000     SDL2:SDL2.dll
 0000:fffd9000       .debug$S                   0000000140000000     SDL2:SDL2.dll
 0000:fffd9000       .debug$S                   0000000140000000     SDL2:SDL2.dll
 0000:fffd9000       .debug$S                   0000000140000000     SDL2:SDL2.dll
 0000:fffd9000       .debug$S                   0000000140000000     SDL2:SDL2.dll
 0000:fffd9000       .debug$S                   0000000140000000     SDL2:SDL2.dll
 0000:fffd9000       .debug$S                   0000000140000000     SDL2:SDL2.dll
 0000:fffd9000       .debug$S                   0000000140000000     SDL2:SDL2.dll
 0000:fffd9000       .debug$S                   0000000140000000     SDL2:SDL2.dll
 0000:fffd9000       .debug$S                   0000000140000000     SDL2:SDL2.dll
 0000:fffd9000       .debug$S                   0000000140000000     SDL2:SDL2.dll
 0000:fffd9000       .debug$S                   0000000140000000     SDL2:SDL2.dll
 0000:fffd9000       .debug$S                   0000000140000000     SDL2:SDL2.dll
 0000:fffd9000       .debug$S                   0000000140000000     SDL2:SDL2.dll
 0000:fffd9000       .debug$S                   0000000140000000     SDL2:SDL2.dll
 0000:fffd9000       .debug$S                   0000000140000000     SDL2:SDL2.dll
 0000:fffd9000       .debug$S                   0000000140000000     SDL2:SDL2.dll
 0000:fffd9000       .debug$S                   0000000140000000     SDL2_image:SDL2_image.dll
 0000:fffd9000       .debug$S                   0000000140000000     SDL2_image:SDL2_image.dll
 0000:fffd9000       .debug$S                   0000000140000000     SDL2_image:SDL2_image.dll
 0000:fffd9000       .debug$S                   0000000140000000     SDL2_image:SDL2_image.dll
 0000:fffd9000       .debug$S                   0000000140000000     SDL2_ttf:SDL2_ttf.dll
 0000:fffd9000       .debug$S                   0000000140000000     SDL2_ttf:SDL2_ttf.dll
 0000:fffd9000       .debug$S                   0000000140000000     SDL2_ttf:SDL2_ttf.dll
 0000:fffd9000       .debug$S                   0000000140000000     SDL2_ttf:SDL2_ttf.dll
 0000:fffd9000       .debug$S                   0000000140000000     SDL2_ttf:SDL2_ttf.dll
 0000:fffd9000       .debug$S                   0000000140000000     kernel32:KERNEL32.dll
 0000:fffd9000       .debug$S                   0000000140000000     kernel32:KERNEL32.dll
 0000:fffd9000       .debug$S                   0000000140000000     kernel32:KERNEL32.dll
 0000:fffd9000       .debug$S                   0000000140000000     kernel32:KERNEL32.dll
 0000:fffd9000       .debug$S                   0000000140000000     kernel32:KERNEL32.dll
 0000:fffd9000       .debug$S                   0000000140000000     kernel32:KERNEL32.dll
 0000:fffd9000       .debug$S                   0000000140000000     advapi32:ADVAPI32.dll
 0000:fffd9000       .debug$S                   0000000140000000     kernel32:KERNEL32.dll
 0000:fffd9000       .debug$S                   0000000140000000     kernel32:KERNEL32.dll
 0000:fffd9000       .debug$S                   0000000140000000     kernel32:KERNEL32.dll
 0000:fffd9000       .debug$S                   0000000140000000     kernel32:KERNEL32.dll
 0000:fffd9000       .debug$S                   0000000140000000     kernel32:KERNEL32.dll
 0000:fffd9000       .debug$S                   0000000140000000     kernel32:KERNEL32.dll
 0000:fffd9000       .debug$S                   0000000140000000     kernel32:KERNEL32.dll
 0000:fffd9000       .debug$S                   0000000140000000     kernel32:KERNEL32.dll
 0000:fffd9000       .debug$S                   0000000140000000     kernel32:KERNEL32.dll
 0000:fffd9000       .debug$S                   0000000140000000     kernel32:KERNEL32.dll
 0000:fffd9000       .debug$S                   0000000140000000     kernel32:KERNEL32.dll
 0000:fffd9000       .debug$S                   0000000140000000     kernel32:KERNEL32.dll
 0000:fffd9000       .debug$S                   0000000140000000     kernel32:KERNEL32.dll
 0000:fffd9000       .debug$S                   0000000140000000     kernel32:KERNEL32.dll
 0000:fffd9000       .debug$S                   0000000140000000     kernel32:KERNEL32.dll
 0000:fffd9000       .debug$S                   0000000140000000     kernel32:KERNEL32.dll
 0000:fffd9000       .debug$S                   0000000140000000     kernel32:KERNEL32.dll
 0000:fffd9000       .debug$S                   0000000140000000     kernel32:KERNEL32.dll
 0000:fffd9000       .debug$S                   0000000140000000     kernel32:KERNEL32.dll
 0000:fffd9000       .debug$S                   0000000140000000     kernel32:KERNEL32.dll
 0000:fffd9000       .debug$S                   0000000140000000     kernel32:KERNEL32.dll
 0000:fffd9000       .debug$S                   0000000140000000     kernel32:KERNEL32.dll
 0000:fffd9000       .debug$S                   0000000140000000     kernel32:KERNEL32.dll
 0000:fffd9000       .debug$S                   0000000140000000     kernel32:KERNEL32.dll
 0000:fffd9000       .debug$S                   0000000140000000     kernel32:KERNEL32.dll
 0000:fffd9000       .debug$S                   0000000140000000     kernel32:KERNEL32.dll
 0000:fffd9000       .debug$S                   0000000140000000     kernel32:KERNEL32.dll
 0000:fffd9000       .debug$S                   0000000140000000     kernel32:KERNEL32.dll
 0000:fffd9000       .debug$S                   0000000140000000     kernel32:KERNEL32.dll
 0000:fffd9000       .debug$S                   0000000140000000     kernel32:KERNEL32.dll
 0000:fffd9000       .debug$S                   0000000140000000     kernel32:KERNEL32.dll
 0000:fffd9000       .debug$S                   0000000140000000     kernel32:KERNEL32.dll
 0000:fffd9000       .debug$S                   0000000140000000     kernel32:KERNEL32.dll
 0000:fffd9000       .debug$S                   0000000140000000     kernel32:KERNEL32.dll
 0000:fffd9000       .debug$S                   0000000140000000     kernel32:KERNEL32.dll
 0000:fffd9000       .debug$S                   0000000140000000     kernel32:KERNEL32.dll
 0000:fffd9000       .debug$S                   0000000140000000     kernel32:KERNEL32.dll
 0000:fffd9000       .debug$S                   0000000140000000     kernel32:KERNEL32.dll
 0000:fffd9000       .debug$S                   0000000140000000     kernel32:KERNEL32.dll
 0000:fffd9000       .debug$S                   0000000140000000     kernel32:KERNEL32.dll
 0000:fffd9000       .debug$S                   0000000140000000     kernel32:KERNEL32.dll
 0000:fffd9000       .debug$S                   0000000140000000     kernel32:KERNEL32.dll
 0000:fffd9000       .debug$S                   0000000140000000     kernel32:KERNEL32.dll
 0000:fffd9000       .debug$S                   0000000140000000     kernel32:KERNEL32.dll
 0000:fffd9000       .debug$S                   0000000140000000     kernel32:KERNEL32.dll
 0000:fffd9000       .debug$S                   0000000140000000     kernel32:KERNEL32.dll
 0000:fffd9000       .debug$S                   0000000140000000     kernel32:KERNEL32.dll
 0000:fffd9000       .debug$S                   0000000140000000     kernel32:KERNEL32.dll
 0000:fffd9000       .debug$S                   0000000140000000     kernel32:KERNEL32.dll
 0000:fffd9000       .debug$S                   0000000140000000     kernel32:KERNEL32.dll
 0000:fffd9000       .debug$S                   0000000140000000     kernel32:KERNEL32.dll
 0000:fffd9000       .debug$S                   0000000140000000     kernel32:KERNEL32.dll
 0000:fffd9000       .debug$S                   0000000140000000     kernel32:KERNEL32.dll
 0000:fffd9000       .debug$S                   0000000140000000     kernel32:KERNEL32.dll
 0000:fffd9000       .debug$S                   0000000140000000     kernel32:KERNEL32.dll
 0000:fffd9000       .debug$S                   0000000140000000     SDL2:SDL2.dll
 0000:fffd9000       .debug$S                   0000000140000000     kernel32:KERNEL32.dll
 0000:fffd9000       .debug$S                   0000000140000000     kernel32:KERNEL32.dll
 0000:fffd9000       .debug$S                   0000000140000000     kernel32:KERNEL32.dll
 0000:fffd9000       .debug$S                   0000000140000000     kernel32:KERNEL32.dll
 0000:fffd9000       .debug$S                   0000000140000000     kernel32:KERNEL32.dll
 0000:fffd9000       .debug$S                   0000000140000000     kernel32:KERNEL32.dll
 0000:fffd9000       .debug$S                   0000000140000000     kernel32:KERNEL32.dll
 0000:fffd9000       .debug$S                   0000000140000000     kernel32:KERNEL32.dll
 0000:fffd9000       .debug$S                   0000000140000000     kernel32:KERNEL32.dll
 0000:fffd9000       .debug$S                   0000000140000000     kernel32:KERNEL32.dll
 0000:fffd9000       .debug$S                   0000000140000000     kernel32:KERNEL32.dll
 0000:fffd9000       .debug$S                   0000000140000000     kernel32:KERNEL32.dll
 0000:fffd9000       .debug$S                   0000000140000000     kernel32:KERNEL32.dll
 0000:fffd9000       .debug$S                   0000000140000000     kernel32:KERNEL32.dll
 0000:fffd9000       .debug$S                   0000000140000000     kernel32:KERNEL32.dll
 0000:fffd9000       .debug$S                   0000000140000000     kernel32:KERNEL32.dll
 0000:fffd9000       .debug$S                   0000000140000000     kernel32:KERNEL32.dll
 0000:fffd9000       .debug$S                   0000000140000000     kernel32:KERNEL32.dll
 0000:fffd9000       .debug$S                   0000000140000000     kernel32:KERNEL32.dll
 0000:fffd9000       .debug$S                   0000000140000000     kernel32:KERNEL32.dll
 0000:fffd9000       .debug$S                   0000000140000000     kernel32:KERNEL32.dll
 0000:fffd9000       .debug$S                   0000000140000000     kernel32:KERNEL32.dll
 0000:fffd9000       .debug$S                   0000000140000000     kernel32:KERNEL32.dll
 0001:000001e0       ParseCommandLine           00000001400011e0 f   SDL2main:SDL_windows_main.obj
 0001:00000320       main_getcmdline            0000000140001320 f   SDL2main:SDL_windows_main.obj
 0001:000004a0       ??__EgBackgroundTexture@@YAXXZ 00000001400014a0 f   main.obj
 0001:000004d0       ??__EgTextTexture@@YAXXZ   00000001400014d0 f   main.obj
 0001:00000500       ??__EgTexture@@YAXXZ       0000000140001500 f   main.obj
 0001:00002790       $$000000                   0000000140003790     LIBCMT:_amdsecgs_.obj
 0001:000027c4       ?pre_c_initialization@@YAHXZ 00000001400037c4 f   LIBCMT:exe_main.obj
 0001:00002878       ?post_pgo_initialization@@YAHXZ 0000000140003878 f   LIBCMT:exe_main.obj
 0001:00002888       ?pre_cpp_initialization@@YAXXZ 0000000140003888 f   LIBCMT:exe_main.obj
 0001:000028a4       ?__scrt_common_main_seh@@YAHXZ 00000001400038a4 f   LIBCMT:exe_main.obj
 0001:00003074       capture_current_context    0000000140004074 f   LIBCMT:gs_report.obj
 0001:000030e4       capture_previous_context   00000001400040e4 f   LIBCMT:gs_report.obj
 0001:00003310       $$000000                   0000000140004310     libvcruntime:memcpy.obj
 0001:000033b7       MoveSmall                  00000001400043b7     libvcruntime:memcpy.obj
 0001:00004178       _TlgDefineProvider_annotation__Tlg_Microsoft_CRTProviderProv 0000000140005178 f   libvcruntime:telemetry.obj
 0001:000043e0       $$000000                   00000001400053e0     libvcruntime:memset.obj
 0001:000044cc       MsetTab                    00000001400054cc     libvcruntime:memset.obj
 0001:0000493c       ?CatchIt@@YAXPEAUEHExceptionRecord@@PEA_KPEAU_CONTEXT@@PEAU_xDISPATCHER_CONTEXT@@PEBU_s_FuncInfo@@PEBU_s_HandlerType@@PEBU_s_CatchableType@@PEBU_s_TryBlockMapEntry@@H1EE@Z 000000014000593c f   libvcruntime:frame.obj
 0001:00004a00       ?ExFilterRethrow@@YAHPEAU_EXCEPTION_POINTERS@@PEAUEHExceptionRecord@@PEAH@Z 0000000140005a00 f   libvcruntime:frame.obj
 0001:00004a88       ?FindHandler@@YAXPEAUEHExceptionRecord@@PEA_KPEAU_CONTEXT@@PEAU_xDISPATCHER_CONTEXT@@PEBU_s_FuncInfo@@EH1@Z 0000000140005a88 f   libvcruntime:frame.obj
 0001:00004f38       ?FindHandlerForForeignException@@YAXPEAUEHExceptionRecord@@PEA_KPEAU_CONTEXT@@PEAU_xDISPATCHER_CONTEXT@@PEBU_s_FuncInfo@@HH1@Z 0000000140005f38 f   libvcruntime:frame.obj
 0001:00005190       ?IsInExceptionSpec@@YAEPEAUEHExceptionRecord@@PEBU_s_ESTypeList@@@Z 0000000140006190 f   libvcruntime:frame.obj
 0001:00005d38       ?try_get_function@@YAPEAXW4function_id@?A0x61ce2399@@QEBDQEBW4module_id@2@2@Z 0000000140006d38 f   libvcruntime:winapi_downlevel.obj
 0001:00006370       $$000000                   0000000140007370     libvcruntime:_jmpuwind_.obj
 0001:000063f0       $$000000                   00000001400073f0     libvcruntime:handlers.obj
 0001:00006894       ??$?RV<lambda_74b93660f2d9eb3fb15c5de9eff9db7b>@@AEAV<lambda_32f117a32e8f8eb613cbf2ca819ed45e>@@V<lambda_7322894ee7c8a2d41153fedefeab09e3>@@@?$__crt_seh_guarded_call@H@@QEAAH$$QEAV<lambda_74b93660f2d9eb3fb15c5de9eff9db7b>@@AEAV<lambda_32f117a32e8f8eb613cbf2ca819ed45e>@@$$QEAV<lambda_7322894ee7c8a2d41153fedefeab09e3>@@@Z 0000000140007894 f   libucrt:output.obj
 0001:00006ba8       ??R<lambda_32f117a32e8f8eb613cbf2ca819ed45e>@@QEBAHXZ 0000000140007ba8 f   libucrt:output.obj
 0001:00008120       ??$?RV<lambda_d80eeec6fff315bfe5c115232f3240e3>@@AEAV<lambda_6e4b09c48022b2350581041d5f6b0c4c>@@V<lambda_2358e3775559c9db80273638284d5e45>@@@?$__crt_seh_guarded_call@X@@QEAAX$$QEAV<lambda_d80eeec6fff315bfe5c115232f3240e3>@@AEAV<lambda_6e4b09c48022b2350581041d5f6b0c4c>@@$$QEAV<lambda_2358e3775559c9db80273638284d5e45>@@@Z 0000000140009120 f   libucrt:exit.obj
 0001:00008158       ??R<lambda_6e4b09c48022b2350581041d5f6b0c4c>@@QEBA@XZ 0000000140009158 f   libucrt:exit.obj
 0001:00008230       ?atexit_exception_filter@@YAHK@Z 0000000140009230 f   libucrt:exit.obj
 0001:0000823c       ?common_exit@@YAXHW4_crt_exit_cleanup_mode@@W4_crt_exit_return_mode@@@Z 000000014000923c f   libucrt:exit.obj
 0001:000082f8       ?exit_or_terminate_process@@YAXI@Z 00000001400092f8 f   libucrt:exit.obj
 0001:00008344       ?try_cor_exit_process@@YAXI@Z 0000000140009344 f   libucrt:exit.obj
 0001:00008424       ??$common_initialize_environment_nolock@D@@YAHXZ 0000000140009424 f   libucrt:environment_initialization.obj
 0001:00008490       ??$create_environment@D@@YAQEAPEADQEAD@Z 0000000140009490 f   libucrt:environment_initialization.obj
 0001:0000859c       ??$free_environment@_W@@YAXQEAPEA_W@Z 000000014000959c f   libucrt:environment_initialization.obj
 0001:0000859c       ??$free_environment@D@@YAXQEAPEAD@Z 000000014000959c f   libucrt:environment_initialization.obj
 0001:000085e0       ??$initialize_environment_by_cloning_nolock@D@@YAHXZ 00000001400095e0 f   libucrt:environment_initialization.obj
 0001:000086b4       ??$uninitialize_environment_internal@D@@YAXAEAPEAPEAD@Z 00000001400096b4 f   libucrt:environment_initialization.obj
 0001:000086d0       ??$uninitialize_environment_internal@_W@@YAXAEAPEAPEA_W@Z 00000001400096d0 f   libucrt:environment_initialization.obj
 0001:000087b8       ??$?RV<lambda_7777bce6b2f8c936911f934f8298dc43>@@AEAV<lambda_f03950bc5685219e0bcd2087efbe011e>@@V<lambda_3883c3dff614d5e0c5f61bb1ac94921c>@@@?$__crt_seh_guarded_call@H@@QEAAH$$QEAV<lambda_7777bce6b2f8c936911f934f8298dc43>@@AEAV<lambda_f03950bc5685219e0bcd2087efbe011e>@@$$QEAV<lambda_3883c3dff614d5e0c5f61bb1ac94921c>@@@Z 00000001400097b8 f   libucrt:onexit.obj
 0001:000087f4       ??$?RV<lambda_8369fcb7c4df1e85de37618bd2b85f07>@@AEAV<lambda_a10e4b102d4a2c3aac6f4f48bbdf488f>@@V<lambda_5b7707bd6d7a0c4713179f36c7fd995d>@@@?$__crt_seh_guarded_call@H@@QEAAH$$QEAV<lambda_8369fcb7c4df1e85de37618bd2b85f07>@@AEAV<lambda_a10e4b102d4a2c3aac6f4f48bbdf488f>@@$$QEAV<lambda_5b7707bd6d7a0c4713179f36c7fd995d>@@@Z 00000001400097f4 f   libucrt:onexit.obj
 0001:00008830       ??R<lambda_a10e4b102d4a2c3aac6f4f48bbdf488f>@@QEBAHXZ 0000000140009830 f   libucrt:onexit.obj
 0001:000089f4       ??R<lambda_f03950bc5685219e0bcd2087efbe011e>@@QEBAHXZ 00000001400099f4 f   libucrt:onexit.obj
 0001:00008c14       initialize_global_variables 0000000140009c14 f   libucrt:initialization.obj
 0001:00008c28       initialize_c               0000000140009c28 f   libucrt:initialization.obj
 0001:00008c4c       uninitialize_environment   0000000140009c4c f   libucrt:initialization.obj
 0001:00008c5c       uninitialize_c             0000000140009c5c f   libucrt:initialization.obj
 0001:00008c5c       initialize_environment     0000000140009c5c f   libucrt:initialization.obj
 0001:00008c5c       uninitialize_global_state_isolation 0000000140009c5c f   libucrt:initialization.obj
 0001:00008c5c       initialize_global_state_isolation 0000000140009c5c f   libucrt:initialization.obj
 0001:00008c5c       report_memory_leaks        0000000140009c5c f   libucrt:initialization.obj
 0001:00008c60       initialize_pointers        0000000140009c60 f   libucrt:initialization.obj
 0001:00008cb4       uninitialize_vcruntime     0000000140009cb4 f   libucrt:initialization.obj
 0001:00008cbc       uninitialize_allocated_memory 0000000140009cbc f   libucrt:initialization.obj
 0001:00008cfc       uninitialize_allocated_io_buffers 0000000140009cfc f   libucrt:initialization.obj
 0001:00008e34       ??$parse_command_line@D@@YAXPEADPEAPEAD0PEA_K2@Z 0000000140009e34 f   libucrt:argv_parsing.obj
 0001:000092f4       ??$?RV<lambda_410d79af7f07d98d83a3f525b3859a53>@@AEAV<lambda_3e16ef9562a7dcce91392c22ab16ea36>@@V<lambda_38119f0e861e05405d8a144b9b982f0a>@@@?$__crt_seh_guarded_call@X@@QEAAX$$QEAV<lambda_410d79af7f07d98d83a3f525b3859a53>@@AEAV<lambda_3e16ef9562a7dcce91392c22ab16ea36>@@$$QEAV<lambda_38119f0e861e05405d8a144b9b982f0a>@@@Z 000000014000a2f4 f   libucrt:wsetlocale.obj
 0001:00009954       ??$?RV<lambda_0ae27a3a962d80f24befdcbee591983d>@@AEAV<lambda_8d0ee55de4b1038c4002e0adecdf1839>@@V<lambda_dc504788e8f1664fe9b84e20bfb512f2>@@@?$__crt_seh_guarded_call@X@@QEAAX$$QEAV<lambda_0ae27a3a962d80f24befdcbee591983d>@@AEAV<lambda_8d0ee55de4b1038c4002e0adecdf1839>@@$$QEAV<lambda_dc504788e8f1664fe9b84e20bfb512f2>@@@Z 000000014000a954 f   libucrt:per_thread_data.obj
 0001:00009994       ??$?RV<lambda_2d41944a1d46af3157314b8a01080d33>@@AEAV<lambda_8f455de75cd7d7f24b4096f044d8b9e6>@@V<lambda_aa500f224e6afead328df44964fe2772>@@@?$__crt_seh_guarded_call@X@@QEAAX$$QEAV<lambda_2d41944a1d46af3157314b8a01080d33>@@AEAV<lambda_8f455de75cd7d7f24b4096f044d8b9e6>@@$$QEAV<lambda_aa500f224e6afead328df44964fe2772>@@@Z 000000014000a994 f   libucrt:per_thread_data.obj
 0001:000099d4       ??$?RV<lambda_aa87e3671a710a21b5dc78c0bdf72e11>@@AEAV<lambda_92619d2358a28f41a33ba319515a20b9>@@V<lambda_6992ecaafeb10aed2b74cb1fae11a551>@@@?$__crt_seh_guarded_call@X@@QEAAX$$QEAV<lambda_aa87e3671a710a21b5dc78c0bdf72e11>@@AEAV<lambda_92619d2358a28f41a33ba319515a20b9>@@$$QEAV<lambda_6992ecaafeb10aed2b74cb1fae11a551>@@@Z 000000014000a9d4 f   libucrt:per_thread_data.obj
 0001:00009a1c       ??$?RV<lambda_f2e299630e499de9f9a165e60fcd3db5>@@AEAV<lambda_2ae9d31cdba2644fcbeaf08da7c24588>@@V<lambda_40d01ff24d0e7b3814fdbdcee8eab3c7>@@@?$__crt_seh_guarded_call@X@@QEAAX$$QEAV<lambda_f2e299630e499de9f9a165e60fcd3db5>@@AEAV<lambda_2ae9d31cdba2644fcbeaf08da7c24588>@@$$QEAV<lambda_40d01ff24d0e7b3814fdbdcee8eab3c7>@@@Z 000000014000aa1c f   libucrt:per_thread_data.obj
 0001:00009a7c       ?construct_ptd_array@@YAXQEAU__acrt_ptd@@@Z 000000014000aa7c f   libucrt:per_thread_data.obj
 0001:00009b4c       ?destroy_fls@@YAXPEAX@Z    000000014000ab4c f   libucrt:per_thread_data.obj
 0001:00009b6c       ?destroy_ptd_array@@YAXQEAU__acrt_ptd@@@Z 000000014000ab6c f   libucrt:per_thread_data.obj
 0001:00009c64       ?replace_current_thread_locale_nolock@@YAXQEAU__acrt_ptd@@QEAU__crt_locale_data@@@Z 000000014000ac64 f   libucrt:per_thread_data.obj
 0001:0000a048       ?try_get_function@@YAPEAXW4function_id@?A0x391cf84c@@QEBDQEBW4module_id@2@2@Z 000000014000b048 f   libucrt:winapi_thunks.obj
 0001:0000a748       ??$?RV<lambda_842d9ff0dc9ef11c61343bbaebe7f885>@@AEAV<lambda_c5860995281e5c4ce005b3de8f5874ee>@@V<lambda_d90129c13df834fdcbf8d2b88dafcf2d>@@@?$__crt_seh_guarded_call@X@@QEAAX$$QEAV<lambda_842d9ff0dc9ef11c61343bbaebe7f885>@@AEAV<lambda_c5860995281e5c4ce005b3de8f5874ee>@@$$QEAV<lambda_d90129c13df834fdcbf8d2b88dafcf2d>@@@Z 000000014000b748 f   libucrt:fflush.obj
 0001:0000a7e4       ??$?RV<lambda_886d6c58226a84441f68b9f2b8217b83>@@AEAV<lambda_ab61a845afdef5b7c387490eaf3616ee>@@V<lambda_f7f22ab5edc0698d5f6905b0d3f44752>@@@?$__crt_seh_guarded_call@X@@QEAAX$$QEAV<lambda_886d6c58226a84441f68b9f2b8217b83>@@AEAV<lambda_ab61a845afdef5b7c387490eaf3616ee>@@$$QEAV<lambda_f7f22ab5edc0698d5f6905b0d3f44752>@@@Z 000000014000b7e4 f   libucrt:fflush.obj
 0001:0000a8cc       ?common_flush_all@@YAH_N@Z 000000014000b8cc f   libucrt:fflush.obj
 0001:0000aa3c       ?initialize_inherited_file_handles_nolock@@YAXXZ 000000014000ba3c f   libucrt:ioinit.obj
 0001:0000ab28       ?initialize_stdio_handles_nolock@@YAXXZ 000000014000bb28 f   libucrt:ioinit.obj
 0001:0000ad14       ?internal_isupper_l@@YA_NHQEAU__crt_locale_pointers@@@Z 000000014000bd14 f   libucrt:tolower_toupper.obj
 0001:0000b54c       ?fp_format_a@@YAHQEBNPEAD_KQEAD2H_NIQEAU__crt_locale_pointers@@@Z 000000014000c54c f   libucrt:cvt.obj
 0001:0000b8a0       ?fp_format_e@@YAHQEBNQEAD_K12H_NIQEAU__crt_locale_pointers@@@Z 000000014000c8a0 f   libucrt:cvt.obj
 0001:0000b97c       ?fp_format_e_internal@@YAHQEAD_KH_NIQEAU_strflt@@2QEAU__crt_locale_pointers@@@Z 000000014000c97c f   libucrt:cvt.obj
 0001:0000bb50       ?fp_format_f_internal@@YAHQEAD_KHQEAU_strflt@@_NQEAU__crt_locale_pointers@@@Z 000000014000cb50 f   libucrt:cvt.obj
 0001:0000bc98       ?fp_format_g@@YAHQEBNQEAD_K12H_NIQEAU__crt_locale_pointers@@@Z 000000014000cc98 f   libucrt:cvt.obj
 0001:0000bdcc       ?fp_format_nan_or_infinity@@YAHW4__acrt_fp_class@@_NPEAD_K1@Z 000000014000cdcc f   libucrt:cvt.obj
 0001:0000c3e8       ??$?RV<lambda_efdfa57d1f175319df784efa44bb7b81>@@AEAV<lambda_5f0a4c1567f8adc6734073e5d1e1b35c>@@V<lambda_2e8a7d3640ea6ccb4c2413664c2db6fd>@@@?$__crt_seh_guarded_call@X@@QEAAX$$QEAV<lambda_efdfa57d1f175319df784efa44bb7b81>@@AEAV<lambda_5f0a4c1567f8adc6734073e5d1e1b35c>@@$$QEAV<lambda_2e8a7d3640ea6ccb4c2413664c2db6fd>@@@Z 000000014000d3e8 f   libucrt:mbctype.obj
 0001:0000c5bc       ?getSystemCP@@YAHH@Z       000000014000d5bc f   libucrt:mbctype.obj
 0001:0000c63c       ?setSBCS@@YAXPEAU__crt_multibyte_data@@@Z 000000014000d63c f   libucrt:mbctype.obj
 0001:0000c6cc       ?setSBUpLow@@YAXPEAU__crt_multibyte_data@@@Z 000000014000d6cc f   libucrt:mbctype.obj
 0001:0000c8ac       ?setmbcp_internal@@YAHH_NQEAU__acrt_ptd@@QEAPEAU__crt_multibyte_data@@@Z 000000014000d8ac f   libucrt:mbctype.obj
 0001:0000ca70       ?update_thread_multibyte_data_internal@@YAPEAU__crt_multibyte_data@@QEAU__acrt_ptd@@QEAPEAU1@@Z 000000014000da70 f   libucrt:mbctype.obj
 0001:0000cf68       ??$common_set_variable_in_environment_nolock@D@@YAHQEADH@Z 000000014000df68 f   libucrt:setenv.obj
 0001:0000d288       ??$copy_environment@D@@YAPEAPEADQEAPEAD@Z 000000014000e288 f   libucrt:setenv.obj
 0001:0000d500       ??$?RV<lambda_450d765d439847d4c735a33c368b5fc0>@@AEAV<lambda_44731a7d0e6d81c3e6aa82d741081786>@@V<lambda_601a2a7da3b7a96e9554ac7215c4b07c>@@@?$__crt_seh_guarded_call@P6AXH@Z@@QEAAP6AXH@Z$$QEAV<lambda_450d765d439847d4c735a33c368b5fc0>@@AEAV<lambda_44731a7d0e6d81c3e6aa82d741081786>@@$$QEAV<lambda_601a2a7da3b7a96e9554ac7215c4b07c>@@@Z 000000014000e500 f   libucrt:signal.obj
 0001:0000d80c       ?<lambda_invoker_cdecl>@<lambda_c2303d2482d7c3675ea2e24c4cfb6115>@@CAHPEBX0@Z 000000014000e80c f   libucrt:argv_wildcards.obj
 0001:0000d820       ??$common_expand_argv_wildcards@D@@YAHQEAPEADQEAPEAPEAD@Z 000000014000e820 f   libucrt:argv_wildcards.obj
 0001:0000da2c       ??$copy_and_add_argument_to_buffer@D@@YAHQEBD0_KAEAV?$argument_list@D@?A0x5f5c8891@@@Z 000000014000ea2c f   libucrt:argv_wildcards.obj
 0001:0000dbc4       ??$expand_argument_wildcards@D@@YAHQEAD0AEAV?$argument_list@D@?A0x5f5c8891@@@Z 000000014000ebc4 f   libucrt:argv_wildcards.obj
 0001:0000dd78       ?x_ismbbtype_l@@YAHPEAU__crt_locale_pointers@@IHH@Z 000000014000ed78 f   libucrt:ismbbyte.obj
 0001:0000e288       ?free_crt_array_internal@@YAXQEAPEBX_K@Z 000000014000f288 f   libucrt:inittime.obj
 0001:0000eaec       ?GetTableIndexFromLocaleName@@YAHPEB_W@Z 000000014000faec f   libucrt:lcidtoname_downlevel.obj
 0001:0000ecd4       ??$?RV<lambda_a37b2b86f63e897a80ea819b0eb08c01>@@AEAV<lambda_38ce7e780aa69e748d6df282ebc68efe>@@V<lambda_99fb1378e971ab6e7edea83e3a7a83a2>@@@?$__crt_seh_guarded_call@H@@QEAAH$$QEAV<lambda_a37b2b86f63e897a80ea819b0eb08c01>@@AEAV<lambda_38ce7e780aa69e748d6df282ebc68efe>@@$$QEAV<lambda_99fb1378e971ab6e7edea83e3a7a83a2>@@@Z 000000014000fcd4 f   libucrt:commit.obj
 0001:0000edf4       ?write_double_translated_ansi_nolock@@YA?AUwrite_result@?A0x17268360@@HQEBDI@Z 000000014000fdf4 f   libucrt:write.obj
 0001:0000f018       ?write_text_ansi_nolock@@YA?AUwrite_result@?A0x17268360@@HQEBDI@Z 0000000140010018 f   libucrt:write.obj
 0001:0000f11c       ?write_text_utf16le_nolock@@YA?AUwrite_result@?A0x17268360@@HQEBDI@Z 000000014001011c f   libucrt:write.obj
 0001:0000f238       ?write_text_utf8_nolock@@YA?AUwrite_result@?A0x17268360@@HQEBDI@Z 0000000140010238 f   libucrt:write.obj
 0001:0000f81c       ?__acrt_LCMapStringA_stat@@YAHPEAU__crt_locale_pointers@@PEB_WKPEBDHPEADHHH@Z 000000014001081c f   libucrt:lcmapstringa.obj
 0001:00011488       memcpy_s                   0000000140012488 f   libucrt:cfout.obj
 0001:00011510       ??$write_buffer_nolock@D@@YA_NDV__crt_stdio_stream@@@Z 0000000140012510 f   libucrt:_flsbuf.obj
 0001:00011738       ?initialize_multibyte@@YAHXZ 0000000140012738 f   libucrt:multibyte_initializer.obj
 0001:00011db4       fallbackMethod             0000000140012db4 f   libucrt:strpbrk.obj
 0001:00012184       $LN78                      0000000140013184     libucrt:strpbrk.obj
 0001:000121c0       $LN77                      00000001400131c0     libucrt:strpbrk.obj
 0001:00012200       $LN76                      0000000140013200     libucrt:strpbrk.obj
 0001:000122d8       ??$?RV<lambda_751a882b2c74d4b022dec766aa51a29a>@@AEAV<lambda_628dfdc04ba53c8bfc02c9951375f3f5>@@V<lambda_f6c7be5f7998530c34de24c7437d6b54>@@@?$__crt_seh_guarded_call@H@@QEAAH$$QEAV<lambda_751a882b2c74d4b022dec766aa51a29a>@@AEAV<lambda_628dfdc04ba53c8bfc02c9951375f3f5>@@$$QEAV<lambda_f6c7be5f7998530c34de24c7437d6b54>@@@Z 00000001400132d8 f   libucrt:close.obj
 0001:000124c8       ??$common_lseek@_J@@YA_JH_JH@Z 00000001400134c8 f   libucrt:lseek.obj
 0001:000125b8       ??$common_lseek_nolock@_J@@YA_JH_JH@Z 00000001400135b8 f   libucrt:lseek.obj
 0001:00012840       $$000000                   0000000140013840     libucrt:log10.obj
 0001:00012fd8       ?InternalCompareStringA@@YAHPEAU__crt_locale_pointers@@PEB_WKPEBDH2HH@Z 0000000140013fd8 f   libucrt:comparestringa.obj
 0001:00013878       _call_matherr              0000000140014878 f   libucrt:libm_error.obj
 0001:000138e0       _exception_enabled         00000001400148e0 f   libucrt:libm_error.obj
 0001:00013b70       _log_special_common        0000000140014b70 f   libucrt:log_special.obj
 0001:00013c10       $$000000                   0000000140014c10     libucrt:fpsr.obj
 0001:00014170       $$000000                   0000000140015170     LIBCMT:_chkstk_.obj
 0001:000141e0       $$000000                   00000001400151e0     libvcruntime:memcmp.obj
 0001:000144b0       $$000000                   00000001400154b0     LIBCMT:_guard_dispatch_.obj
 0001:000144d0       ?dtor$0@?0??loadFromFile@LTexture@@QEAA_NV?$basic_string@DU?$char_traits@D@std@@V?$allocator@D@2@@std@@@Z@4HA 00000001400154d0 f   main.obj
 0001:000144e8       ?dtor$0@?0??loadFromRenderedText@LTexture@@QEAA_NV?$basic_string@DU?$char_traits@D@std@@V?$allocator@D@2@@std@@USDL_Color@@@Z@4HA 00000001400154e8 f   main.obj
 0001:00014500       ?catch$1@?0??_Copy@?$basic_string@DU?$char_traits@D@std@@V?$allocator@D@2@@std@@QEAAX_K0@Z@4HA 0000000140015500 f   main.obj
 0001:0001450d       __catch$?_Copy@?$basic_string@DU?$char_traits@D@std@@V?$allocator@D@2@@std@@QEAAX_K0@Z$0 000000014001550d f   main.obj
 0001:0001455a       ?catch$0@?0??_Copy@?$basic_string@DU?$char_traits@D@std@@V?$allocator@D@2@@std@@QEAAX_K0@Z@4HA 000000014001555a f   main.obj
 0001:00014567       __catch$?_Copy@?$basic_string@DU?$char_traits@D@std@@V?$allocator@D@2@@std@@QEAAX_K0@Z$1 0000000140015567 f   main.obj
 0001:00014590       __scrt_is_nonwritable_in_current_image$filt$0 0000000140015590 f   LIBCMT:utility.obj
 0001:000145a8       ?filt$0@?0??__scrt_common_main_seh@@YAHXZ@4HA 00000001400155a8 f   LIBCMT:exe_main.obj
 0001:000145c6       _CallSETranslator$filt$0   00000001400155c6 f   libvcruntime:trnsctrl.obj
 0001:00014612       __CxxCallCatchBlock$filt$0 0000000140015612 f   libvcruntime:frame.obj
 0001:00014637       __CxxCallCatchBlock$fin$1  0000000140015637 f   libvcruntime:frame.obj
 0001:000146af       __DestructExceptionObject$filt$0 00000001400156af f   libvcruntime:frame.obj
 0001:000146c7       __FrameUnwindToState$filt$0 00000001400156c7 f   libvcruntime:frame.obj
 0001:000146dd       __FrameUnwindToState$fin$1 00000001400156dd f   libvcruntime:frame.obj
 0001:00014700       _query_new_handler$fin$0   0000000140015700 f   libucrt:new_handler.obj
 0001:00014716       ?filt$0@?0???R<lambda_6e4b09c48022b2350581041d5f6b0c4c>@@QEBA@XZ@4HA 0000000140015716 f   libucrt:exit.obj
 0001:00014731       ?fin$0@?0???$?RV<lambda_410d79af7f07d98d83a3f525b3859a53>@@AEAV<lambda_3e16ef9562a7dcce91392c22ab16ea36>@@V<lambda_38119f0e861e05405d8a144b9b982f0a>@@@?$__crt_seh_guarded_call@X@@QEAAX$$QEAV<lambda_410d79af7f07d98d83a3f525b3859a53>@@AEAV<lambda_3e16ef9562a7dcce91392c22ab16ea36>@@$$QEAV<lambda_38119f0e861e05405d8a144b9b982f0a>@@@Z@4HA 0000000140015731 f   libucrt:wsetlocale.obj
 0001:0001474b       ?fin$0@?0???$?RV<lambda_7777bce6b2f8c936911f934f8298dc43>@@AEAV<lambda_f03950bc5685219e0bcd2087efbe011e>@@V<lambda_3883c3dff614d5e0c5f61bb1ac94921c>@@@?$__crt_seh_guarded_call@H@@QEAAH$$QEAV<lambda_7777bce6b2f8c936911f934f8298dc43>@@AEAV<lambda_f03950bc5685219e0bcd2087efbe011e>@@$$QEAV<lambda_3883c3dff614d5e0c5f61bb1ac94921c>@@@Z@4HA 000000014001574b f   libucrt:onexit.obj
 0001:0001474b       ?fin$0@?0???$?RV<lambda_2d41944a1d46af3157314b8a01080d33>@@AEAV<lambda_8f455de75cd7d7f24b4096f044d8b9e6>@@V<lambda_aa500f224e6afead328df44964fe2772>@@@?$__crt_seh_guarded_call@X@@QEAAX$$QEAV<lambda_2d41944a1d46af3157314b8a01080d33>@@AEAV<lambda_8f455de75cd7d7f24b4096f044d8b9e6>@@$$QEAV<lambda_aa500f224e6afead328df44964fe2772>@@@Z@4HA 000000014001574b f   libucrt:per_thread_data.obj
 0001:0001474b       ?fin$0@?0???$?RV<lambda_aa87e3671a710a21b5dc78c0bdf72e11>@@AEAV<lambda_92619d2358a28f41a33ba319515a20b9>@@V<lambda_6992ecaafeb10aed2b74cb1fae11a551>@@@?$__crt_seh_guarded_call@X@@QEAAX$$QEAV<lambda_aa87e3671a710a21b5dc78c0bdf72e11>@@AEAV<lambda_92619d2358a28f41a33ba319515a20b9>@@$$QEAV<lambda_6992ecaafeb10aed2b74cb1fae11a551>@@@Z@4HA 000000014001574b f   libucrt:per_thread_data.obj
 0001:0001474b       ?fin$0@?0???$?RV<lambda_f2e299630e499de9f9a165e60fcd3db5>@@AEAV<lambda_2ae9d31cdba2644fcbeaf08da7c24588>@@V<lambda_40d01ff24d0e7b3814fdbdcee8eab3c7>@@@?$__crt_seh_guarded_call@X@@QEAAX$$QEAV<lambda_f2e299630e499de9f9a165e60fcd3db5>@@AEAV<lambda_2ae9d31cdba2644fcbeaf08da7c24588>@@$$QEAV<lambda_40d01ff24d0e7b3814fdbdcee8eab3c7>@@@Z@4HA 000000014001574b f   libucrt:per_thread_data.obj
 0001:0001474b       ?fin$0@?0???$?RV<lambda_d80eeec6fff315bfe5c115232f3240e3>@@AEAV<lambda_6e4b09c48022b2350581041d5f6b0c4c>@@V<lambda_2358e3775559c9db80273638284d5e45>@@@?$__crt_seh_guarded_call@X@@QEAAX$$QEAV<lambda_d80eeec6fff315bfe5c115232f3240e3>@@AEAV<lambda_6e4b09c48022b2350581041d5f6b0c4c>@@$$QEAV<lambda_2358e3775559c9db80273638284d5e45>@@@Z@4HA 000000014001574b f   libucrt:exit.obj
 0001:0001474b       ?fin$0@?0???$?RV<lambda_efdfa57d1f175319df784efa44bb7b81>@@AEAV<lambda_5f0a4c1567f8adc6734073e5d1e1b35c>@@V<lambda_2e8a7d3640ea6ccb4c2413664c2db6fd>@@@?$__crt_seh_guarded_call@X@@QEAAX$$QEAV<lambda_efdfa57d1f175319df784efa44bb7b81>@@AEAV<lambda_5f0a4c1567f8adc6734073e5d1e1b35c>@@$$QEAV<lambda_2e8a7d3640ea6ccb4c2413664c2db6fd>@@@Z@4HA 000000014001574b f   libucrt:mbctype.obj
 0001:0001474b       ?fin$0@?0???$?RV<lambda_0ae27a3a962d80f24befdcbee591983d>@@AEAV<lambda_8d0ee55de4b1038c4002e0adecdf1839>@@V<lambda_dc504788e8f1664fe9b84e20bfb512f2>@@@?$__crt_seh_guarded_call@X@@QEAAX$$QEAV<lambda_0ae27a3a962d80f24befdcbee591983d>@@AEAV<lambda_8d0ee55de4b1038c4002e0adecdf1839>@@$$QEAV<lambda_dc504788e8f1664fe9b84e20bfb512f2>@@@Z@4HA 000000014001574b f   libucrt:per_thread_data.obj
 0001:0001474b       ?fin$0@?0???$?RV<lambda_450d765d439847d4c735a33c368b5fc0>@@AEAV<lambda_44731a7d0e6d81c3e6aa82d741081786>@@V<lambda_601a2a7da3b7a96e9554ac7215c4b07c>@@@?$__crt_seh_guarded_call@P6AXH@Z@@QEAAP6AXH@Z$$QEAV<lambda_450d765d439847d4c735a33c368b5fc0>@@AEAV<lambda_44731a7d0e6d81c3e6aa82d741081786>@@$$QEAV<lambda_601a2a7da3b7a96e9554ac7215c4b07c>@@@Z@4HA 000000014001574b f   libucrt:signal.obj
 0001:0001474b       ?fin$0@?0???$?RV<lambda_8369fcb7c4df1e85de37618bd2b85f07>@@AEAV<lambda_a10e4b102d4a2c3aac6f4f48bbdf488f>@@V<lambda_5b7707bd6d7a0c4713179f36c7fd995d>@@@?$__crt_seh_guarded_call@H@@QEAAH$$QEAV<lambda_8369fcb7c4df1e85de37618bd2b85f07>@@AEAV<lambda_a10e4b102d4a2c3aac6f4f48bbdf488f>@@$$QEAV<lambda_5b7707bd6d7a0c4713179f36c7fd995d>@@@Z@4HA 000000014001574b f   libucrt:onexit.obj
 0001:00014765       _fcloseall$fin$0           0000000140015765 f   libucrt:closeall.obj
 0001:0001477e       ?fin$0@?0???$?RV<lambda_842d9ff0dc9ef11c61343bbaebe7f885>@@AEAV<lambda_c5860995281e5c4ce005b3de8f5874ee>@@V<lambda_d90129c13df834fdcbf8d2b88dafcf2d>@@@?$__crt_seh_guarded_call@X@@QEAAX$$QEAV<lambda_842d9ff0dc9ef11c61343bbaebe7f885>@@AEAV<lambda_c5860995281e5c4ce005b3de8f5874ee>@@$$QEAV<lambda_d90129c13df834fdcbf8d2b88dafcf2d>@@@Z@4HA 000000014001577e f   libucrt:fflush.obj
 0001:0001477e       ?fin$0@?0???$?RV<lambda_74b93660f2d9eb3fb15c5de9eff9db7b>@@AEAV<lambda_32f117a32e8f8eb613cbf2ca819ed45e>@@V<lambda_7322894ee7c8a2d41153fedefeab09e3>@@@?$__crt_seh_guarded_call@H@@QEAAH$$QEAV<lambda_74b93660f2d9eb3fb15c5de9eff9db7b>@@AEAV<lambda_32f117a32e8f8eb613cbf2ca819ed45e>@@$$QEAV<lambda_7322894ee7c8a2d41153fedefeab09e3>@@@Z@4HA 000000014001577e f   libucrt:output.obj
 0001:00014799       ?fin$0@?0???$?RV<lambda_886d6c58226a84441f68b9f2b8217b83>@@AEAV<lambda_ab61a845afdef5b7c387490eaf3616ee>@@V<lambda_f7f22ab5edc0698d5f6905b0d3f44752>@@@?$__crt_seh_guarded_call@X@@QEAAX$$QEAV<lambda_886d6c58226a84441f68b9f2b8217b83>@@AEAV<lambda_ab61a845afdef5b7c387490eaf3616ee>@@$$QEAV<lambda_f7f22ab5edc0698d5f6905b0d3f44752>@@@Z@4HA 0000000140015799 f   libucrt:fflush.obj
 0001:000147b6       __acrt_lowio_ensure_fh_exists$fin$0 00000001400157b6 f   libucrt:osfinfo.obj
 0001:000147b6       __acrt_initialize_lowio$fin$0 00000001400157b6 f   libucrt:ioinit.obj
 0001:000147cf       ?fin$0@?0??update_thread_multibyte_data_internal@@YAPEAU__crt_multibyte_data@@QEAU__acrt_ptd@@QEAPEAU1@@Z@4HA 00000001400157cf f   libucrt:mbctype.obj
 0001:000147e8       raise$fin$0                00000001400157e8 f   libucrt:signal.obj
 0001:00014809       __acrt_update_thread_locale_data$fin$0 0000000140015809 f   libucrt:locale_refcounting.obj
 0001:00014822       fclose$fin$0               0000000140015822 f   libucrt:fclose.obj
 0001:0001483a       ?fin$0@?0???$common_lseek@_J@@YA_JH_JH@Z@4HA 000000014001583a f   libucrt:lseek.obj
 0001:0001483a       _write$fin$0               000000014001583a f   libucrt:write.obj
 0001:00014851       ?fin$0@?0???$?RV<lambda_a37b2b86f63e897a80ea819b0eb08c01>@@AEAV<lambda_38ce7e780aa69e748d6df282ebc68efe>@@V<lambda_99fb1378e971ab6e7edea83e3a7a83a2>@@@?$__crt_seh_guarded_call@H@@QEAAH$$QEAV<lambda_a37b2b86f63e897a80ea819b0eb08c01>@@AEAV<lambda_38ce7e780aa69e748d6df282ebc68efe>@@$$QEAV<lambda_99fb1378e971ab6e7edea83e3a7a83a2>@@@Z@4HA 0000000140015851 f   libucrt:commit.obj
 0001:00014851       ?fin$0@?0???$?RV<lambda_751a882b2c74d4b022dec766aa51a29a>@@AEAV<lambda_628dfdc04ba53c8bfc02c9951375f3f5>@@V<lambda_f6c7be5f7998530c34de24c7437d6b54>@@@?$__crt_seh_guarded_call@H@@QEAAH$$QEAV<lambda_751a882b2c74d4b022dec766aa51a29a>@@AEAV<lambda_628dfdc04ba53c8bfc02c9951375f3f5>@@$$QEAV<lambda_f6c7be5f7998530c34de24c7437d6b54>@@@Z@4HA 0000000140015851 f   libucrt:close.obj
 0001:0001486b       _ctrlfp$filt$0             000000014001586b f   libucrt:fpctrl.obj
 0001:000148a0       _IsNonwritableInCurrentImage$filt$0 00000001400158a0 f   LIBCMT:pesect.obj
 0001:000148c0       ??__FgBackgroundTexture@@YAXXZ 00000001400158c0 f   main.obj
 0001:000148e0       ??__FgTextTexture@@YAXXZ   00000001400158e0 f   main.obj
 0001:00014900       ??__FgTexture@@YAXXZ       0000000140015900 f   main.obj
 0002:00000390       ?pre_cpp_initializer@@3P6AXXZEA 0000000140016390     LIBCMT:exe_main.obj
 0002:00000398       ?gTexture$initializer$@@3P6AXXZEA 0000000140016398     main.obj
 0002:000003a0       ?gBackgroundTexture$initializer$@@3P6AXXZEA 00000001400163a0     main.obj
 0002:000003a8       ?gTextTexture$initializer$@@3P6AXXZEA 00000001400163a8     main.obj
 0002:000003c0       ?pre_c_initializer@@3P6AHXZEA 00000001400163c0     LIBCMT:exe_main.obj
 0002:000003c8       ?post_pgo_initializer@@3P6AHXZEA 00000001400163c8     LIBCMT:exe_main.obj
 0002:00000430       $SG42024                   0000000140016430     main.obj
 0002:00000440       $SG42026                   0000000140016440     main.obj
 0002:00000468       $SG42028                   0000000140016468     main.obj
 0002:00000498       $SG42030                   0000000140016498     main.obj
 0002:000004c8       $SG42032                   00000001400164c8     main.obj
 0002:000004f0       $SG42039                   00000001400164f0     main.obj
 0002:00000508       $SG42042                   0000000140016508     main.obj
 0002:00000528       $SG42044                   0000000140016528     main.obj
 0002:00000540       $SG42045                   0000000140016540     main.obj
 0002:00000560       $SG42048                   0000000140016560     main.obj
 0002:00000570       $SG42049                   0000000140016570     main.obj
 0002:00000588       $SG42071                   0000000140016588     main.obj
 0002:000005a0       $SG42072                   00000001400165a0     main.obj
 0002:000005c8       $SG42075                   00000001400165c8     main.obj
 0002:000005d8       $SG42076                   00000001400165d8     main.obj
 0002:000005f8       $SG41923                   00000001400165f8     main.obj
 0002:00000620       $SG41926                   0000000140016620     main.obj
 0002:00000650       $SG41936                   0000000140016650     main.obj
 0002:00000680       $SG41939                   0000000140016680     main.obj
 0002:000006b0       $cppxdata$??1LTexture@@QEAA@XZ 00000001400166b0     main.obj
 0002:000006d8       $cppxdata$?loadFromFile@LTexture@@QEAA_NV?$basic_string@DU?$char_traits@D@std@@V?$allocator@D@2@@std@@@Z 00000001400166d8     main.obj
 0002:00000700       $cppxdata$?loadFromRenderedText@LTexture@@QEAA_NV?$basic_string@DU?$char_traits@D@std@@V?$allocator@D@2@@std@@USDL_Color@@@Z 0000000140016700     main.obj
 0002:00000728       $cppxdata$??1?$basic_string@DU?$char_traits@D@std@@V?$allocator@D@2@@std@@QEAA@XZ 0000000140016728     main.obj
 0002:00000750       $cppxdata$?c_str@?$basic_string@DU?$char_traits@D@std@@V?$allocator@D@2@@std@@QEBAPEBDXZ 0000000140016750     main.obj
 0002:00000778       $cppxdata$?_Copy@?$basic_string@DU?$char_traits@D@std@@V?$allocator@D@2@@std@@QEAAX_K0@Z 0000000140016778     main.obj
 0002:000008b0       GS_ExceptionPointers       00000001400168b0     LIBCMT:gs_report.obj
 0002:000008c0       ?ExceptionTemplate@?1??_CxxThrowException@@9@4UEHExceptionRecord@@B 00000001400168c0     libvcruntime:throw.obj
 0002:00000900       ?ExceptionTemplate@?1??_UnwindNestedFrames@@9@4U_EXCEPTION_RECORD@@B 0000000140016900     libvcruntime:trnsctrl.obj
 0002:000009f8       ?module_names@?A0x61ce2399@@3QBQEB_WB 00000001400169f8     libvcruntime:winapi_downlevel.obj
 0002:00000ac4       ?candidate_modules@?1??try_get_EventRegister@@YAP6AKPEBU_GUID@@P6AX0KE_K1PEAU_EVENT_FILTER_DESCRIPTOR@@PEAX@Z3PEA_K@ZXZ@4QBW4module_id@?A0x61ce2399@@B 0000000140016ac4     libvcruntime:winapi_downlevel.obj
 0002:00000ad8       ?candidate_modules@?1??try_get_EventSetInformation@@YAP6AK_KW4_EVENT_INFO_CLASS@@PEAXK@ZXZ@4QBW4module_id@?A0x61ce2399@@B 0000000140016ad8     libvcruntime:winapi_downlevel.obj
 0002:00000af4       ?candidate_modules@?1??try_get_EventUnregister@@YAP6AK_K@ZXZ@4QBW4module_id@?A0x61ce2399@@B 0000000140016af4     libvcruntime:winapi_downlevel.obj
 0002:00000b08       ?candidate_modules@?1??try_get_EventWriteTransfer@@YAP6AK_KPEBU_EVENT_DESCRIPTOR@@PEBU_GUID@@2KPEAU_EVENT_DATA_DESCRIPTOR@@@ZXZ@4QBW4module_id@?A0x61ce2399@@B 0000000140016b08     libvcruntime:winapi_downlevel.obj
 0002:00000b28       ?candidate_modules@?1??try_get_FlsAlloc@@YAP6AKP6AXPEAX@Z@ZXZ@4QBW4module_id@?A0x61ce2399@@B 0000000140016b28     libvcruntime:winapi_downlevel.obj
 0002:00000b40       ?candidate_modules@?1??try_get_FlsFree@@YAP6AHK@ZXZ@4QBW4module_id@?A0x61ce2399@@B 0000000140016b40     libvcruntime:winapi_downlevel.obj
 0002:00000b50       ?candidate_modules@?1??try_get_FlsGetValue@@YAP6APEAXK@ZXZ@4QBW4module_id@?A0x61ce2399@@B 0000000140016b50     libvcruntime:winapi_downlevel.obj
 0002:00000b68       ?candidate_modules@?1??try_get_FlsSetValue@@YAP6AHKPEAX@ZXZ@4QBW4module_id@?A0x61ce2399@@B 0000000140016b68     libvcruntime:winapi_downlevel.obj
 0002:00000b80       ?candidate_modules@?1??try_get_InitializeCriticalSectionEx@@YAP6AHPEAU_RTL_CRITICAL_SECTION@@KK@ZXZ@4QBW4module_id@?A0x61ce2399@@B 0000000140016b80     libvcruntime:winapi_downlevel.obj
 0002:00001070       ?rttiTable@@3QBQEBDB       0000000140017070     libvcruntime:undname.obj
 0002:000010a0       ?tokenTable@@3QBQEBDB      00000001400170a0     libvcruntime:undname.obj
 0002:00001110       ?nameTable@@3QBQEBDB       0000000140017110     libvcruntime:undname.obj
 0002:000016b0       __acrt_initializers        00000001400176b0     libucrt:initialization.obj
 0002:000017b0       ?errtable@@3QBUerrentry@?A0x31fdb9ec@@B 00000001400177b0     libucrt:errno.obj
 0002:00001910       ?module_names@?A0x391cf84c@@3QBQEB_WB 0000000140017910     libucrt:winapi_thunks.obj
 0002:00001e08       ?candidate_modules@?1??try_get_CompareStringEx@@YAP6AHPEB_WK0H0HPEAU_nlsversioninfo@@PEAX_J@ZXZ@4QBW4module_id@?A0x391cf84c@@B 0000000140017e08     libucrt:winapi_thunks.obj
 0002:00001e20       ?candidate_modules@?1??try_get_FlsAlloc@@YAP6AKP6AXPEAX@Z@ZXZ@4QBW4module_id@?A0x391cf84c@@B 0000000140017e20     libucrt:winapi_thunks.obj
 0002:00001e28       ?candidate_modules@?1??try_get_FlsFree@@YAP6AHK@ZXZ@4QBW4module_id@?A0x391cf84c@@B 0000000140017e28     libucrt:winapi_thunks.obj
 0002:00001e30       ?candidate_modules@?1??try_get_FlsGetValue@@YAP6APEAXK@ZXZ@4QBW4module_id@?A0x391cf84c@@B 0000000140017e30     libucrt:winapi_thunks.obj
 0002:00001e38       ?candidate_modules@?1??try_get_FlsSetValue@@YAP6AHKPEAX@ZXZ@4QBW4module_id@?A0x391cf84c@@B 0000000140017e38     libucrt:winapi_thunks.obj
 0002:00001e40       ?candidate_modules@?1??try_get_InitializeCriticalSectionEx@@YAP6AHPEAU_RTL_CRITICAL_SECTION@@KK@ZXZ@4QBW4module_id@?A0x391cf84c@@B 0000000140017e40     libucrt:winapi_thunks.obj
 0002:00001e48       ?candidate_modules@?1??try_get_LCMapStringEx@@YAP6AHPEB_WK0HPEA_WHPEAU_nlsversioninfo@@PEAX_J@ZXZ@4QBW4module_id@?A0x391cf84c@@B 0000000140017e48     libucrt:winapi_thunks.obj
 0002:00001e60       ?candidate_modules@?1??try_get_LocaleNameToLCID@@YAP6AKPEB_WK@ZXZ@4QBW4module_id@?A0x391cf84c@@B 0000000140017e60     libucrt:winapi_thunks.obj
 0002:00001e7c       ?candidate_modules@?1??try_get_AppPolicyGetProcessTerminationMethod@@YAP6AJPEAXPEAW4AppPolicyProcessTerminationMethod@@@ZXZ@4QBW4module_id@?A0x391cf84c@@B 0000000140017e7c     libucrt:winapi_thunks.obj
 0002:00002580       ?_mb_locale_names@@3QBQEB_WB 0000000140018580     libucrt:mbctype.obj
 0002:000035d0       ?LocaleNameToIndexTable@?A0x881e4c05@@3QBULocaleNameIndex@1@B 00000001400195d0     libucrt:lcidtoname_downlevel.obj
 0002:00004e70       ?LcidToLocaleNameTable@?A0x881e4c05@@3QBULcidToLocaleName@1@B 000000014001ae70     libucrt:lcidtoname_downlevel.obj
 0002:000068e0       __real_ninf                000000014001c8e0     libucrt:log10.obj
 0002:000068f0       __real_inf                 000000014001c8f0     libucrt:log10.obj
 0002:00006900       __real_neg_qnan            000000014001c900     libucrt:log10.obj
 0002:00006910       __real_qnanbit             000000014001c910     libucrt:log10.obj
 0002:00006920       __int_1023                 000000014001c920     libucrt:log10.obj
 0002:00006930       __mask_001                 000000014001c930     libucrt:log10.obj
 0002:00006940       __mask_mant                000000014001c940     libucrt:log10.obj
 0002:00006950       __mask_mant_top8           000000014001c950     libucrt:log10.obj
 0002:00006960       __mask_mant9               000000014001c960     libucrt:log10.obj
 0002:00006970       __real_log10_e             000000014001c970     libucrt:log10.obj
 0002:00006980       __real_log10_e_lead        000000014001c980     libucrt:log10.obj
 0002:00006990       __real_log10_e_tail        000000014001c990     libucrt:log10.obj
 0002:000069a0       __real_log10_2_lead        000000014001c9a0     libucrt:log10.obj
 0002:000069b0       __real_log10_2_tail        000000014001c9b0     libucrt:log10.obj
 0002:000069c0       __real_two                 000000014001c9c0     libucrt:log10.obj
 0002:000069d0       __real_one                 000000014001c9d0     libucrt:log10.obj
 0002:000069e0       __real_half                000000014001c9e0     libucrt:log10.obj
 0002:000069f0       __mask_100                 000000014001c9f0     libucrt:log10.obj
 0002:00006a00       __real_1_over_512          000000014001ca00     libucrt:log10.obj
 0002:00006a10       __real_1_over_2            000000014001ca10     libucrt:log10.obj
 0002:00006a20       __real_1_over_3            000000014001ca20     libucrt:log10.obj
 0002:00006a30       __real_1_over_4            000000014001ca30     libucrt:log10.obj
 0002:00006a40       __real_1_over_5            000000014001ca40     libucrt:log10.obj
 0002:00006a50       __real_1_over_6            000000014001ca50     libucrt:log10.obj
 0002:00006a60       __real_neg_1023            000000014001ca60     libucrt:log10.obj
 0002:00006a70       __mask_2045                000000014001ca70     libucrt:log10.obj
 0002:00006a80       __real_threshold           000000014001ca80     libucrt:log10.obj
 0002:00006a90       __real_near_one_lt         000000014001ca90     libucrt:log10.obj
 0002:00006aa0       __real_near_one_gt         000000014001caa0     libucrt:log10.obj
 0002:00006ab0       __real_min_norm            000000014001cab0     libucrt:log10.obj
 0002:00006ac0       __real_notsign             000000014001cac0     libucrt:log10.obj
 0002:00006ad0       __real_ca1                 000000014001cad0     libucrt:log10.obj
 0002:00006ae0       __real_ca2                 000000014001cae0     libucrt:log10.obj
 0002:00006af0       __real_ca3                 000000014001caf0     libucrt:log10.obj
 0002:00006b00       __real_ca4                 000000014001cb00     libucrt:log10.obj
 0002:00006b10       __mask_lower               000000014001cb10     libucrt:log10.obj
 0002:00006b20       __flag_x_zero              000000014001cb20     libucrt:log10.obj
 0002:00006b24       __flag_x_neg               000000014001cb24     libucrt:log10.obj
 0002:00006b28       __flag_x_nan               000000014001cb28     libucrt:log10.obj
 0002:00008380       __real@433fffffffffffff    000000014001e380     libucrt:fpsr.obj
 0002:00008388       __real@c33fffffffffffff    000000014001e388     libucrt:fpsr.obj
 0002:000088f0       ?_TlgEvent@?3??__telemetry_main_invoke_trigger@@9@4U<unnamed-type-_TlgEvent>@?3??1@YAXQEAUHINSTANCE__@@@Z@B 000000014001e8f0     libvcruntime:telemetry.obj
 0002:0000892c       ?_TlgEvent@?3??__telemetry_main_return_trigger@@9@4U<unnamed-type-_TlgEvent>@?3??1@YAXQEAUHINSTANCE__@@@Z@B 000000014001e92c     libvcruntime:telemetry.obj
 0002:00008967       ?_Tlg_Microsoft_CRTProviderProv_Meta@@3U<unnamed-type-_Tlg_Microsoft_CRTProviderProv_Meta>@@B 000000014001e967     libvcruntime:telemetry.obj
 0002:00008d90       $unwind$SDL_main           000000014001ed90     main.obj
 0002:00008da0       $unwind$??1LTexture@@QEAA@XZ 000000014001eda0     main.obj
 0002:00008db0       $ip2state$??1LTexture@@QEAA@XZ 000000014001edb0     main.obj
 0002:00008db8       $unwind$?loadFromFile@LTexture@@QEAA_NV?$basic_string@DU?$char_traits@D@std@@V?$allocator@D@2@@std@@@Z 000000014001edb8     main.obj
 0002:00008dc8       $stateUnwindMap$?loadFromFile@LTexture@@QEAA_NV?$basic_string@DU?$char_traits@D@std@@V?$allocator@D@2@@std@@@Z 000000014001edc8     main.obj
 0002:00008dd0       $ip2state$?loadFromFile@LTexture@@QEAA_NV?$basic_string@DU?$char_traits@D@std@@V?$allocator@D@2@@std@@@Z 000000014001edd0     main.obj
 0002:00008de8       $unwind$?dtor$0@?0??loadFromFile@LTexture@@QEAA_NV?$basic_string@DU?$char_traits@D@std@@V?$allocator@D@2@@std@@@Z@4HA 000000014001ede8     main.obj
 0002:00008df0       $unwind$?loadFromRenderedText@LTexture@@QEAA_NV?$basic_string@DU?$char_traits@D@std@@V?$allocator@D@2@@std@@USDL_Color@@@Z 000000014001edf0     main.obj
 0002:00008e00       $stateUnwindMap$?loadFromRenderedText@LTexture@@QEAA_NV?$basic_string@DU?$char_traits@D@std@@V?$allocator@D@2@@std@@USDL_Color@@@Z 000000014001ee00     main.obj
 0002:00008e08       $ip2state$?loadFromRenderedText@LTexture@@QEAA_NV?$basic_string@DU?$char_traits@D@std@@V?$allocator@D@2@@std@@USDL_Color@@@Z 000000014001ee08     main.obj
 0002:00008e20       $unwind$?dtor$0@?0??loadFromRenderedText@LTexture@@QEAA_NV?$basic_string@DU?$char_traits@D@std@@V?$allocator@D@2@@std@@USDL_Color@@@Z@4HA 000000014001ee20     main.obj
 0002:00008e28       $unwind$?free@LTexture@@QEAAXXZ 000000014001ee28     main.obj
 0002:00008e30       $unwind$?setColor@LTexture@@QEAAXEEE@Z 000000014001ee30     main.obj
 0002:00008e38       $unwind$?setBlendMode@LTexture@@QEAAXW4SDL_BlendMode@@@Z 000000014001ee38     main.obj
 0002:00008e40       $unwind$?setAlpha@LTexture@@QEAAXE@Z 000000014001ee40     main.obj
 0002:00008e48       $unwind$?render@LTexture@@QEAAXHHPEAUSDL_Rect@@NPEAUSDL_Point@@W4SDL_RendererFlip@@@Z 000000014001ee48     main.obj
 0002:00008e58       $unwind$?init@@YA_NXZ      000000014001ee58     main.obj
 0002:00008e60       $unwind$?loadMedia@@YA_NXZ 000000014001ee60     main.obj
 0002:00008e6c       $unwind$?close@@YAXXZ      000000014001ee6c     main.obj
 0002:00008e74       $unwind$?loadTexture@@YAPEAUSDL_Texture@@V?$basic_string@DU?$char_traits@D@std@@V?$allocator@D@2@@std@@@Z 000000014001ee74     main.obj
 0002:00008e7c       $unwind$?copy@?$char_traits@D@std@@SAPEADPEADPEBD_K@Z 000000014001ee7c     main.obj
 0002:00008e88       $unwind$?_Deallocate@std@@YAXPEAX_K1@Z 000000014001ee88     main.obj
 0002:00008e88       $unwind$?_Allocate@std@@YAPEAX_K0_N@Z 000000014001ee88     main.obj
 0002:00008e90       $unwind$?max_size@?$_Wrap_alloc@V?$allocator@D@std@@@std@@QEBA_KU_Nil@2@@Z 000000014001ee90     main.obj
 0002:00008e98       $unwind$?_Getal@?$_String_alloc@U?$_String_base_types@DV?$allocator@D@std@@@std@@@std@@QEBAAEBU?$_Wrap_alloc@V?$allocator@D@std@@@2@XZ 000000014001ee98     main.obj
 0002:00008e98       $unwind$?_Get_data@?$_String_alloc@U?$_String_base_types@DV?$allocator@D@std@@@std@@@std@@QEAAAEAV?$_String_val@U?$_Simple_types@D@std@@@2@XZ 000000014001ee98     main.obj
 0002:00008e98       $unwind$?_Getal@?$_String_alloc@U?$_String_base_types@DV?$allocator@D@std@@@std@@@std@@QEAAAEAU?$_Wrap_alloc@V?$allocator@D@std@@@2@XZ 000000014001ee98     main.obj
 0002:00008e98       $unwind$?size@?$basic_string@DU?$char_traits@D@std@@V?$allocator@D@2@@std@@QEBA_KXZ 000000014001ee98     main.obj
 0002:00008e98       $unwind$?_Get_data@?$_String_alloc@U?$_String_base_types@DV?$allocator@D@std@@@std@@@std@@QEBAAEBV?$_String_val@U?$_Simple_types@D@std@@@2@XZ 000000014001ee98     main.obj
 0002:00008e98       $unwind$?_Myptr@?$_String_alloc@U?$_String_base_types@DV?$allocator@D@std@@@std@@@std@@QEBAPEBDXZ 000000014001ee98     main.obj
 0002:00008e98       $unwind$?_Bx@?$_String_alloc@U?$_String_base_types@DV?$allocator@D@std@@@std@@@std@@QEAAAEAT_Bxty@?$_String_val@U?$_Simple_types@D@std@@@2@XZ 000000014001ee98     main.obj
 0002:00008e98       $unwind$?_Mysize@?$_String_alloc@U?$_String_base_types@DV?$allocator@D@std@@@std@@@std@@QEAAAEA_KXZ 000000014001ee98     main.obj
 0002:00008e98       $unwind$?_Mysize@?$_String_alloc@U?$_String_base_types@DV?$allocator@D@std@@@std@@@std@@QEBAAEB_KXZ 000000014001ee98     main.obj
 0002:00008e98       $unwind$?_Myres@?$_String_alloc@U?$_String_base_types@DV?$allocator@D@std@@@std@@@std@@QEAAAEA_KXZ 000000014001ee98     main.obj
 0002:00008e98       $unwind$?_Myptr@?$_String_alloc@U?$_String_base_types@DV?$allocator@D@std@@@std@@@std@@QEAAPEADXZ 000000014001ee98     main.obj
 0002:00008e98       $unwind$?max_size@?$allocator_traits@V?$allocator@D@std@@@std@@SA_KAEBV?$allocator@D@2@@Z 000000014001ee98     main.obj
 0002:00008e98       $unwind$_putwch_nolock     000000014001ee98     libucrt:putwch.obj
 0002:00008e98       $unwind$?_Xlen@?$basic_string@DU?$char_traits@D@std@@V?$allocator@D@2@@std@@QEBAXXZ 000000014001ee98     main.obj
 0002:00008e98       $unwind$?_Xran@?$basic_string@DU?$char_traits@D@std@@V?$allocator@D@2@@std@@QEBAXXZ 000000014001ee98     main.obj
 0002:00008e98       $unwind$?length@?$char_traits@D@std@@SA_KPEBD@Z 000000014001ee98     main.obj
 0002:00008ea0       $unwind$??1?$basic_string@DU?$char_traits@D@std@@V?$allocator@D@2@@std@@QEAA@XZ 000000014001eea0     main.obj
 0002:00008eb0       $ip2state$??1?$basic_string@DU?$char_traits@D@std@@V?$allocator@D@2@@std@@QEAA@XZ 000000014001eeb0     main.obj
 0002:00008eb8       $unwind$printf_s           000000014001eeb8     main.obj
 0002:00008eb8       $unwind$?assign@?$basic_string@DU?$char_traits@D@std@@V?$allocator@D@2@@std@@QEAAAEAV12@AEBV12@_K1@Z 000000014001eeb8     main.obj
 0002:00008eb8       $unwind$_vfprintf_s_l      000000014001eeb8     main.obj
 0002:00008ec0       $unwind$?allocate@?$allocator@D@std@@QEAAPEAD_K@Z 000000014001eec0     main.obj
 0002:00008ec0       $unwind$?erase@?$basic_string@DU?$char_traits@D@std@@V?$allocator@D@2@@std@@QEAAAEAV12@_K@Z 000000014001eec0     main.obj
 0002:00008ec0       $unwind$?assign@?$basic_string@DU?$char_traits@D@std@@V?$allocator@D@2@@std@@QEAAAEAV12@PEBD@Z 000000014001eec0     main.obj
 0002:00008ec0       $unwind$??$destroy@PEAD@?$allocator_traits@V?$allocator@D@std@@@std@@SAXAEAV?$allocator@D@1@PEAPEAD@Z 000000014001eec0     main.obj
 0002:00008ec0       $unwind$??$destroy@PEAD@?$_Wrap_alloc@V?$allocator@D@std@@@std@@QEAAXPEAPEAD@Z 000000014001eec0     main.obj
 0002:00008ec0       $unwind$?allocate@?$_Wrap_alloc@V?$allocator@D@std@@@std@@QEAAPEAD_K@Z 000000014001eec0     main.obj
 0002:00008ec0       $unwind$??0?$_Wrap_alloc@V?$allocator@D@std@@@std@@QEAA@AEBV?$allocator@D@1@@Z 000000014001eec0     main.obj
 0002:00008ec8       $unwind$?move@?$char_traits@D@std@@SAPEADPEADPEBD_K@Z 000000014001eec8     main.obj
 0002:00008ec8       $unwind$?_Grow@?$basic_string@DU?$char_traits@D@std@@V?$allocator@D@2@@std@@QEAA_N_K_N@Z 000000014001eec8     main.obj
 0002:00008ec8       $unwind$?erase@?$basic_string@DU?$char_traits@D@std@@V?$allocator@D@2@@std@@QEAAAEAV12@_K0@Z 000000014001eec8     main.obj
 0002:00008ec8       $unwind$??$construct@PEADAEAPEAD@?$allocator@D@std@@QEAAXPEAPEADAEAPEAD@Z 000000014001eec8     main.obj
 0002:00008ed0       $unwind$?c_str@?$basic_string@DU?$char_traits@D@std@@V?$allocator@D@2@@std@@QEBAPEBDXZ 000000014001eed0     main.obj
 0002:00008ee0       $ip2state$?c_str@?$basic_string@DU?$char_traits@D@std@@V?$allocator@D@2@@std@@QEBAPEBDXZ 000000014001eee0     main.obj
 0002:00008ee8       $unwind$?max_size@?$basic_string@DU?$char_traits@D@std@@V?$allocator@D@2@@std@@QEBA_KXZ 000000014001eee8     main.obj
 0002:00008ef0       $unwind$?_Copy@?$basic_string@DU?$char_traits@D@std@@V?$allocator@D@2@@std@@QEAAX_K0@Z 000000014001eef0     main.obj
 0002:00008f00       $stateUnwindMap$?_Copy@?$basic_string@DU?$char_traits@D@std@@V?$allocator@D@2@@std@@QEAAX_K0@Z 000000014001ef00     main.obj
 0002:00008f20       $tryMap$?_Copy@?$basic_string@DU?$char_traits@D@std@@V?$allocator@D@2@@std@@QEAAX_K0@Z 000000014001ef20     main.obj
 0002:00008f48       $handlerMap$0$?_Copy@?$basic_string@DU?$char_traits@D@std@@V?$allocator@D@2@@std@@QEAAX_K0@Z 000000014001ef48     main.obj
 0002:00008f5c       $handlerMap$1$?_Copy@?$basic_string@DU?$char_traits@D@std@@V?$allocator@D@2@@std@@QEAAX_K0@Z 000000014001ef5c     main.obj
 0002:00008f70       $ip2state$?_Copy@?$basic_string@DU?$char_traits@D@std@@V?$allocator@D@2@@std@@QEAAX_K0@Z 000000014001ef70     main.obj
 0002:00008fc0       $unwind$?catch$1@?0??_Copy@?$basic_string@DU?$char_traits@D@std@@V?$allocator@D@2@@std@@QEAAX_K0@Z@4HA 000000014001efc0     main.obj
 0002:00008fc0       $unwind$?catch$0@?0??_Copy@?$basic_string@DU?$char_traits@D@std@@V?$allocator@D@2@@std@@QEAAX_K0@Z@4HA 000000014001efc0     main.obj
 0002:00008fd0       $unwind$?_Eos@?$basic_string@DU?$char_traits@D@std@@V?$allocator@D@2@@std@@QEAAX_K@Z 000000014001efd0     main.obj
 0002:00008fd0       $unwind$?_Inside@?$basic_string@DU?$char_traits@D@std@@V?$allocator@D@2@@std@@QEAA_NPEBD@Z 000000014001efd0     main.obj
 0002:00008fd0       $unwind$??0?$basic_string@DU?$char_traits@D@std@@V?$allocator@D@2@@std@@QEAA@PEBD@Z 000000014001efd0     main.obj
 0002:00008fd0       $unwind$??0?$_String_alloc@U?$_String_base_types@DV?$allocator@D@std@@@std@@@std@@QEAA@AEBV?$allocator@D@1@@Z 000000014001efd0     main.obj
 0002:00008fd8       $unwind$?_Tidy@?$basic_string@DU?$char_traits@D@std@@V?$allocator@D@2@@std@@QEAAX_N_K@Z 000000014001efd8     main.obj
 0002:00008fe0       $unwind$??$?0AEBV?$allocator@D@std@@$$V@?$_Compressed_pair@U?$_Wrap_alloc@V?$allocator@D@std@@@std@@V?$_String_val@U?$_Simple_types@D@std@@@2@$00@std@@QEAA@U_One_then_variadic_args_t@1@AEBV?$allocator@D@1@@Z 000000014001efe0     main.obj
 0002:00008fe8       $unwind$?deallocate@?$_Wrap_alloc@V?$allocator@D@std@@@std@@QEAAXPEAD_K@Z 000000014001efe8     main.obj
 0002:00008fe8       $unwind$??$construct@PEADAEAPEAD@?$allocator_traits@V?$allocator@D@std@@@std@@SAXAEAV?$allocator@D@1@PEAPEADAEAPEAD@Z 000000014001efe8     main.obj
 0002:00008fe8       $unwind$??$construct@PEADAEAPEAD@?$_Wrap_alloc@V?$allocator@D@std@@@std@@QEAAXPEAPEADAEAPEAD@Z 000000014001efe8     main.obj
 0002:00008fe8       $unwind$?deallocate@?$allocator@D@std@@QEAAXPEAD_K@Z 000000014001efe8     main.obj
 0002:00008fe8       $unwind$?assign@?$basic_string@DU?$char_traits@D@std@@V?$allocator@D@2@@std@@QEAAAEAV12@PEBD_K@Z 000000014001efe8     main.obj
 0002:00008ff0       $unwind$?__scrt_throw_std_bad_alloc@@YAXXZ 000000014001eff0     LIBCMT:throw_bad_alloc.obj
 0002:00008ff0       $unwind$?__scrt_throw_std_bad_array_new_length@@YAXXZ 000000014001eff0     LIBCMT:throw_bad_alloc.obj
 0002:00008ff0       $unwind$_raise_exc         000000014001eff0     libucrt:fpexcept.obj
 0002:00008ff0       $unwind$?_Xout_of_range@std@@YAXPEBD@Z 000000014001eff0     libcpmt:xthrow.obj
 0002:00008ff0       $unwind$?_Xlength_error@std@@YAXPEBD@Z 000000014001eff0     libcpmt:xthrow.obj
 0002:00008ff0       $unwind$?_Xbad_alloc@std@@YAXXZ 000000014001eff0     libcpmt:xthrow.obj
 0002:00008ff8       $unwind$??0out_of_range@std@@QEAA@PEBD@Z 000000014001eff8     libcpmt:xthrow.obj
 0002:00008ff8       $unwind$??0length_error@std@@QEAA@PEBD@Z 000000014001eff8     libcpmt:xthrow.obj
 0002:00009000       $unwind$?initialize_multibyte@@YAHXZ 000000014001f000     libucrt:multibyte_initializer.obj
 0002:00009000       $unwind$__dcrt_uninitialize_environments_nolock 000000014001f000     libucrt:environment_initialization.obj
 0002:00009000       $unwind$_set_fmode         000000014001f000     libucrt:setmode.obj
 0002:00009000       $unwind$??__FgTexture@@YAXXZ 000000014001f000     main.obj
 0002:00009000       $unwind$_isatty            000000014001f000     libucrt:isatty.obj
 0002:00009000       $unwind$??__EgTexture@@YAXXZ 000000014001f000     main.obj
 0002:00009000       $unwind$__dcrt_get_or_create_narrow_environment_nolock 000000014001f000     libucrt:environment_initialization.obj
 0002:00009000       $unwind$??__EgBackgroundTexture@@YAXXZ 000000014001f000     main.obj
 0002:00009000       $unwind$??$uninitialize_environment_internal@_W@@YAXAEAPEAPEA_W@Z 000000014001f000     libucrt:environment_initialization.obj
 0002:00009000       $unwind$_set_new_mode      000000014001f000     libucrt:new_mode.obj
 0002:00009000       $unwind$__dcrt_terminate_console_output 000000014001f000     libucrt:initcon.obj
 0002:00009000       $unwind$__scrt_unhandled_exception_filter 000000014001f000     LIBCMT:utility_desktop.obj
 0002:00009000       $unwind$??__FgBackgroundTexture@@YAXXZ 000000014001f000     main.obj
 0002:00009000       $unwind$_set_errno_from_matherr 000000014001f000     libucrt:fpexcept.obj
 0002:00009000       $unwind$??$uninitialize_environment_internal@D@@YAXAEAPEAPEAD@Z 000000014001f000     libucrt:environment_initialization.obj
 0002:00009000       $unwind$_strnicmp          000000014001f000     libucrt:strnicmp.obj
 0002:00009000       $unwind$__acrt_uninitialize 000000014001f000     libucrt:initialization.obj
 0002:00009000       $unwind$initialize_c       000000014001f000     libucrt:initialization.obj
 0002:00009000       $unwind$_statfp            000000014001f000     libucrt:fpctrl.obj
 0002:00009000       $unwind$__acrt_initialize_command_line 000000014001f000     libucrt:argv_data.obj
 0002:00009000       $unwind$abort              000000014001f000     libucrt:abort.obj
 0002:00009000       $unwind$_GetThrowImageBase 000000014001f000     libvcruntime:trnsctrl.obj
 0002:00009000       $unwind$??__EgTextTexture@@YAXXZ 000000014001f000     main.obj
 0002:00009000       $unwind$uninitialize_environment 000000014001f000     libucrt:initialization.obj
 0002:00009000       $unwind$__scrt_is_managed_app 000000014001f000     LIBCMT:utility_desktop.obj
 0002:00009000       $unwind$_GetImageBase      000000014001f000     libvcruntime:trnsctrl.obj
 0002:00009000       $unwind$_register_thread_local_exe_atexit_callback 000000014001f000     libucrt:exit.obj
 0002:00009000       $unwind$uninitialize_allocated_io_buffers 000000014001f000     libucrt:initialization.obj
 0002:00009000       $unwind$?__GetCurrentState@@YAHPEA_KPEAU_xDISPATCHER_CONTEXT@@PEBU_s_FuncInfo@@@Z 000000014001f000     libvcruntime:ehstate.obj
 0002:00009000       $unwind$_msize_base        000000014001f000     libucrt:msize.obj
 0002:00009000       $unwind$__scrt_acquire_startup_lock 000000014001f000     LIBCMT:utility.obj
 0002:00009000       $unwind$__GSHandlerCheck   000000014001f000     LIBCMT:_gshandler_.obj
 0002:00009000       $unwind$__acrt_initialize_ptd 000000014001f000     libucrt:per_thread_data.obj
 0002:00009000       $unwind$__vcrt_uninitialize_telemetry_provider 000000014001f000     libvcruntime:telemetry.obj
 0002:00009000       $unwind$__acrt_uninitialize_ptd 000000014001f000     libucrt:per_thread_data.obj
 0002:00009000       $unwind$__report_rangecheckfailure 000000014001f000     LIBCMT:gs_report.obj
 0002:00009000       $unwind$?state_case_size@?$output_processor@DV?$stream_output_adapter@D@__crt_stdio_output@@V?$format_validation_base@DV?$stream_output_adapter@D@__crt_stdio_output@@@2@@__crt_stdio_output@@AEAA_NXZ 000000014001f000     libucrt:output.obj
 0002:00009000       $unwind$?validate_stream_is_ansi_if_required@?$__acrt_stdio_char_traits@D@@SA_NQEAU_iobuf@@@Z 000000014001f000     libucrt:output.obj
 0002:00009000       $unwind$_fileno            000000014001f000     libucrt:fileno.obj
 0002:00009000       $unwind$__scrt_initialize_default_local_stdio_options 000000014001f000     LIBCMT:default_local_stdio_options.obj
 0002:00009000       $unwind$__acrt_initialize_heap 000000014001f000     libucrt:heap_handle.obj
 0002:00009000       $unwind$tolower            000000014001f000     libucrt:tolower_toupper.obj
 0002:00009000       $unwind$__vcrt_freefls     000000014001f000     libvcruntime:per_thread_data.obj
 0002:00009000       $unwind$??__FgTextTexture@@YAXXZ 000000014001f000     main.obj
 0002:00009000       $unwind$__pctype_func      000000014001f000     libucrt:ctype.obj
 0002:00009000       $unwind$_invoke_watson     000000014001f000     libucrt:invalid_parameter.obj
 0002:00009000       $unwind$__vcrt_getptd      000000014001f000     libvcruntime:per_thread_data.obj
 0002:00009000       $unwind$__doserrno         000000014001f000     libucrt:errno.obj
 0002:00009000       $unwind$__vcrt_uninitialize_ptd 000000014001f000     libvcruntime:per_thread_data.obj
 0002:00009000       $unwind$_errno             000000014001f000     libucrt:errno.obj
 0002:00009000       $unwind$__vcrt_initialize_ptd 000000014001f000     libvcruntime:per_thread_data.obj
 0002:00009000       $unwind$atexit             000000014001f000     LIBCMT:utility.obj
 0002:00009000       $unwind$_get_initial_narrow_environment 000000014001f000     libucrt:environment_initialization.obj
 0002:00009000       $unwind$__acrt_DownlevelLocaleNameToLCID 000000014001f000     libucrt:lcidtoname_downlevel.obj
 0002:00009000       $unwind$__acrt_release_locale_ref 000000014001f000     libucrt:locale_refcounting.obj
 0002:00009000       $unwind$__vcrt_initialize  000000014001f000     libvcruntime:initialization.obj
 0002:00009000       $unwind$?post_pgo_initialization@@YAHXZ 000000014001f000     LIBCMT:exe_main.obj
 0002:00009000       $unwind$_get_osfhandle     000000014001f000     libucrt:osfinfo.obj
 0002:00009000       $unwind$__FrameUnwindFilter 000000014001f000     libvcruntime:frame.obj
 0002:00009000       $unwind$__acrt_initialize_multibyte 000000014001f000     libucrt:mbctype.obj
 0002:00009000       $unwind$__acrt_update_thread_multibyte_data 000000014001f000     libucrt:mbctype.obj
 0002:00009000       $unwind$mainCRTStartup     000000014001f000     LIBCMT:exe_main.obj
 0002:00009000       $unwind$?pre_cpp_initialization@@YAXXZ 000000014001f000     LIBCMT:exe_main.obj
 0002:00009008       $unwind$__scrt_is_nonwritable_in_current_image 000000014001f008     LIBCMT:utility.obj
 0002:00009028       $unwind$__scrt_is_nonwritable_in_current_image$filt$0 000000014001f028     LIBCMT:utility.obj
 0002:00009030       $unwind$__scrt_initialize_onexit_tables 000000014001f030     LIBCMT:utility.obj
 0002:0000903c       $unwind$__GSHandlerCheckCommon 000000014001f03c     LIBCMT:_gshandler_.obj
 0002:00009048       $xdatasym                  000000014001f048     LIBCMT:_amdsecgs_.obj
 0002:0000904c       $unwind$?__scrt_common_main_seh@@YAHXZ 000000014001f04c     LIBCMT:exe_main.obj
 0002:00009074       $unwind$__isa_available_init 000000014001f074     LIBCMT:_cpu_disp_.obj
 0002:00009080       $unwind$__scrt_fastfail    000000014001f080     LIBCMT:utility_desktop.obj
 0002:00009090       $unwind$__report_securityfailure 000000014001f090     LIBCMT:gs_report.obj
 0002:00009098       $unwind$__report_gsfailure 000000014001f098     LIBCMT:gs_report.obj
 0002:00009098       $unwind$??$addressof@D@std@@YAPEADAEAD@Z 000000014001f098     main.obj
 0002:00009098       $unwind$?_Myptr@?$_String_val@U?$_Simple_types@D@std@@@std@@QEBAPEBDXZ 000000014001f098     main.obj
 0002:00009098       $unwind$?_Myptr@?$_String_val@U?$_Simple_types@D@std@@@std@@QEAAPEADXZ 000000014001f098     main.obj
 0002:000090a0       $unwind$capture_current_context 000000014001f0a0     LIBCMT:gs_report.obj
 0002:000090ac       $unwind$capture_previous_context 000000014001f0ac     LIBCMT:gs_report.obj
 0002:000090b8       $unwind$__security_init_cookie 000000014001f0b8     LIBCMT:gs_support.obj
 0002:000090c8       $xdatasym                  000000014001f0c8     LIBCMT:_guard_dispatch_.obj
 0002:000090d0       $xdatasym                  000000014001f0d0     libvcruntime:memcpy.obj
 0002:000090d4       $unwind$_CxxThrowException 000000014001f0d4     libvcruntime:throw.obj
 0002:000090e8       $unwind$?_GetEstablisherFrame@@YAPEA_KPEA_KPEAU_xDISPATCHER_CONTEXT@@PEBU_s_FuncInfo@@0@Z 000000014001f0e8     libvcruntime:trnsctrl.obj
 0002:00009100       $unwind$?__FrameUnwindToEmptyState@@YAXPEA_KPEAU_xDISPATCHER_CONTEXT@@PEBU_s_FuncInfo@@@Z 000000014001f100     libvcruntime:trnsctrl.obj
 0002:00009114       $unwind$_CallSETranslator  000000014001f114     libvcruntime:trnsctrl.obj
 0002:00009138       $unwind$_CallSETranslator$filt$0 000000014001f138     libvcruntime:trnsctrl.obj
 0002:00009140       $unwind$??R<lambda_a10e4b102d4a2c3aac6f4f48bbdf488f>@@QEBAHXZ 000000014001f140     libucrt:onexit.obj
 0002:00009140       $unwind$?write_string_impl@?$output_adapter_common@DV?$stream_output_adapter@D@__crt_stdio_output@@@__crt_stdio_output@@IEBAXQEBDHQEAHAEAV__crt_deferred_errno_cache@@@Z 000000014001f140     libucrt:output.obj
 0002:00009140       $unwind$?_GetRangeOfTrysToCheck@@YAPEBU_s_TryBlockMapEntry@@PEA_KPEBU_s_FuncInfo@@HHPEAI2PEAU_xDISPATCHER_CONTEXT@@@Z 000000014001f140     libvcruntime:trnsctrl.obj
 0002:00009140       $unwind$??$parse_command_line@D@@YAXPEADPEAPEAD0PEA_K2@Z 000000014001f140     libucrt:argv_parsing.obj
 0002:0000915c       $unwind$_UnwindNestedFrames 000000014001f15c     libvcruntime:trnsctrl.obj
 0002:00009170       $unwind$__CxxFrameHandler3 000000014001f170     libvcruntime:trnsctrl.obj
 0002:00009180       $unwind$__telemetry_main_return_trigger 000000014001f180     libvcruntime:telemetry.obj
 0002:00009180       $unwind$__telemetry_main_invoke_trigger 000000014001f180     libvcruntime:telemetry.obj
 0002:00009198       $unwind$?_TlgEnableCallback@__vcrt_trace_logging_provider@@YAXPEBU_GUID@@KE_K1PEAU_EVENT_FILTER_DESCRIPTOR@@PEAX@Z 000000014001f198     libvcruntime:telemetry.obj
 0002:000091b8       $xdatasym                  000000014001f1b8     libvcruntime:memset.obj
 0002:000091bc       $unwind$__CxxCallCatchBlock 000000014001f1bc     libvcruntime:frame.obj
 0002:000091f8       $unwind$__CxxCallCatchBlock$fin$1 000000014001f1f8     libvcruntime:frame.obj
 0002:00009204       $unwind$__FrameUnwindToState 000000014001f204     libvcruntime:frame.obj
 0002:00009240       $unwind$?FindHandler@@YAXPEAUEHExceptionRecord@@PEA_KPEAU_CONTEXT@@PEAU_xDISPATCHER_CONTEXT@@PEBU_s_FuncInfo@@EH1@Z 000000014001f240     libvcruntime:frame.obj
 0002:00009260       $unwind$?CatchIt@@YAXPEAUEHExceptionRecord@@PEA_KPEAU_CONTEXT@@PEAU_xDISPATCHER_CONTEXT@@PEBU_s_FuncInfo@@PEBU_s_HandlerType@@PEBU_s_CatchableType@@PEBU_s_TryBlockMapEntry@@H1EE@Z 000000014001f260     libvcruntime:frame.obj
 0002:00009278       $unwind$__BuildCatchObject 000000014001f278     libvcruntime:frame.obj
 0002:000092a4       $unwind$?FindHandlerForForeignException@@YAXPEAUEHExceptionRecord@@PEA_KPEAU_CONTEXT@@PEAU_xDISPATCHER_CONTEXT@@PEBU_s_FuncInfo@@HH1@Z 000000014001f2a4     libvcruntime:frame.obj
 0002:000092bc       $unwind$__DestructExceptionObject 000000014001f2bc     libvcruntime:frame.obj
 0002:000092e0       $unwind$__C_specific_handler 000000014001f2e0     libvcruntime:_chandler_.obj
 0002:000092e0       $unwind$__InternalCxxFrameHandler 000000014001f2e0     libvcruntime:frame.obj
 0002:000092fc       $unwind$__BuildCatchObjectHelper 000000014001f2fc     libvcruntime:frame.obj
 0002:0000933c       $unwind$__vcrt_EventWriteTransfer 000000014001f33c     libvcruntime:winapi_downlevel.obj
 0002:00009354       $unwind$__acrt_InitializeCriticalSectionEx 000000014001f354     libucrt:winapi_thunks.obj
 0002:00009354       $unwind$?free_crt_array_internal@@YAXQEAPEBX_K@Z 000000014001f354     libucrt:inittime.obj
 0002:00009354       $unwind$memcpy_s           000000014001f354     libucrt:cfout.obj
 0002:00009354       $unwind$_RTC_Initialize    000000014001f354     LIBCMT:_initsect_.obj
 0002:00009354       $unwind$_exception_enabled 000000014001f354     libucrt:libm_error.obj
 0002:00009354       $unwind$??$common_lseek_nolock@_J@@YA_JH_JH@Z 000000014001f354     libucrt:lseek.obj
 0002:00009354       $unwind$?TraceLoggingRegister@__vcrt_trace_logging_provider@@YAJPEBU_TlgProvider_t@1@PEBU_GUID@@P6AX1KE_K2PEAU_EVENT_FILTER_DESCRIPTOR@@PEAX@Z4@Z 000000014001f354     libvcruntime:telemetry.obj
 0002:00009354       $unwind$__acrt_stdio_flush_and_write_narrow_nolock 000000014001f354     libucrt:_flsbuf.obj
 0002:00009354       $unwind$__acrt_stdio_flush_nolock 000000014001f354     libucrt:fflush.obj
 0002:00009354       $unwind$__acrt_execute_initializers 000000014001f354     libucrt:shared_initialization.obj
 0002:00009354       $unwind$?type_case_n@?$output_processor@DV?$stream_output_adapter@D@__crt_stdio_output@@V?$format_validation_base@DV?$stream_output_adapter@D@__crt_stdio_output@@@2@@__crt_stdio_output@@AEAA_NXZ 000000014001f354     libucrt:output.obj
 0002:00009354       $unwind$__vcrt_FlsSetValue 000000014001f354     libvcruntime:winapi_downlevel.obj
 0002:00009354       $unwind$__vcrt_getptd_noexit 000000014001f354     libvcruntime:per_thread_data.obj
 0002:00009354       $unwind$_RTC_Terminate     000000014001f354     LIBCMT:_initsect_.obj
 0002:00009364       $unwind$__acrt_initialize_winapi_thunks 000000014001f364     libucrt:winapi_thunks.obj
 0002:00009364       $unwind$__vcrt_initialize_winapi_thunks 000000014001f364     libvcruntime:winapi_downlevel.obj
 0002:0000936c       $unwind$??R<lambda_f03950bc5685219e0bcd2087efbe011e>@@QEBAHXZ 000000014001f36c     libucrt:onexit.obj
 0002:0000936c       $unwind$?IsInExceptionSpec@@YAEPEAUEHExceptionRecord@@PEBU_s_ESTypeList@@@Z 000000014001f36c     libvcruntime:frame.obj
 0002:0000936c       $unwind$?try_get_function@@YAPEAXW4function_id@?A0x61ce2399@@QEBDQEBW4module_id@2@2@Z 000000014001f36c     libvcruntime:winapi_downlevel.obj
 0002:0000936c       $unwind$?try_get_function@@YAPEAXW4function_id@?A0x391cf84c@@QEBDQEBW4module_id@2@2@Z 000000014001f36c     libucrt:winapi_thunks.obj
 0002:00009388       $xdatasym                  000000014001f388     libvcruntime:_jmpuwind_.obj
 0002:000093a0       $xdatasym                  000000014001f3a0     libvcruntime:handlers.obj
 0002:000093a8       $unwind$__acrt_call_reportfault 000000014001f3a8     libucrt:invalid_parameter.obj
 0002:000093c8       $unwind$_invalid_parameter 000000014001f3c8     libucrt:invalid_parameter.obj
 0002:000093dc       $unwind$__vcrt_EventRegister 000000014001f3dc     libvcruntime:winapi_downlevel.obj
 0002:000093dc       $unwind$__TypeMatch        000000014001f3dc     libvcruntime:frame.obj
 0002:000093dc       $unwind$__vcrt_EventSetInformation 000000014001f3dc     libvcruntime:winapi_downlevel.obj
 0002:000093dc       $unwind$__acrt_initialize_stdio 000000014001f3dc     libucrt:_file.obj
 0002:000093f4       $unwind$__stdio_common_vfprintf_s 000000014001f3f4     libucrt:output.obj
 0002:000093fc       $unwind$?process@?$output_processor@DV?$stream_output_adapter@D@__crt_stdio_output@@V?$format_validation_base@DV?$stream_output_adapter@D@__crt_stdio_output@@@2@@__crt_stdio_output@@QEAAHXZ 000000014001f3fc     libucrt:output.obj
 0002:0000940c       $unwind$?parse_int_from_format_string@?$output_processor@DV?$stream_output_adapter@D@__crt_stdio_output@@V?$format_validation_base@DV?$stream_output_adapter@D@__crt_stdio_output@@@2@@__crt_stdio_output@@AEAA_NQEAH@Z 000000014001f40c     libucrt:output.obj
 0002:00009420       $unwind$?state_case_type@?$output_processor@DV?$stream_output_adapter@D@__crt_stdio_output@@V?$format_validation_base@DV?$stream_output_adapter@D@__crt_stdio_output@@@2@@__crt_stdio_output@@AEAA_NXZ 000000014001f420     libucrt:output.obj
 0002:00009438       $unwind$?type_case_a@?$output_processor@DV?$stream_output_adapter@D@__crt_stdio_output@@V?$format_validation_base@DV?$stream_output_adapter@D@__crt_stdio_output@@@2@@__crt_stdio_output@@AEAA_NXZ 000000014001f438     libucrt:output.obj
 0002:00009444       $unwind$?type_case_integer@?$output_processor@DV?$stream_output_adapter@D@__crt_stdio_output@@V?$format_validation_base@DV?$stream_output_adapter@D@__crt_stdio_output@@@2@@__crt_stdio_output@@AEAA_NI_N@Z 000000014001f444     libucrt:output.obj
 0002:0000945c       $unwind$?write_stored_string_tchar@?$output_processor@DV?$stream_output_adapter@D@__crt_stdio_output@@V?$format_validation_base@DV?$stream_output_adapter@D@__crt_stdio_output@@@2@@__crt_stdio_output@@AEAA_ND@Z 000000014001f45c     libucrt:output.obj
 0002:00009474       $unwind$??R<lambda_32f117a32e8f8eb613cbf2ca819ed45e>@@QEBAHXZ 000000014001f474     libucrt:output.obj
 0002:00009494       $unwind$??$write_multiple_characters@V?$stream_output_adapter@D@__crt_stdio_output@@D@__crt_stdio_output@@YAXAEBV?$stream_output_adapter@D@0@DHQEAH@Z 000000014001f494     libucrt:output.obj
 0002:000094ac       $unwind$??$type_case_integer_parse_into_buffer@_K@?$output_processor@DV?$stream_output_adapter@D@__crt_stdio_output@@V?$format_validation_base@DV?$stream_output_adapter@D@__crt_stdio_output@@@2@@__crt_stdio_output@@AEAAX_KI_N@Z 000000014001f4ac     libucrt:output.obj
 0002:000094ac       $unwind$??$type_case_integer_parse_into_buffer@I@?$output_processor@DV?$stream_output_adapter@D@__crt_stdio_output@@V?$format_validation_base@DV?$stream_output_adapter@D@__crt_stdio_output@@@2@@__crt_stdio_output@@AEAAXII_N@Z 000000014001f4ac     libucrt:output.obj
 0002:000094ac       $unwind$__ascii_strnicmp   000000014001f4ac     libucrt:strnicmp.obj
 0002:000094b4       $unwind$??$?RV<lambda_74b93660f2d9eb3fb15c5de9eff9db7b>@@AEAV<lambda_32f117a32e8f8eb613cbf2ca819ed45e>@@V<lambda_7322894ee7c8a2d41153fedefeab09e3>@@@?$__crt_seh_guarded_call@H@@QEAAH$$QEAV<lambda_74b93660f2d9eb3fb15c5de9eff9db7b>@@AEAV<lambda_32f117a32e8f8eb613cbf2ca819ed45e>@@$$QEAV<lambda_7322894ee7c8a2d41153fedefeab09e3>@@@Z 000000014001f4b4     libucrt:output.obj
 0002:000094d8       $unwind$_query_new_handler 000000014001f4d8     libucrt:new_handler.obj
 0002:000094f8       $unwind$?common_exit@@YAXHW4_crt_exit_cleanup_mode@@W4_crt_exit_return_mode@@@Z 000000014001f4f8     libucrt:exit.obj
 0002:00009504       $unwind$??R<lambda_6e4b09c48022b2350581041d5f6b0c4c>@@QEBA@XZ 000000014001f504     libucrt:exit.obj
 0002:00009524       $unwind$??$?RV<lambda_d80eeec6fff315bfe5c115232f3240e3>@@AEAV<lambda_6e4b09c48022b2350581041d5f6b0c4c>@@V<lambda_2358e3775559c9db80273638284d5e45>@@@?$__crt_seh_guarded_call@X@@QEAAX$$QEAV<lambda_d80eeec6fff315bfe5c115232f3240e3>@@AEAV<lambda_6e4b09c48022b2350581041d5f6b0c4c>@@$$QEAV<lambda_2358e3775559c9db80273638284d5e45>@@@Z 000000014001f524     libucrt:exit.obj
 0002:00009548       $unwind$??$free_environment@_W@@YAXQEAPEA_W@Z 000000014001f548     libucrt:environment_initialization.obj
 0002:00009548       $unwind$??$free_environment@D@@YAXQEAPEAD@Z 000000014001f548     libucrt:environment_initialization.obj
 0002:00009554       $unwind$??$create_environment@D@@YAQEAPEADQEAD@Z 000000014001f554     libucrt:environment_initialization.obj
 0002:0000956c       $unwind$??$initialize_environment_by_cloning_nolock@D@@YAHXZ 000000014001f56c     libucrt:environment_initialization.obj
 0002:0000957c       $unwind$_register_onexit_function 000000014001f57c     libucrt:onexit.obj
 0002:00009584       $unwind$_execute_onexit_table 000000014001f584     libucrt:onexit.obj
 0002:0000958c       $unwind$??$?RV<lambda_8369fcb7c4df1e85de37618bd2b85f07>@@AEAV<lambda_a10e4b102d4a2c3aac6f4f48bbdf488f>@@V<lambda_5b7707bd6d7a0c4713179f36c7fd995d>@@@?$__crt_seh_guarded_call@H@@QEAAH$$QEAV<lambda_8369fcb7c4df1e85de37618bd2b85f07>@@AEAV<lambda_a10e4b102d4a2c3aac6f4f48bbdf488f>@@$$QEAV<lambda_5b7707bd6d7a0c4713179f36c7fd995d>@@@Z 000000014001f58c     libucrt:onexit.obj
 0002:000095b0       $unwind$??$?RV<lambda_7777bce6b2f8c936911f934f8298dc43>@@AEAV<lambda_f03950bc5685219e0bcd2087efbe011e>@@V<lambda_3883c3dff614d5e0c5f61bb1ac94921c>@@@?$__crt_seh_guarded_call@H@@QEAAH$$QEAV<lambda_7777bce6b2f8c936911f934f8298dc43>@@AEAV<lambda_f03950bc5685219e0bcd2087efbe011e>@@$$QEAV<lambda_3883c3dff614d5e0c5f61bb1ac94921c>@@@Z 000000014001f5b0     libucrt:onexit.obj
 0002:000095d4       $unwind$_configure_narrow_argv 000000014001f5d4     libucrt:argv_parsing.obj
 0002:000095e8       $unwind$__acrt_uninitialize_locale 000000014001f5e8     libucrt:wsetlocale.obj
 0002:000095e8       $unwind$__acrt_get_sigabrt_handler 000000014001f5e8     libucrt:signal.obj
 0002:000095f0       $unwind$??$?RV<lambda_410d79af7f07d98d83a3f525b3859a53>@@AEAV<lambda_3e16ef9562a7dcce91392c22ab16ea36>@@V<lambda_38119f0e861e05405d8a144b9b982f0a>@@@?$__crt_seh_guarded_call@X@@QEAAX$$QEAV<lambda_410d79af7f07d98d83a3f525b3859a53>@@AEAV<lambda_3e16ef9562a7dcce91392c22ab16ea36>@@$$QEAV<lambda_38119f0e861e05405d8a144b9b982f0a>@@@Z 000000014001f5f0     libucrt:wsetlocale.obj
 0002:00009618       $unwind$_query_new_handler$fin$0 000000014001f618     libucrt:new_handler.obj
 0002:00009618       $unwind$?fin$0@?0???$?RV<lambda_aa87e3671a710a21b5dc78c0bdf72e11>@@AEAV<lambda_92619d2358a28f41a33ba319515a20b9>@@V<lambda_6992ecaafeb10aed2b74cb1fae11a551>@@@?$__crt_seh_guarded_call@X@@QEAAX$$QEAV<lambda_aa87e3671a710a21b5dc78c0bdf72e11>@@AEAV<lambda_92619d2358a28f41a33ba319515a20b9>@@$$QEAV<lambda_6992ecaafeb10aed2b74cb1fae11a551>@@@Z@4HA 000000014001f618     libucrt:per_thread_data.obj
 0002:00009618       $unwind$?fin$0@?0???$?RV<lambda_751a882b2c74d4b022dec766aa51a29a>@@AEAV<lambda_628dfdc04ba53c8bfc02c9951375f3f5>@@V<lambda_f6c7be5f7998530c34de24c7437d6b54>@@@?$__crt_seh_guarded_call@H@@QEAAH$$QEAV<lambda_751a882b2c74d4b022dec766aa51a29a>@@AEAV<lambda_628dfdc04ba53c8bfc02c9951375f3f5>@@$$QEAV<lambda_f6c7be5f7998530c34de24c7437d6b54>@@@Z@4HA 000000014001f618     libucrt:close.obj
 0002:00009618       $unwind$?fin$0@?0???$?RV<lambda_74b93660f2d9eb3fb15c5de9eff9db7b>@@AEAV<lambda_32f117a32e8f8eb613cbf2ca819ed45e>@@V<lambda_7322894ee7c8a2d41153fedefeab09e3>@@@?$__crt_seh_guarded_call@H@@QEAAH$$QEAV<lambda_74b93660f2d9eb3fb15c5de9eff9db7b>@@AEAV<lambda_32f117a32e8f8eb613cbf2ca819ed45e>@@$$QEAV<lambda_7322894ee7c8a2d41153fedefeab09e3>@@@Z@4HA 000000014001f618     libucrt:output.obj
 0002:00009618       $unwind$?fin$0@?0???$?RV<lambda_f2e299630e499de9f9a165e60fcd3db5>@@AEAV<lambda_2ae9d31cdba2644fcbeaf08da7c24588>@@V<lambda_40d01ff24d0e7b3814fdbdcee8eab3c7>@@@?$__crt_seh_guarded_call@X@@QEAAX$$QEAV<lambda_f2e299630e499de9f9a165e60fcd3db5>@@AEAV<lambda_2ae9d31cdba2644fcbeaf08da7c24588>@@$$QEAV<lambda_40d01ff24d0e7b3814fdbdcee8eab3c7>@@@Z@4HA 000000014001f618     libucrt:per_thread_data.obj
 0002:00009618       $unwind$?fin$0@?0???$?RV<lambda_0ae27a3a962d80f24befdcbee591983d>@@AEAV<lambda_8d0ee55de4b1038c4002e0adecdf1839>@@V<lambda_dc504788e8f1664fe9b84e20bfb512f2>@@@?$__crt_seh_guarded_call@X@@QEAAX$$QEAV<lambda_0ae27a3a962d80f24befdcbee591983d>@@AEAV<lambda_8d0ee55de4b1038c4002e0adecdf1839>@@$$QEAV<lambda_dc504788e8f1664fe9b84e20bfb512f2>@@@Z@4HA 000000014001f618     libucrt:per_thread_data.obj
 0002:00009618       $unwind$raise$fin$0        000000014001f618     libucrt:signal.obj
 0002:00009618       $unwind$?fin$0@?0???$?RV<lambda_2d41944a1d46af3157314b8a01080d33>@@AEAV<lambda_8f455de75cd7d7f24b4096f044d8b9e6>@@V<lambda_aa500f224e6afead328df44964fe2772>@@@?$__crt_seh_guarded_call@X@@QEAAX$$QEAV<lambda_2d41944a1d46af3157314b8a01080d33>@@AEAV<lambda_8f455de75cd7d7f24b4096f044d8b9e6>@@$$QEAV<lambda_aa500f224e6afead328df44964fe2772>@@@Z@4HA 000000014001f618     libucrt:per_thread_data.obj
 0002:00009618       $unwind$?fin$0@?0???$?RV<lambda_410d79af7f07d98d83a3f525b3859a53>@@AEAV<lambda_3e16ef9562a7dcce91392c22ab16ea36>@@V<lambda_38119f0e861e05405d8a144b9b982f0a>@@@?$__crt_seh_guarded_call@X@@QEAAX$$QEAV<lambda_410d79af7f07d98d83a3f525b3859a53>@@AEAV<lambda_3e16ef9562a7dcce91392c22ab16ea36>@@$$QEAV<lambda_38119f0e861e05405d8a144b9b982f0a>@@@Z@4HA 000000014001f618     libucrt:wsetlocale.obj
 0002:00009618       $unwind$_IsNonwritableInCurrentImage$filt$0 000000014001f618     LIBCMT:pesect.obj
 0002:00009618       $unwind$?fin$0@?0???$?RV<lambda_886d6c58226a84441f68b9f2b8217b83>@@AEAV<lambda_ab61a845afdef5b7c387490eaf3616ee>@@V<lambda_f7f22ab5edc0698d5f6905b0d3f44752>@@@?$__crt_seh_guarded_call@X@@QEAAX$$QEAV<lambda_886d6c58226a84441f68b9f2b8217b83>@@AEAV<lambda_ab61a845afdef5b7c387490eaf3616ee>@@$$QEAV<lambda_f7f22ab5edc0698d5f6905b0d3f44752>@@@Z@4HA 000000014001f618     libucrt:fflush.obj
 0002:00009618       $unwind$__DestructExceptionObject$filt$0 000000014001f618     libvcruntime:frame.obj
 0002:00009618       $unwind$__CxxCallCatchBlock$filt$0 000000014001f618     libvcruntime:frame.obj
 0002:00009618       $unwind$?fin$0@?0???$common_lseek@_J@@YA_JH_JH@Z@4HA 000000014001f618     libucrt:lseek.obj
 0002:00009618       $unwind$?fin$0@?0???$?RV<lambda_d80eeec6fff315bfe5c115232f3240e3>@@AEAV<lambda_6e4b09c48022b2350581041d5f6b0c4c>@@V<lambda_2358e3775559c9db80273638284d5e45>@@@?$__crt_seh_guarded_call@X@@QEAAX$$QEAV<lambda_d80eeec6fff315bfe5c115232f3240e3>@@AEAV<lambda_6e4b09c48022b2350581041d5f6b0c4c>@@$$QEAV<lambda_2358e3775559c9db80273638284d5e45>@@@Z@4HA 000000014001f618     libucrt:exit.obj
 0002:00009618       $unwind$?fin$0@?0??update_thread_multibyte_data_internal@@YAPEAU__crt_multibyte_data@@QEAU__acrt_ptd@@QEAPEAU1@@Z@4HA 000000014001f618     libucrt:mbctype.obj
 0002:00009618       $unwind$_ctrlfp$filt$0     000000014001f618     libucrt:fpctrl.obj
 0002:00009618       $unwind$?fin$0@?0???$?RV<lambda_842d9ff0dc9ef11c61343bbaebe7f885>@@AEAV<lambda_c5860995281e5c4ce005b3de8f5874ee>@@V<lambda_d90129c13df834fdcbf8d2b88dafcf2d>@@@?$__crt_seh_guarded_call@X@@QEAAX$$QEAV<lambda_842d9ff0dc9ef11c61343bbaebe7f885>@@AEAV<lambda_c5860995281e5c4ce005b3de8f5874ee>@@$$QEAV<lambda_d90129c13df834fdcbf8d2b88dafcf2d>@@@Z@4HA 000000014001f618     libucrt:fflush.obj
 0002:00009618       $unwind$_write$fin$0       000000014001f618     libucrt:write.obj
 0002:00009618       $unwind$__FrameUnwindToState$filt$0 000000014001f618     libvcruntime:frame.obj
 0002:00009618       $unwind$__FrameUnwindToState$fin$1 000000014001f618     libvcruntime:frame.obj
 0002:00009618       $unwind$fclose$fin$0       000000014001f618     libucrt:fclose.obj
 0002:00009618       $unwind$__acrt_initialize_lowio$fin$0 000000014001f618     libucrt:ioinit.obj
 0002:00009618       $unwind$_fcloseall$fin$0   000000014001f618     libucrt:closeall.obj
 0002:00009618       $unwind$?fin$0@?0???$?RV<lambda_a37b2b86f63e897a80ea819b0eb08c01>@@AEAV<lambda_38ce7e780aa69e748d6df282ebc68efe>@@V<lambda_99fb1378e971ab6e7edea83e3a7a83a2>@@@?$__crt_seh_guarded_call@H@@QEAAH$$QEAV<lambda_a37b2b86f63e897a80ea819b0eb08c01>@@AEAV<lambda_38ce7e780aa69e748d6df282ebc68efe>@@$$QEAV<lambda_99fb1378e971ab6e7edea83e3a7a83a2>@@@Z@4HA 000000014001f618     libucrt:commit.obj
 0002:00009618       $unwind$__acrt_lowio_ensure_fh_exists$fin$0 000000014001f618     libucrt:osfinfo.obj
 0002:00009618       $unwind$?fin$0@?0???$?RV<lambda_efdfa57d1f175319df784efa44bb7b81>@@AEAV<lambda_5f0a4c1567f8adc6734073e5d1e1b35c>@@V<lambda_2e8a7d3640ea6ccb4c2413664c2db6fd>@@@?$__crt_seh_guarded_call@X@@QEAAX$$QEAV<lambda_efdfa57d1f175319df784efa44bb7b81>@@AEAV<lambda_5f0a4c1567f8adc6734073e5d1e1b35c>@@$$QEAV<lambda_2e8a7d3640ea6ccb4c2413664c2db6fd>@@@Z@4HA 000000014001f618     libucrt:mbctype.obj
 0002:00009618       $unwind$?fin$0@?0???$?RV<lambda_7777bce6b2f8c936911f934f8298dc43>@@AEAV<lambda_f03950bc5685219e0bcd2087efbe011e>@@V<lambda_3883c3dff614d5e0c5f61bb1ac94921c>@@@?$__crt_seh_guarded_call@H@@QEAAH$$QEAV<lambda_7777bce6b2f8c936911f934f8298dc43>@@AEAV<lambda_f03950bc5685219e0bcd2087efbe011e>@@$$QEAV<lambda_3883c3dff614d5e0c5f61bb1ac94921c>@@@Z@4HA 000000014001f618     libucrt:onexit.obj
 0002:00009618       $unwind$__acrt_update_thread_locale_data$fin$0 000000014001f618     libucrt:locale_refcounting.obj
 0002:00009618       $unwind$?fin$0@?0???$?RV<lambda_450d765d439847d4c735a33c368b5fc0>@@AEAV<lambda_44731a7d0e6d81c3e6aa82d741081786>@@V<lambda_601a2a7da3b7a96e9554ac7215c4b07c>@@@?$__crt_seh_guarded_call@P6AXH@Z@@QEAAP6AXH@Z$$QEAV<lambda_450d765d439847d4c735a33c368b5fc0>@@AEAV<lambda_44731a7d0e6d81c3e6aa82d741081786>@@$$QEAV<lambda_601a2a7da3b7a96e9554ac7215c4b07c>@@@Z@4HA 000000014001f618     libucrt:signal.obj
 0002:00009618       $unwind$?fin$0@?0???$?RV<lambda_8369fcb7c4df1e85de37618bd2b85f07>@@AEAV<lambda_a10e4b102d4a2c3aac6f4f48bbdf488f>@@V<lambda_5b7707bd6d7a0c4713179f36c7fd995d>@@@?$__crt_seh_guarded_call@H@@QEAAH$$QEAV<lambda_8369fcb7c4df1e85de37618bd2b85f07>@@AEAV<lambda_a10e4b102d4a2c3aac6f4f48bbdf488f>@@$$QEAV<lambda_5b7707bd6d7a0c4713179f36c7fd995d>@@@Z@4HA 000000014001f618     libucrt:onexit.obj
 0002:00009618       $unwind$?filt$0@?0??__scrt_common_main_seh@@YAHXZ@4HA 000000014001f618     LIBCMT:exe_main.obj
 0002:00009618       $unwind$?filt$0@?0???R<lambda_6e4b09c48022b2350581041d5f6b0c4c>@@QEBA@XZ@4HA 000000014001f618     libucrt:exit.obj
 0002:00009620       $unwind$terminate          000000014001f620     libucrt:terminate.obj
 0002:00009640       $unwind$??$parse_integer@KV?$c_string_character_source@D@__crt_strtox@@@__crt_strtox@@YAKQEAU__crt_locale_pointers@@V?$c_string_character_source@D@0@H_N@Z 000000014001f640     libucrt:atox.obj
 0002:0000965c       $unwind$?construct_ptd_array@@YAXQEAU__acrt_ptd@@@Z 000000014001f65c     libucrt:per_thread_data.obj
 0002:00009664       $unwind$?destroy_ptd_array@@YAXQEAU__acrt_ptd@@@Z 000000014001f664     libucrt:per_thread_data.obj
 0002:0000966c       $unwind$??$?RV<lambda_0ae27a3a962d80f24befdcbee591983d>@@AEAV<lambda_8d0ee55de4b1038c4002e0adecdf1839>@@V<lambda_dc504788e8f1664fe9b84e20bfb512f2>@@@?$__crt_seh_guarded_call@X@@QEAAX$$QEAV<lambda_0ae27a3a962d80f24befdcbee591983d>@@AEAV<lambda_8d0ee55de4b1038c4002e0adecdf1839>@@$$QEAV<lambda_dc504788e8f1664fe9b84e20bfb512f2>@@@Z 000000014001f66c     libucrt:per_thread_data.obj
 0002:00009690       $unwind$??$?RV<lambda_aa87e3671a710a21b5dc78c0bdf72e11>@@AEAV<lambda_92619d2358a28f41a33ba319515a20b9>@@V<lambda_6992ecaafeb10aed2b74cb1fae11a551>@@@?$__crt_seh_guarded_call@X@@QEAAX$$QEAV<lambda_aa87e3671a710a21b5dc78c0bdf72e11>@@AEAV<lambda_92619d2358a28f41a33ba319515a20b9>@@$$QEAV<lambda_6992ecaafeb10aed2b74cb1fae11a551>@@@Z 000000014001f690     libucrt:per_thread_data.obj
 0002:000096b4       $unwind$??$?RV<lambda_f2e299630e499de9f9a165e60fcd3db5>@@AEAV<lambda_2ae9d31cdba2644fcbeaf08da7c24588>@@V<lambda_40d01ff24d0e7b3814fdbdcee8eab3c7>@@@?$__crt_seh_guarded_call@X@@QEAAX$$QEAV<lambda_f2e299630e499de9f9a165e60fcd3db5>@@AEAV<lambda_2ae9d31cdba2644fcbeaf08da7c24588>@@$$QEAV<lambda_40d01ff24d0e7b3814fdbdcee8eab3c7>@@@Z 000000014001f6b4     libucrt:per_thread_data.obj
 0002:000096d8       $unwind$??$?RV<lambda_2d41944a1d46af3157314b8a01080d33>@@AEAV<lambda_8f455de75cd7d7f24b4096f044d8b9e6>@@V<lambda_aa500f224e6afead328df44964fe2772>@@@?$__crt_seh_guarded_call@X@@QEAAX$$QEAV<lambda_2d41944a1d46af3157314b8a01080d33>@@AEAV<lambda_8f455de75cd7d7f24b4096f044d8b9e6>@@$$QEAV<lambda_aa500f224e6afead328df44964fe2772>@@@Z 000000014001f6d8     libucrt:per_thread_data.obj
 0002:000096fc       $unwind$_fcloseall         000000014001f6fc     libucrt:closeall.obj
 0002:00009720       $unwind$?common_flush_all@@YAH_N@Z 000000014001f720     libucrt:fflush.obj
 0002:00009728       $unwind$??$?RV<lambda_842d9ff0dc9ef11c61343bbaebe7f885>@@AEAV<lambda_c5860995281e5c4ce005b3de8f5874ee>@@V<lambda_d90129c13df834fdcbf8d2b88dafcf2d>@@@?$__crt_seh_guarded_call@X@@QEAAX$$QEAV<lambda_842d9ff0dc9ef11c61343bbaebe7f885>@@AEAV<lambda_c5860995281e5c4ce005b3de8f5874ee>@@$$QEAV<lambda_d90129c13df834fdcbf8d2b88dafcf2d>@@@Z 000000014001f728     libucrt:fflush.obj
 0002:0000974c       $unwind$??$?RV<lambda_886d6c58226a84441f68b9f2b8217b83>@@AEAV<lambda_ab61a845afdef5b7c387490eaf3616ee>@@V<lambda_f7f22ab5edc0698d5f6905b0d3f44752>@@@?$__crt_seh_guarded_call@X@@QEAAX$$QEAV<lambda_886d6c58226a84441f68b9f2b8217b83>@@AEAV<lambda_ab61a845afdef5b7c387490eaf3616ee>@@$$QEAV<lambda_f7f22ab5edc0698d5f6905b0d3f44752>@@@Z 000000014001f74c     libucrt:fflush.obj
 0002:00009774       $unwind$__acrt_initialize_lowio 000000014001f774     libucrt:ioinit.obj
 0002:00009794       $unwind$?initialize_inherited_file_handles_nolock@@YAXXZ 000000014001f794     libucrt:ioinit.obj
 0002:000097b0       $unwind$_free_osfhnd       000000014001f7b0     libucrt:osfinfo.obj
 0002:000097b0       $unwind$?initialize_stdio_handles_nolock@@YAXXZ 000000014001f7b0     libucrt:ioinit.obj
 0002:000097b0       $unwind$__std_exception_copy 000000014001f7b0     libvcruntime:std_exception.obj
 0002:000097c4       $unwind$?getSystemCP@@YAHH@Z 000000014001f7c4     libucrt:mbctype.obj
 0002:000097c4       $unwind$isdigit            000000014001f7c4     libucrt:_ctype.obj
 0002:000097c4       $unwind$_isleadbyte_l      000000014001f7c4     libucrt:_wctype.obj
 0002:000097c4       $unwind$?_TlgWrite@__vcrt_trace_logging_provider@@YAJPEBU_TlgProvider_t@1@PEFBXPEBU_GUID@@2IPEAU_EVENT_DATA_DESCRIPTOR@@@Z 000000014001f7c4     libvcruntime:telemetry.obj
 0002:000097c4       $unwind$__dcrt_lowio_ensure_console_output_initialized 000000014001f7c4     libucrt:initcon.obj
 0002:000097cc       $unwind$_tolower_l         000000014001f7cc     libucrt:tolower_toupper.obj
 0002:000097dc       $unwind$?try_cor_exit_process@@YAXI@Z 000000014001f7dc     libucrt:exit.obj
 0002:000097dc       $unwind$__raise_securityfailure 000000014001f7dc     LIBCMT:gs_report.obj
 0002:000097dc       $unwind$?state_case_normal@?$output_processor@DV?$stream_output_adapter@D@__crt_stdio_output@@V?$format_validation_base@DV?$stream_output_adapter@D@__crt_stdio_output@@@2@@__crt_stdio_output@@AEAA_NXZ 000000014001f7dc     libucrt:output.obj
 0002:000097dc       $unwind$?type_case_s@?$output_processor@DV?$stream_output_adapter@D@__crt_stdio_output@@V?$format_validation_base@DV?$stream_output_adapter@D@__crt_stdio_output@@@2@@__crt_stdio_output@@AEAA_NXZ 000000014001f7dc     libucrt:output.obj
 0002:000097dc       $unwind$??_Gtype_info@@UEAAPEAXI@Z 000000014001f7dc     LIBCMT:std_type_info_static.obj
 0002:000097dc       $unwind$__acrt_AppPolicyGetProcessTerminationMethodInternal 000000014001f7dc     libucrt:winapi_thunks.obj
 0002:000097dc       $unwind$??2@YAPEAX_K@Z     000000014001f7dc     LIBCMT:new_scalar.obj
 0002:000097dc       $unwind$_fflush_nolock     000000014001f7dc     libucrt:fflush.obj
 0002:000097dc       $unwind$__acrt_FlsGetValue 000000014001f7dc     libucrt:winapi_thunks.obj
 0002:000097dc       $unwind$__acrt_FlsFree     000000014001f7dc     libucrt:winapi_thunks.obj
 0002:000097dc       $unwind$??0bad_array_new_length@std@@QEAA@AEBV01@@Z 000000014001f7dc     LIBCMT:throw_bad_alloc.obj
 0002:000097dc       $unwind$__acrt_FlsAlloc    000000014001f7dc     libucrt:winapi_thunks.obj
 0002:000097dc       $unwind$__acrt_uninitialize_stdio 000000014001f7dc     libucrt:_file.obj
 0002:000097dc       $unwind$__acrt_uninitialize_winapi_thunks 000000014001f7dc     libucrt:winapi_thunks.obj
 0002:000097dc       $unwind$__acrt_stdio_free_buffer_nolock 000000014001f7dc     libucrt:_freebuf.obj
 0002:000097dc       $unwind$__acrt_stdio_allocate_buffer_nolock 000000014001f7dc     libucrt:_getbuf.obj
 0002:000097dc       $unwind$strcpy_s           000000014001f7dc     libucrt:strcpy_s.obj
 0002:000097dc       $unwind$??0out_of_range@std@@QEAA@AEBV01@@Z 000000014001f7dc     libcpmt:xthrow.obj
 0002:000097dc       $unwind$?pre_c_initialization@@YAHXZ 000000014001f7dc     LIBCMT:exe_main.obj
 0002:000097dc       $unwind$fegetenv           000000014001f7dc     libucrt:fegetenv.obj
 0002:000097dc       $unwind$feholdexcept       000000014001f7dc     libucrt:feholdexcept.obj
 0002:000097dc       $unwind$fesetenv           000000014001f7dc     libucrt:fesetenv.obj
 0002:000097dc       $unwind$_onexit            000000014001f7dc     LIBCMT:utility.obj
 0002:000097dc       $unwind$__acrt_getptd_head 000000014001f7dc     libucrt:per_thread_data.obj
 0002:000097dc       $unwind$??0length_error@std@@QEAA@AEBV01@@Z 000000014001f7dc     libcpmt:xthrow.obj
 0002:000097dc       $unwind$??0logic_error@std@@QEAA@AEBV01@@Z 000000014001f7dc     libcpmt:xthrow.obj
 0002:000097dc       $unwind$_clrfp             000000014001f7dc     libucrt:fpctrl.obj
 0002:000097dc       $unwind$?internal_isupper_l@@YA_NHQEAU__crt_locale_pointers@@@Z 000000014001f7dc     libucrt:tolower_toupper.obj
 0002:000097dc       $unwind$??0bad_alloc@std@@QEAA@AEBV01@@Z 000000014001f7dc     libcpmt:xthrow.obj
 0002:000097dc       $unwind$?__GetUnwindTryBlock@@YAHPEA_KPEAU_xDISPATCHER_CONTEXT@@PEBU_s_FuncInfo@@@Z 000000014001f7dc     libvcruntime:ehstate.obj
 0002:000097dc       $unwind$??0exception@std@@QEAA@AEBV01@@Z 000000014001f7dc     libcpmt:xthrow.obj
 0002:000097dc       $unwind$?__StateFromIp@@YAHPEBU_s_FuncInfo@@PEAU_xDISPATCHER_CONTEXT@@_J@Z 000000014001f7dc     libvcruntime:ehstate.obj
 0002:000097dc       $unwind$__vcrt_uninitialize_locks 000000014001f7dc     libvcruntime:locks.obj
 0002:000097dc       $unwind$__scrt_release_startup_lock 000000014001f7dc     LIBCMT:utility.obj
 0002:000097dc       $unwind$?exit_or_terminate_process@@YAXI@Z 000000014001f7dc     libucrt:exit.obj
 0002:000097dc       $unwind$__acrt_fp_strflt_to_string 000000014001f7dc     libucrt:_fptostr.obj
 0002:000097dc       $unwind$__acrt_uninitialize_locks 000000014001f7dc     libucrt:locks.obj
 0002:000097dc       $unwind$__acrt_initialize_locks 000000014001f7dc     libucrt:locks.obj
 0002:000097dc       $unwind$__acrt_get_process_end_policy 000000014001f7dc     libucrt:win_policies.obj
 0002:000097dc       $unwind$_calloc_base       000000014001f7dc     libucrt:calloc_base.obj
 0002:000097dc       $unwind$uninitialize_allocated_memory 000000014001f7dc     libucrt:initialization.obj
 0002:000097dc       $unwind$initialize_pointers 000000014001f7dc     libucrt:initialization.obj
 0002:000097dc       $unwind$__scrt_initialize_crt 000000014001f7dc     LIBCMT:utility.obj
 0002:000097dc       $unwind$__vcrt_initialize_locks 000000014001f7dc     libvcruntime:locks.obj
 0002:000097dc       $unwind$_SetImageBase      000000014001f7dc     libvcruntime:trnsctrl.obj
 0002:000097dc       $unwind$_malloc_base       000000014001f7dc     libucrt:malloc_base.obj
 0002:000097dc       $unwind$__scrt_uninitialize_crt 000000014001f7dc     LIBCMT:utility.obj
 0002:000097dc       $unwind$_SetThrowImageBase 000000014001f7dc     libvcruntime:trnsctrl.obj
 0002:000097dc       $unwind$??0bad_exception@std@@QEAA@AEBV01@@Z 000000014001f7dc     libvcruntime:frame.obj
 0002:000097dc       $unwind$__acrt_update_locale_info 000000014001f7dc     libucrt:locale_update.obj
 0002:000097dc       $unwind$_callnewh          000000014001f7dc     libucrt:new_handler.obj
 0002:000097dc       $unwind$__acrt_update_multibyte_info 000000014001f7dc     libucrt:locale_update.obj
 0002:000097dc       $unwind$__vcrt_uninitialize 000000014001f7dc     libvcruntime:initialization.obj
 0002:000097dc       $unwind$_configthreadlocale 000000014001f7dc     libucrt:wsetlocale.obj
 0002:000097dc       $unwind$_CreateFrameInfo   000000014001f7dc     libvcruntime:trnsctrl.obj
 0002:000097dc       $unwind$_IsExceptionObjectToBeDestroyed 000000014001f7dc     libvcruntime:trnsctrl.obj
 0002:000097dc       $unwind$_set_statfp        000000014001f7dc     libucrt:fpctrl.obj
 0002:000097dc       $unwind$_clearfp           000000014001f7dc     libucrt:ieee.obj
 0002:000097dc       $unwind$__std_exception_destroy 000000014001f7dc     libvcruntime:std_exception.obj
 0002:000097dc       $unwind$__acrt_allocate_buffer_for_argv 000000014001f7dc     libucrt:argv_parsing.obj
 0002:000097e4       $unwind$_mbtowc_l          000000014001f7e4     libucrt:mbtowc.obj
 0002:000097fc       $unwind$_wctomb_s_l        000000014001f7fc     libucrt:wctomb.obj
 0002:0000980c       $unwind$__acrt_fp_format   000000014001f80c     libucrt:cvt.obj
 0002:00009820       $unwind$?fp_format_nan_or_infinity@@YAHW4__acrt_fp_class@@_NPEAD_K1@Z 000000014001f820     libucrt:cvt.obj
 0002:00009834       $unwind$?fp_format_e_internal@@YAHQEAD_KH_NIQEAU_strflt@@2QEAU__crt_locale_pointers@@@Z 000000014001f834     libucrt:cvt.obj
 0002:0000984c       $unwind$__acrt_LCMapStringEx 000000014001f84c     libucrt:winapi_thunks.obj
 0002:0000984c       $unwind$?fp_format_e@@YAHQEBNQEAD_K12H_NIQEAU__crt_locale_pointers@@@Z 000000014001f84c     libucrt:cvt.obj
 0002:0000984c       $unwind$__acrt_CompareStringEx 000000014001f84c     libucrt:winapi_thunks.obj
 0002:00009860       $unwind$?fp_format_a@@YAHQEBNPEAD_KQEAD2H_NIQEAU__crt_locale_pointers@@@Z 000000014001f860     libucrt:cvt.obj
 0002:0000987c       $unwind$__dcrt_get_narrow_environment_from_os 000000014001f87c     libucrt:get_environment_from_os.obj
 0002:0000987c       $unwind$?fp_format_f_internal@@YAHQEAD_KHQEAU_strflt@@_NQEAU__crt_locale_pointers@@@Z 000000014001f87c     libucrt:cvt.obj
 0002:00009894       $unwind$?fp_format_g@@YAHQEBNQEAD_K12H_NIQEAU__crt_locale_pointers@@@Z 000000014001f894     libucrt:cvt.obj
 0002:000098a8       $unwind$__acrt_errno_map_os_error 000000014001f8a8     libucrt:errno.obj
 0002:000098a8       $unwind$??$common_initialize_environment_nolock@D@@YAHXZ 000000014001f8a8     libucrt:environment_initialization.obj
 0002:000098a8       $unwind$__acrt_LocaleNameToLCID 000000014001f8a8     libucrt:winapi_thunks.obj
 0002:000098a8       $unwind$__vcrt_FlsAlloc    000000014001f8a8     libvcruntime:winapi_downlevel.obj
 0002:000098a8       $unwind$__vcrt_EventUnregister 000000014001f8a8     libvcruntime:winapi_downlevel.obj
 0002:000098a8       $unwind$__vcrt_FlsFree     000000014001f8a8     libvcruntime:winapi_downlevel.obj
 0002:000098a8       $unwind$__acrt_FlsSetValue 000000014001f8a8     libucrt:winapi_thunks.obj
 0002:000098a8       $unwind$?force_decimal_point@__crt_stdio_output@@YAXPEADQEAU__crt_locale_pointers@@@Z 000000014001f8a8     libucrt:output.obj
 0002:000098a8       $unwind$?type_case_c_tchar@?$output_processor@DV?$stream_output_adapter@D@__crt_stdio_output@@V?$format_validation_base@DV?$stream_output_adapter@D@__crt_stdio_output@@@2@@__crt_stdio_output@@AEAA_ND@Z 000000014001f8a8     libucrt:output.obj
 0002:000098a8       $unwind$?state_case_normal_tchar@?$output_processor@DV?$stream_output_adapter@D@__crt_stdio_output@@V?$format_validation_base@DV?$stream_output_adapter@D@__crt_stdio_output@@@2@@__crt_stdio_output@@AEAA_ND@Z 000000014001f8a8     libucrt:output.obj
 0002:000098a8       $unwind$??0_LocaleUpdate@@QEAA@QEAU__crt_locale_pointers@@@Z 000000014001f8a8     libucrt:output.obj
 0002:000098a8       $unwind$??_Gbad_exception@std@@UEAAPEAXI@Z 000000014001f8a8     libvcruntime:frame.obj
 0002:000098a8       $unwind$??_Gbad_array_new_length@std@@UEAAPEAXI@Z 000000014001f8a8     LIBCMT:throw_bad_alloc.obj
 0002:000098a8       $unwind$__vcrt_FlsGetValue 000000014001f8a8     libvcruntime:winapi_downlevel.obj
 0002:000098a8       $unwind$_close_nolock      000000014001f8a8     libucrt:close.obj
 0002:000098a8       $unwind$_updatetlocinfoEx_nolock 000000014001f8a8     libucrt:locale_refcounting.obj
 0002:000098a8       $unwind$_FindAndUnlinkFrame 000000014001f8a8     libvcruntime:trnsctrl.obj
 0002:000098a8       $unwind$__acrt_execute_uninitializers 000000014001f8a8     libucrt:shared_initialization.obj
 0002:000098a8       $unwind$__acrt_stdio_begin_temporary_buffering_nolock 000000014001f8a8     libucrt:_sftbuf.obj
 0002:000098a8       $unwind$_fclose_nolock     000000014001f8a8     libucrt:fclose.obj
 0002:000098a8       $unwind$??_Gout_of_range@std@@UEAAPEAXI@Z 000000014001f8a8     libcpmt:xthrow.obj
 0002:000098a8       $unwind$?ExFilterRethrow@@YAHPEAU_EXCEPTION_POINTERS@@PEAUEHExceptionRecord@@PEAH@Z 000000014001f8a8     libvcruntime:frame.obj
 0002:000098a8       $unwind$?replace_current_thread_locale_nolock@@YAXQEAU__acrt_ptd@@QEAU__crt_locale_data@@@Z 000000014001f8a8     libucrt:per_thread_data.obj
 0002:000098a8       $unwind$??_Glength_error@std@@UEAAPEAXI@Z 000000014001f8a8     libcpmt:xthrow.obj
 0002:000098a8       $unwind$__acrt_getptd_noexit 000000014001f8a8     libucrt:per_thread_data.obj
 0002:000098a8       $unwind$__acrt_getptd      000000014001f8a8     libucrt:per_thread_data.obj
 0002:000098a8       $unwind$??_Glogic_error@std@@UEAAPEAXI@Z 000000014001f8a8     libcpmt:xthrow.obj
 0002:000098a8       $unwind$__acrt_uninitialize_lowio 000000014001f8a8     libucrt:ioinit.obj
 0002:000098a8       $unwind$??_Gbad_alloc@std@@UEAAPEAXI@Z 000000014001f8a8     libcpmt:xthrow.obj
 0002:000098a8       $unwind$_initterm_e        000000014001f8a8     libucrt:initterm.obj
 0002:000098a8       $unwind$?__SetUnwindTryBlock@@YAXPEA_KPEAU_xDISPATCHER_CONTEXT@@PEBU_s_FuncInfo@@H@Z 000000014001f8a8     libvcruntime:ehstate.obj
 0002:000098a8       $unwind$??_Gexception@std@@UEAAPEAXI@Z 000000014001f8a8     libcpmt:xthrow.obj
 0002:000098a8       $unwind$_realloc_base      000000014001f8a8     libucrt:realloc_base.obj
 0002:000098a8       $unwind$strncpy_s          000000014001f8a8     libucrt:strncpy_s.obj
 0002:000098b4       $unwind$__vcrt_uninitialize_winapi_thunks 000000014001f8b4     libvcruntime:winapi_downlevel.obj
 0002:000098b4       $unwind$__acrt_stdio_end_temporary_buffering_nolock 000000014001f8b4     libucrt:_sftbuf.obj
 0002:000098bc       $unwind$_setmbcp_nolock    000000014001f8bc     libucrt:mbctype.obj
 0002:000098dc       $unwind$?update_thread_multibyte_data_internal@@YAPEAU__crt_multibyte_data@@QEAU__acrt_ptd@@QEAPEAU1@@Z 000000014001f8dc     libucrt:mbctype.obj
 0002:00009904       $unwind$?setmbcp_internal@@YAHH_NQEAU__acrt_ptd@@QEAPEAU__crt_multibyte_data@@@Z 000000014001f904     libucrt:mbctype.obj
 0002:00009914       $unwind$?setSBUpLow@@YAXPEAU__crt_multibyte_data@@@Z 000000014001f914     libucrt:mbctype.obj
 0002:00009930       $unwind$??$?RV<lambda_efdfa57d1f175319df784efa44bb7b81>@@AEAV<lambda_5f0a4c1567f8adc6734073e5d1e1b35c>@@V<lambda_2e8a7d3640ea6ccb4c2413664c2db6fd>@@@?$__crt_seh_guarded_call@X@@QEAAX$$QEAV<lambda_efdfa57d1f175319df784efa44bb7b81>@@AEAV<lambda_5f0a4c1567f8adc6734073e5d1e1b35c>@@$$QEAV<lambda_2e8a7d3640ea6ccb4c2413664c2db6fd>@@@Z 000000014001f930     libucrt:mbctype.obj
 0002:00009958       $unwind$??$common_set_variable_in_environment_nolock@D@@YAHQEADH@Z 000000014001f958     libucrt:setenv.obj
 0002:00009970       $unwind$??$copy_environment@D@@YAPEAPEADQEAPEAD@Z 000000014001f970     libucrt:setenv.obj
 0002:00009984       $unwind$__acrt_lowio_create_handle_array 000000014001f984     libucrt:osfinfo.obj
 0002:00009984       $unwind$__vcrt_InitializeCriticalSectionEx 000000014001f984     libvcruntime:winapi_downlevel.obj
 0002:00009984       $unwind$_seh_filter_exe    000000014001f984     libucrt:exception_filter.obj
 0002:00009984       $unwind$?setSBCS@@YAXPEAU__crt_multibyte_data@@@Z 000000014001f984     libucrt:mbctype.obj
 0002:00009984       $unwind$__acrt_free_locale 000000014001f984     libucrt:locale_refcounting.obj
 0002:00009984       $unwind$??$ensure_buffer_is_big_enough@D@formatting_buffer@__crt_stdio_output@@QEAA_N_K@Z 000000014001f984     libucrt:output.obj
 0002:00009984       $unwind$_initterm          000000014001f984     libucrt:initterm.obj
 0002:00009984       $unwind$_recalloc_base     000000014001f984     libucrt:recalloc.obj
 0002:00009998       $unwind$raise              000000014001f998     libucrt:signal.obj
 0002:000099c4       $unwind$??$?RV<lambda_450d765d439847d4c735a33c368b5fc0>@@AEAV<lambda_44731a7d0e6d81c3e6aa82d741081786>@@V<lambda_601a2a7da3b7a96e9554ac7215c4b07c>@@@?$__crt_seh_guarded_call@P6AXH@Z@@QEAAP6AXH@Z$$QEAV<lambda_450d765d439847d4c735a33c368b5fc0>@@AEAV<lambda_44731a7d0e6d81c3e6aa82d741081786>@@$$QEAV<lambda_601a2a7da3b7a96e9554ac7215c4b07c>@@@Z 000000014001f9c4     libucrt:signal.obj
 0002:000099e8       $unwind$??$common_expand_argv_wildcards@D@@YAHQEAPEADQEAPEAPEAD@Z 000000014001f9e8     libucrt:argv_wildcards.obj
 0002:00009a00       $unwind$??$copy_and_add_argument_to_buffer@D@@YAHQEBD0_KAEAV?$argument_list@D@?A0x5f5c8891@@@Z 000000014001fa00     libucrt:argv_wildcards.obj
 0002:00009a1c       $unwind$??$expand_argument_wildcards@D@@YAHQEAD0AEAV?$argument_list@D@?A0x5f5c8891@@@Z 000000014001fa1c     libucrt:argv_wildcards.obj
 0002:00009a3c       $unwind$?x_ismbbtype_l@@YAHPEAU__crt_locale_pointers@@IHH@Z 000000014001fa3c     libucrt:ismbbyte.obj
 0002:00009a4c       $unwind$__acrt_lowio_destroy_handle_array 000000014001fa4c     libucrt:osfinfo.obj
 0002:00009a5c       $unwind$__acrt_lowio_ensure_fh_exists 000000014001fa5c     libucrt:osfinfo.obj
 0002:00009a88       $unwind$__acrt_locale_free_monetary 000000014001fa88     libucrt:initmon.obj
 0002:00009a90       $unwind$__acrt_locale_free_time 000000014001fa90     libucrt:inittime.obj
 0002:00009aa0       $unwind$__acrt_GetStringTypeA 000000014001faa0     libucrt:getstringtypea.obj
 0002:00009ac8       $unwind$_free_base         000000014001fac8     libucrt:free_base.obj
 0002:00009ac8       $unwind$__acrt_locale_free_numeric 000000014001fac8     libucrt:initnum.obj
 0002:00009ac8       $unwind$__acrt_locale_free_lc_time_if_unreferenced 000000014001fac8     libucrt:locale_refcounting.obj
 0002:00009ac8       $unwind$?destroy_fls@@YAXPEAX@Z 000000014001fac8     libucrt:per_thread_data.obj
 0002:00009ad0       $unwind$__acrt_update_thread_locale_data 000000014001fad0     libucrt:locale_refcounting.obj
 0002:00009af4       $unwind$_isctype_l         000000014001faf4     libucrt:isctype.obj
 0002:00009b10       $unwind$?GetTableIndexFromLocaleName@@YAHPEB_W@Z 000000014001fb10     libucrt:lcidtoname_downlevel.obj
 0002:00009b28       $unwind$fclose             000000014001fb28     libucrt:fclose.obj
 0002:00009b4c       $unwind$??$?RV<lambda_a37b2b86f63e897a80ea819b0eb08c01>@@AEAV<lambda_38ce7e780aa69e748d6df282ebc68efe>@@V<lambda_99fb1378e971ab6e7edea83e3a7a83a2>@@@?$__crt_seh_guarded_call@H@@QEAAH$$QEAV<lambda_a37b2b86f63e897a80ea819b0eb08c01>@@AEAV<lambda_38ce7e780aa69e748d6df282ebc68efe>@@$$QEAV<lambda_99fb1378e971ab6e7edea83e3a7a83a2>@@@Z 000000014001fb4c     libucrt:commit.obj
 0002:00009b70       $unwind$_write             000000014001fb70     libucrt:write.obj
 0002:00009ba0       $unwind$_write_nolock      000000014001fba0     libucrt:write.obj
 0002:00009bb8       $unwind$?write_double_translated_ansi_nolock@@YA?AUwrite_result@?A0x17268360@@HQEBDI@Z 000000014001fbb8     libucrt:write.obj
 0002:00009bd8       $unwind$?write_text_utf16le_nolock@@YA?AUwrite_result@?A0x17268360@@HQEBDI@Z 000000014001fbd8     libucrt:write.obj
 0002:00009bd8       $unwind$?write_text_ansi_nolock@@YA?AUwrite_result@?A0x17268360@@HQEBDI@Z 000000014001fbd8     libucrt:write.obj
 0002:00009bf8       $unwind$?write_text_utf8_nolock@@YA?AUwrite_result@?A0x17268360@@HQEBDI@Z 000000014001fbf8     libucrt:write.obj
 0002:00009c1c       $unwind$__acrt_LCMapStringA 000000014001fc1c     libucrt:lcmapstringa.obj
 0002:00009c2c       $unwind$?__acrt_LCMapStringA_stat@@YAHPEAU__crt_locale_pointers@@PEB_WKPEBDHPEADHHH@Z 000000014001fc2c     libucrt:lcmapstringa.obj
 0002:00009c54       $unwind$__acrt_fltout      000000014001fc54     libucrt:cfout.obj
 0002:00009c74       $unwind$?divide@__crt_strtox@@YA_KAEAUbig_integer@1@AEBU21@@Z 000000014001fc74     libucrt:cfout.obj
 0002:00009c94       $chain$5$?divide@__crt_strtox@@YA_KAEAUbig_integer@1@AEBU21@@Z 000000014001fc94     libucrt:cfout.obj
 0002:00009ca8       $chain$6$?divide@__crt_strtox@@YA_KAEAUbig_integer@1@AEBU21@@Z 000000014001fca8     libucrt:cfout.obj
 0002:00009cb8       $unwind$??$write_buffer_nolock@D@@YA_NDV__crt_stdio_stream@@@Z 000000014001fcb8     libucrt:_flsbuf.obj
 0002:00009cc8       $unwind$_strnicoll_l       000000014001fcc8     libucrt:strnicol.obj
 0002:00009cdc       $unwind$qsort              000000014001fcdc     libucrt:qsort.obj
 0002:00009cf4       $chain$4$qsort             000000014001fcf4     libucrt:qsort.obj
 0002:00009d18       $chain$5$qsort             000000014001fd18     libucrt:qsort.obj
 0002:00009d28       $unwind$strpbrk            000000014001fd28     libucrt:strpbrk.obj
 0002:00009d38       $unwind$fallbackMethod     000000014001fd38     libucrt:strpbrk.obj
 0002:00009d48       $unwind$_mbsdec_l          000000014001fd48     libucrt:mbsdec.obj
 0002:00009d54       $unwind$_close             000000014001fd54     libucrt:close.obj
 0002:00009d54       $unwind$_commit            000000014001fd54     libucrt:commit.obj
 0002:00009d5c       $unwind$??$?RV<lambda_751a882b2c74d4b022dec766aa51a29a>@@AEAV<lambda_628dfdc04ba53c8bfc02c9951375f3f5>@@V<lambda_f6c7be5f7998530c34de24c7437d6b54>@@@?$__crt_seh_guarded_call@H@@QEAAH$$QEAV<lambda_751a882b2c74d4b022dec766aa51a29a>@@AEAV<lambda_628dfdc04ba53c8bfc02c9951375f3f5>@@$$QEAV<lambda_f6c7be5f7998530c34de24c7437d6b54>@@@Z 000000014001fd5c     libucrt:close.obj
 0002:00009d80       $unwind$??$common_lseek@_J@@YA_JH_JH@Z 000000014001fd80     libucrt:lseek.obj
 0002:00009db0       $xdatasym                  000000014001fdb0     libucrt:log10.obj
 0002:00009dbc       $unwind$__dcrt_write_console_w 000000014001fdbc     libucrt:initcon.obj
 0002:00009dbc       $unwind$?__SehTransFilter@@YAHPEAU_EXCEPTION_POINTERS@@PEAUEHExceptionRecord@@PEA_KPEAU_CONTEXT@@PEAU_xDISPATCHER_CONTEXT@@PEBU_s_FuncInfo@@PEAH@Z 000000014001fdbc     libvcruntime:trnsctrl.obj
 0002:00009dbc       $unwind$_strnicmp_l        000000014001fdbc     libucrt:strnicmp.obj
 0002:00009dd0       $unwind$__acrt_CompareStringA 000000014001fdd0     libucrt:comparestringa.obj
 0002:00009de0       $unwind$?InternalCompareStringA@@YAHPEAU__crt_locale_pointers@@PEB_WKPEBDH2HH@Z 000000014001fde0     libucrt:comparestringa.obj
 0002:00009e04       $unwind$__acrt_fenv_set_control 000000014001fe04     libucrt:_fenvutils.obj
 0002:00009e14       $unwind$_call_matherr      000000014001fe14     libucrt:libm_error.obj
 0002:00009e1c       $unwind$_handle_error      000000014001fe1c     libucrt:libm_error.obj
 0002:00009e3c       $unwind$__acrt_initialize_fma3 000000014001fe3c     libucrt:fma3_available.obj
 0002:00009e44       $unwind$_log_special_common 000000014001fe44     libucrt:log_special.obj
 0002:00009e50       $unwind$strtol             000000014001fe50     libucrt:strtox.obj
 0002:00009e50       $unwind$wctomb_s           000000014001fe50     libucrt:wctomb.obj
 0002:00009e50       $unwind$_invalid_parameter_noinfo 000000014001fe50     libucrt:invalid_parameter.obj
 0002:00009e50       $unwind$_log10_special     000000014001fe50     libucrt:log_special.obj
 0002:00009e50       $unwind$_invalid_parameter_noinfo_noreturn 000000014001fe50     libucrt:invalid_parameter.obj
 0002:00009e58       $xdatasym                  000000014001fe58     libucrt:fpsr.obj
 0002:00009e60       $unwind$_raise_exc_ex      000000014001fe60     libucrt:fpexcept.obj
 0002:00009e74       $unwind$_ctrlfp            000000014001fe74     libucrt:fpctrl.obj
 0002:00009e9c       $unwind$ParseCommandLine   000000014001fe9c     SDL2main:SDL_windows_main.obj
 0002:00009ea8       $chain$2$main_getcmdline   000000014001fea8     SDL2main:SDL_windows_main.obj
 0002:00009ebc       $chain$0$main_getcmdline   000000014001febc     SDL2main:SDL_windows_main.obj
 0002:00009ed0       $unwind$main_getcmdline    000000014001fed0     SDL2main:SDL_windows_main.obj
 0002:00009edc       $unwind$_IsNonwritableInCurrentImage 000000014001fedc     LIBCMT:pesect.obj
 0002:00009f00       $xdatasym                  000000014001ff00     LIBCMT:_chkstk_.obj
 0002:00009f08       $xdatasym                  000000014001ff08     libvcruntime:memcmp.obj
 0002:00009f0c       $unwind$strrchr            000000014001ff0c     libvcruntime:strrchr.obj
 0002:00009f0c       $unwind$strchr             000000014001ff0c     libvcruntime:strchr.obj
 0002:0000a6e6       .idata$6                   00000001400206e6     SDL2:SDL2.dll
 0002:0000a726       .idata$6                   0000000140020726     SDL2_image:SDL2_image.dll
 0002:0000a786       .idata$6                   0000000140020786     SDL2_ttf:SDL2_ttf.dll
 0002:0000a904       .idata$6                   0000000140020904     kernel32:KERNEL32.dll
 0002:0000acd8       .idata$6                   0000000140020cd8     advapi32:ADVAPI32.dll
 0003:00000040       ?_Tlg_Microsoft_CRTProviderProv@@3U_TlgProvider_t@__vcrt_trace_logging_provider@@A 0000000140021040     libvcruntime:telemetry.obj
 0003:00000090       ?__vcrt_flsindex@@3KA      0000000140021090     libvcruntime:per_thread_data.obj
 0003:000001ac       ?__acrt_flsindex@@3KA      00000001400211ac     libucrt:per_thread_data.obj
 0003:000001b0       ?errno_no_memory@@3HA      00000001400211b0     libucrt:errno.obj
 0003:000001b4       ?doserrno_no_memory@@3KA   00000001400211b4     libucrt:errno.obj
 0003:000005a0       _mbctypes                  00000001400215a0     libucrt:mbctype.obj
 0003:000006b0       _mbcasemaps                00000001400216b0     libucrt:mbctype.obj
 0003:000007b0       ?__rgctypeflag@@3PADA      00000001400217b0     libucrt:mbctype.obj
 0003:000007c0       ?__rgcode_page_info@@3PAUcode_page_info@@A 00000001400217c0     libucrt:mbctype.obj
 0003:00000960       ?__dcrt_lowio_console_output_handle@@3PEAXEA 0000000140021960     libucrt:initcon.obj
 0003:00000970       ?dazSupported@?1??_ctrlfp@@9@9 0000000140021970     libucrt:fpctrl.obj
 0003:00000b68       ?module_local_atexit_table@@3U_onexit_table_t@@A 0000000140021b68     LIBCMT:utility.obj
 0003:00000b80       ?module_local_at_quick_exit_table@@3U_onexit_table_t@@A 0000000140021b80     LIBCMT:utility.obj
 0003:00000b98       ?is_initialized_as_dll@@3_NA 0000000140021b98     LIBCMT:utility.obj
 0003:00000bb0       GS_ExceptionRecord         0000000140021bb0     LIBCMT:gs_report.obj
 0003:00000c50       GS_ContextRecord           0000000140021c50     LIBCMT:gs_report.obj
 0003:00001140       ?__vcrt_startup_thread_ptd@@3U__vcrt_ptd@@A 0000000140022140     libvcruntime:per_thread_data.obj
 0003:000011c0       __vcrt_lock_table          00000001400221c0     libvcruntime:locks.obj
 0003:000011e8       __vcrt_locks_initialized   00000001400221e8     libvcruntime:locks.obj
 0003:000011f0       ?module_handles@@3PAPEAUHINSTANCE__@@A 00000001400221f0     libvcruntime:winapi_downlevel.obj
 0003:00001210       ?encoded_function_pointers@@3PAPEAXA 0000000140022210     libvcruntime:winapi_downlevel.obj
 0003:000012a8       ?heap@@3V_HeapManager@@A   00000001400222a8     libvcruntime:undname.obj
 0003:000012d0       ?__acrt_invalid_parameter_handler@@3V?$dual_state_global@P6AXPEB_W00I_K@Z@__crt_state_management@@A 00000001400222d0     libucrt:invalid_parameter.obj
 0003:000012f0       ?__acrt_new_handler@@3V?$dual_state_global@P6AH_K@Z@__crt_state_management@@A 00000001400222f0     libucrt:new_handler.obj
 0003:000012f8       ?c_termination_complete@@3JA 00000001400222f8     libucrt:exit.obj
 0003:00001300       ?thread_local_exit_callback_func@@3P6AXPEAXK0@ZEA 0000000140022300     libucrt:exit.obj
 0003:00001360       ?__acrt_app_type@@3W4_crt_app_type@@A 0000000140022360     libucrt:report_runtime_error.obj
 0003:00001368       ?user_matherr@@3V?$dual_state_global@P6AHPEAU_exception@@@Z@__crt_state_management@@A 0000000140022368     libucrt:matherr.obj
 0003:00001370       ?program_name@?1???$common_configure_argv@D@@YAHW4_crt_argv_mode@@@Z@4PADA 0000000140022370     libucrt:argv_parsing.obj
 0003:000014ac       ?__acrt_global_new_mode@@3V?$dual_state_global@J@__crt_state_management@@A 00000001400224ac     libucrt:new_mode.obj
 0003:000014c0       ?module_handles@@3PAPEAUHINSTANCE__@@A 00000001400224c0     libucrt:winapi_thunks.obj
 0003:00001560       ?encoded_function_pointers@@3PAPEAXA 0000000140022560     libucrt:winapi_thunks.obj
 0003:00001a78       ?enable_percent_n@@3_KA    0000000140022a78     libucrt:printf_count_output.obj
 0003:00001aa0       ?__acrt_lock_table@@3PAU_RTL_CRITICAL_SECTION@@A 0000000140022aa0     libucrt:locks.obj
 0003:00001cd0       ?__acrt_locks_initialized@@3IA 0000000140022cd0     libucrt:locks.obj
 0003:00001cf0       ?fSystemSet@@3HA           0000000140022cf0     libucrt:mbctype.obj
 0003:00001cf4       ?initialized@?1??__acrt_initialize_multibyte@@9@4_NA 0000000140022cf4     libucrt:mbctype.obj
 0003:00001d00       ?ctrlc_action@@3V?$dual_state_global@P6AXH@Z@__crt_state_management@@A 0000000140022d00     libucrt:signal.obj
 0003:00001d08       ?ctrlbreak_action@@3V?$dual_state_global@P6AXH@Z@__crt_state_management@@A 0000000140022d08     libucrt:signal.obj
 0003:00001d10       ?abort_action@@3V?$dual_state_global@P6AXH@Z@__crt_state_management@@A 0000000140022d10     libucrt:signal.obj
 0003:00001d18       ?term_action@@3V?$dual_state_global@P6AXH@Z@__crt_state_management@@A 0000000140022d18     libucrt:signal.obj
 0004:00000000       $pdata$?TraceLoggingRegister@__vcrt_trace_logging_provider@@YAJPEBU_TlgProvider_t@1@PEBU_GUID@@P6AX1KE_K2PEAU_EVENT_FILTER_DESCRIPTOR@@PEAX@Z4@Z 0000000140023000     libvcruntime:telemetry.obj
 0004:0000000c       $pdata$?_TlgEnableCallback@__vcrt_trace_logging_provider@@YAXPEBU_GUID@@KE_K1PEAU_EVENT_FILTER_DESCRIPTOR@@PEAX@Z 000000014002300c     libvcruntime:telemetry.obj
 0004:00000018       $pdata$?_TlgWrite@__vcrt_trace_logging_provider@@YAJPEBU_TlgProvider_t@1@PEFBXPEBU_GUID@@2IPEAU_EVENT_DATA_DESCRIPTOR@@@Z 0000000140023018     libvcruntime:telemetry.obj
 0004:00000024       $pdata$ParseCommandLine    0000000140023024     SDL2main:SDL_windows_main.obj
 0004:00000030       $pdata$main_getcmdline     0000000140023030     SDL2main:SDL_windows_main.obj
 0004:0000003c       $pdata$0$main_getcmdline   000000014002303c     SDL2main:SDL_windows_main.obj
 0004:00000048       $pdata$2$main_getcmdline   0000000140023048     SDL2main:SDL_windows_main.obj
 0004:00000054       $pdata$??__EgBackgroundTexture@@YAXXZ 0000000140023054     main.obj
 0004:00000060       $pdata$??__EgTextTexture@@YAXXZ 0000000140023060     main.obj
 0004:0000006c       $pdata$??__EgTexture@@YAXXZ 000000014002306c     main.obj
 0004:00000078       $pdata$SDL_main            0000000140023078     main.obj
 0004:00000084       $pdata$??1LTexture@@QEAA@XZ 0000000140023084     main.obj
 0004:00000090       $pdata$?loadFromFile@LTexture@@QEAA_NV?$basic_string@DU?$char_traits@D@std@@V?$allocator@D@2@@std@@@Z 0000000140023090     main.obj
 0004:0000009c       $pdata$?loadFromRenderedText@LTexture@@QEAA_NV?$basic_string@DU?$char_traits@D@std@@V?$allocator@D@2@@std@@USDL_Color@@@Z 000000014002309c     main.obj
 0004:000000a8       $pdata$?free@LTexture@@QEAAXXZ 00000001400230a8     main.obj
 0004:000000b4       $pdata$?setColor@LTexture@@QEAAXEEE@Z 00000001400230b4     main.obj
 0004:000000c0       $pdata$?setBlendMode@LTexture@@QEAAXW4SDL_BlendMode@@@Z 00000001400230c0     main.obj
 0004:000000cc       $pdata$?setAlpha@LTexture@@QEAAXE@Z 00000001400230cc     main.obj
 0004:000000d8       $pdata$?render@LTexture@@QEAAXHHPEAUSDL_Rect@@NPEAUSDL_Point@@W4SDL_RendererFlip@@@Z 00000001400230d8     main.obj
 0004:000000e4       $pdata$?init@@YA_NXZ       00000001400230e4     main.obj
 0004:000000f0       $pdata$?loadMedia@@YA_NXZ  00000001400230f0     main.obj
 0004:000000fc       $pdata$?close@@YAXXZ       00000001400230fc     main.obj
 0004:00000108       $pdata$?loadTexture@@YAPEAUSDL_Texture@@V?$basic_string@DU?$char_traits@D@std@@V?$allocator@D@2@@std@@@Z 0000000140023108     main.obj
 0004:00000114       $pdata$??$?0AEBV?$allocator@D@std@@$$V@?$_Compressed_pair@U?$_Wrap_alloc@V?$allocator@D@std@@@std@@V?$_String_val@U?$_Simple_types@D@std@@@2@$00@std@@QEAA@U_One_then_variadic_args_t@1@AEBV?$allocator@D@1@@Z 0000000140023114     main.obj
 0004:00000120       $pdata$??$addressof@D@std@@YAPEADAEAD@Z 0000000140023120     main.obj
 0004:0000012c       $pdata$??$construct@PEADAEAPEAD@?$_Wrap_alloc@V?$allocator@D@std@@@std@@QEAAXPEAPEADAEAPEAD@Z 000000014002312c     main.obj
 0004:00000138       $pdata$??$construct@PEADAEAPEAD@?$allocator@D@std@@QEAAXPEAPEADAEAPEAD@Z 0000000140023138     main.obj
 0004:00000144       $pdata$??$construct@PEADAEAPEAD@?$allocator_traits@V?$allocator@D@std@@@std@@SAXAEAV?$allocator@D@1@PEAPEADAEAPEAD@Z 0000000140023144     main.obj
 0004:00000150       $pdata$??$destroy@PEAD@?$_Wrap_alloc@V?$allocator@D@std@@@std@@QEAAXPEAPEAD@Z 0000000140023150     main.obj
 0004:0000015c       $pdata$??$destroy@PEAD@?$allocator_traits@V?$allocator@D@std@@@std@@SAXAEAV?$allocator@D@1@PEAPEAD@Z 000000014002315c     main.obj
 0004:00000168       $pdata$??0?$_String_alloc@U?$_String_base_types@DV?$allocator@D@std@@@std@@@std@@QEAA@AEBV?$allocator@D@1@@Z 0000000140023168     main.obj
 0004:00000174       $pdata$??0?$_Wrap_alloc@V?$allocator@D@std@@@std@@QEAA@AEBV?$allocator@D@1@@Z 0000000140023174     main.obj
 0004:00000180       $pdata$??0?$basic_string@DU?$char_traits@D@std@@V?$allocator@D@2@@std@@QEAA@PEBD@Z 0000000140023180     main.obj
 0004:0000018c       $pdata$??1?$basic_string@DU?$char_traits@D@std@@V?$allocator@D@2@@std@@QEAA@XZ 000000014002318c     main.obj
 0004:00000198       $pdata$?_Allocate@std@@YAPEAX_K0_N@Z 0000000140023198     main.obj
 0004:000001a4       $pdata$?_Bx@?$_String_alloc@U?$_String_base_types@DV?$allocator@D@std@@@std@@@std@@QEAAAEAT_Bxty@?$_String_val@U?$_Simple_types@D@std@@@2@XZ 00000001400231a4     main.obj
 0004:000001b0       $pdata$?_Copy@?$basic_string@DU?$char_traits@D@std@@V?$allocator@D@2@@std@@QEAAX_K0@Z 00000001400231b0     main.obj
 0004:000001bc       $pdata$?_Deallocate@std@@YAXPEAX_K1@Z 00000001400231bc     main.obj
 0004:000001c8       $pdata$?_Eos@?$basic_string@DU?$char_traits@D@std@@V?$allocator@D@2@@std@@QEAAX_K@Z 00000001400231c8     main.obj
 0004:000001d4       $pdata$?_Getal@?$_String_alloc@U?$_String_base_types@DV?$allocator@D@std@@@std@@@std@@QEAAAEAU?$_Wrap_alloc@V?$allocator@D@std@@@2@XZ 00000001400231d4     main.obj
 0004:000001d4       $pdata$?_Getal@?$_String_alloc@U?$_String_base_types@DV?$allocator@D@std@@@std@@@std@@QEBAAEBU?$_Wrap_alloc@V?$allocator@D@std@@@2@XZ 00000001400231d4     main.obj
 0004:000001d4       $pdata$?_Get_data@?$_String_alloc@U?$_String_base_types@DV?$allocator@D@std@@@std@@@std@@QEBAAEBV?$_String_val@U?$_Simple_types@D@std@@@2@XZ 00000001400231d4     main.obj
 0004:000001d4       $pdata$?_Get_data@?$_String_alloc@U?$_String_base_types@DV?$allocator@D@std@@@std@@@std@@QEAAAEAV?$_String_val@U?$_Simple_types@D@std@@@2@XZ 00000001400231d4     main.obj
 0004:000001e0       $pdata$?_Grow@?$basic_string@DU?$char_traits@D@std@@V?$allocator@D@2@@std@@QEAA_N_K_N@Z 00000001400231e0     main.obj
 0004:000001ec       $pdata$?_Inside@?$basic_string@DU?$char_traits@D@std@@V?$allocator@D@2@@std@@QEAA_NPEBD@Z 00000001400231ec     main.obj
 0004:000001f8       $pdata$?_Myptr@?$_String_alloc@U?$_String_base_types@DV?$allocator@D@std@@@std@@@std@@QEBAPEBDXZ 00000001400231f8     main.obj
 0004:000001f8       $pdata$?_Myptr@?$_String_alloc@U?$_String_base_types@DV?$allocator@D@std@@@std@@@std@@QEAAPEADXZ 00000001400231f8     main.obj
 0004:00000204       $pdata$?_Myptr@?$_String_val@U?$_Simple_types@D@std@@@std@@QEBAPEBDXZ 0000000140023204     main.obj
 0004:00000204       $pdata$?_Myptr@?$_String_val@U?$_Simple_types@D@std@@@std@@QEAAPEADXZ 0000000140023204     main.obj
 0004:00000210       $pdata$?_Myres@?$_String_alloc@U?$_String_base_types@DV?$allocator@D@std@@@std@@@std@@QEAAAEA_KXZ 0000000140023210     main.obj
 0004:0000021c       $pdata$?_Mysize@?$_String_alloc@U?$_String_base_types@DV?$allocator@D@std@@@std@@@std@@QEAAAEA_KXZ 000000014002321c     main.obj
 0004:0000021c       $pdata$?_Mysize@?$_String_alloc@U?$_String_base_types@DV?$allocator@D@std@@@std@@@std@@QEBAAEB_KXZ 000000014002321c     main.obj
 0004:00000228       $pdata$?_Tidy@?$basic_string@DU?$char_traits@D@std@@V?$allocator@D@2@@std@@QEAAX_N_K@Z 0000000140023228     main.obj
 0004:00000234       $pdata$?_Xlen@?$basic_string@DU?$char_traits@D@std@@V?$allocator@D@2@@std@@QEBAXXZ 0000000140023234     main.obj
 0004:00000240       $pdata$?_Xran@?$basic_string@DU?$char_traits@D@std@@V?$allocator@D@2@@std@@QEBAXXZ 0000000140023240     main.obj
 0004:0000024c       $pdata$?allocate@?$_Wrap_alloc@V?$allocator@D@std@@@std@@QEAAPEAD_K@Z 000000014002324c     main.obj
 0004:00000258       $pdata$?allocate@?$allocator@D@std@@QEAAPEAD_K@Z 0000000140023258     main.obj
 0004:00000264       $pdata$?assign@?$basic_string@DU?$char_traits@D@std@@V?$allocator@D@2@@std@@QEAAAEAV12@AEBV12@_K1@Z 0000000140023264     main.obj
 0004:00000270       $pdata$?assign@?$basic_string@DU?$char_traits@D@std@@V?$allocator@D@2@@std@@QEAAAEAV12@PEBD@Z 0000000140023270     main.obj
 0004:0000027c       $pdata$?assign@?$basic_string@DU?$char_traits@D@std@@V?$allocator@D@2@@std@@QEAAAEAV12@PEBD_K@Z 000000014002327c     main.obj
 0004:00000288       $pdata$?c_str@?$basic_string@DU?$char_traits@D@std@@V?$allocator@D@2@@std@@QEBAPEBDXZ 0000000140023288     main.obj
 0004:00000294       $pdata$?copy@?$char_traits@D@std@@SAPEADPEADPEBD_K@Z 0000000140023294     main.obj
 0004:000002a0       $pdata$?deallocate@?$_Wrap_alloc@V?$allocator@D@std@@@std@@QEAAXPEAD_K@Z 00000001400232a0     main.obj
 0004:000002ac       $pdata$?deallocate@?$allocator@D@std@@QEAAXPEAD_K@Z 00000001400232ac     main.obj
 0004:000002b8       $pdata$?erase@?$basic_string@DU?$char_traits@D@std@@V?$allocator@D@2@@std@@QEAAAEAV12@_K0@Z 00000001400232b8     main.obj
 0004:000002c4       $pdata$?erase@?$basic_string@DU?$char_traits@D@std@@V?$allocator@D@2@@std@@QEAAAEAV12@_K@Z 00000001400232c4     main.obj
 0004:000002d0       $pdata$?length@?$char_traits@D@std@@SA_KPEBD@Z 00000001400232d0     main.obj
 0004:000002dc       $pdata$?max_size@?$_Wrap_alloc@V?$allocator@D@std@@@std@@QEBA_KU_Nil@2@@Z 00000001400232dc     main.obj
 0004:000002e8       $pdata$?max_size@?$allocator_traits@V?$allocator@D@std@@@std@@SA_KAEBV?$allocator@D@2@@Z 00000001400232e8     main.obj
 0004:000002f4       $pdata$?max_size@?$basic_string@DU?$char_traits@D@std@@V?$allocator@D@2@@std@@QEBA_KXZ 00000001400232f4     main.obj
 0004:00000300       $pdata$?move@?$char_traits@D@std@@SAPEADPEADPEBD_K@Z 0000000140023300     main.obj
 0004:0000030c       $pdata$?size@?$basic_string@DU?$char_traits@D@std@@V?$allocator@D@2@@std@@QEBA_KXZ 000000014002330c     main.obj
 0004:00000318       $pdata$_vfprintf_s_l       0000000140023318     main.obj
 0004:00000324       $pdata$printf_s            0000000140023324     main.obj
 0004:00000330       $pdata$??0bad_alloc@std@@QEAA@AEBV01@@Z 0000000140023330     libcpmt:xthrow.obj
 0004:0000033c       $pdata$??0exception@std@@QEAA@AEBV01@@Z 000000014002333c     libcpmt:xthrow.obj
 0004:00000348       $pdata$??0length_error@std@@QEAA@AEBV01@@Z 0000000140023348     libcpmt:xthrow.obj
 0004:00000354       $pdata$??0length_error@std@@QEAA@PEBD@Z 0000000140023354     libcpmt:xthrow.obj
 0004:00000360       $pdata$??0logic_error@std@@QEAA@AEBV01@@Z 0000000140023360     libcpmt:xthrow.obj
 0004:0000036c       $pdata$??0out_of_range@std@@QEAA@AEBV01@@Z 000000014002336c     libcpmt:xthrow.obj
 0004:00000378       $pdata$??0out_of_range@std@@QEAA@PEBD@Z 0000000140023378     libcpmt:xthrow.obj
 0004:00000384       $pdata$?_Xbad_alloc@std@@YAXXZ 0000000140023384     libcpmt:xthrow.obj
 0004:00000384       $pdata$?__scrt_throw_std_bad_alloc@@YAXXZ 0000000140023384     LIBCMT:throw_bad_alloc.obj
 0004:00000390       $pdata$?_Xlength_error@std@@YAXPEBD@Z 0000000140023390     libcpmt:xthrow.obj
 0004:0000039c       $pdata$?_Xout_of_range@std@@YAXPEBD@Z 000000014002339c     libcpmt:xthrow.obj
 0004:000003a8       $pdata$??2@YAPEAX_K@Z      00000001400233a8     LIBCMT:new_scalar.obj
 0004:000003b4       $pdata$__scrt_acquire_startup_lock 00000001400233b4     LIBCMT:utility.obj
 0004:000003c0       $pdata$__scrt_initialize_crt 00000001400233c0     LIBCMT:utility.obj
 0004:000003cc       $pdata$__scrt_initialize_onexit_tables 00000001400233cc     LIBCMT:utility.obj
 0004:000003d8       $pdata$__scrt_is_nonwritable_in_current_image 00000001400233d8     LIBCMT:utility.obj
 0004:000003e4       $pdata$__scrt_release_startup_lock 00000001400233e4     LIBCMT:utility.obj
 0004:000003f0       $pdata$__scrt_uninitialize_crt 00000001400233f0     LIBCMT:utility.obj
 0004:000003fc       $pdata$_onexit             00000001400233fc     LIBCMT:utility.obj
 0004:00000408       $pdata$atexit              0000000140023408     LIBCMT:utility.obj
 0004:00000414       $pdata$__GSHandlerCheck    0000000140023414     LIBCMT:_gshandler_.obj
 0004:00000420       $pdata$__GSHandlerCheckCommon 0000000140023420     LIBCMT:_gshandler_.obj
 0004:00000438       $pdata$?pre_c_initialization@@YAHXZ 0000000140023438     LIBCMT:exe_main.obj
 0004:00000444       $pdata$?post_pgo_initialization@@YAHXZ 0000000140023444     LIBCMT:exe_main.obj
 0004:00000450       $pdata$?pre_cpp_initialization@@YAXXZ 0000000140023450     LIBCMT:exe_main.obj
 0004:0000045c       $pdata$?__scrt_common_main_seh@@YAHXZ 000000014002345c     LIBCMT:exe_main.obj
 0004:00000468       $pdata$mainCRTStartup      0000000140023468     LIBCMT:exe_main.obj
 0004:00000474       $pdata$??_Gtype_info@@UEAAPEAXI@Z 0000000140023474     LIBCMT:std_type_info_static.obj
 0004:00000480       $pdata$??0bad_array_new_length@std@@QEAA@AEBV01@@Z 0000000140023480     LIBCMT:throw_bad_alloc.obj
 0004:0000048c       $pdata$?__scrt_throw_std_bad_array_new_length@@YAXXZ 000000014002348c     LIBCMT:throw_bad_alloc.obj
 0004:00000498       $pdata$__isa_available_init 0000000140023498     LIBCMT:_cpu_disp_.obj
 0004:000004a4       $pdata$__scrt_fastfail     00000001400234a4     LIBCMT:utility_desktop.obj
 0004:000004b0       $pdata$__scrt_is_managed_app 00000001400234b0     LIBCMT:utility_desktop.obj
 0004:000004bc       $pdata$__scrt_unhandled_exception_filter 00000001400234bc     LIBCMT:utility_desktop.obj
 0004:000004c8       $pdata$__raise_securityfailure 00000001400234c8     LIBCMT:gs_report.obj
 0004:000004d4       $pdata$__report_gsfailure  00000001400234d4     LIBCMT:gs_report.obj
 0004:000004e0       $pdata$__report_rangecheckfailure 00000001400234e0     LIBCMT:gs_report.obj
 0004:000004ec       $pdata$__report_securityfailure 00000001400234ec     LIBCMT:gs_report.obj
 0004:000004f8       $pdata$capture_current_context 00000001400234f8     LIBCMT:gs_report.obj
 0004:00000504       $pdata$capture_previous_context 0000000140023504     LIBCMT:gs_report.obj
 0004:00000510       $pdata$__security_init_cookie 0000000140023510     LIBCMT:gs_support.obj
 0004:0000051c       $pdata$__scrt_initialize_default_local_stdio_options 000000014002351c     LIBCMT:default_local_stdio_options.obj
 0004:00000528       $pdata$_RTC_Initialize     0000000140023528     LIBCMT:_initsect_.obj
 0004:00000534       $pdata$_RTC_Terminate      0000000140023534     LIBCMT:_initsect_.obj
 0004:0000054c       $pdata$_CxxThrowException  000000014002354c     libvcruntime:throw.obj
 0004:00000558       $pdata$?_GetEstablisherFrame@@YAPEA_KPEA_KPEAU_xDISPATCHER_CONTEXT@@PEBU_s_FuncInfo@@0@Z 0000000140023558     libvcruntime:trnsctrl.obj
 0004:00000564       $pdata$?_GetRangeOfTrysToCheck@@YAPEBU_s_TryBlockMapEntry@@PEA_KPEBU_s_FuncInfo@@HHPEAI2PEAU_xDISPATCHER_CONTEXT@@@Z 0000000140023564     libvcruntime:trnsctrl.obj
 0004:00000570       $pdata$?__FrameUnwindToEmptyState@@YAXPEA_KPEAU_xDISPATCHER_CONTEXT@@PEBU_s_FuncInfo@@@Z 0000000140023570     libvcruntime:trnsctrl.obj
 0004:0000057c       $pdata$?__SehTransFilter@@YAHPEAU_EXCEPTION_POINTERS@@PEAUEHExceptionRecord@@PEA_KPEAU_CONTEXT@@PEAU_xDISPATCHER_CONTEXT@@PEBU_s_FuncInfo@@PEAH@Z 000000014002357c     libvcruntime:trnsctrl.obj
 0004:00000588       $pdata$_CallSETranslator   0000000140023588     libvcruntime:trnsctrl.obj
 0004:00000594       $pdata$_CreateFrameInfo    0000000140023594     libvcruntime:trnsctrl.obj
 0004:000005a0       $pdata$_FindAndUnlinkFrame 00000001400235a0     libvcruntime:trnsctrl.obj
 0004:000005ac       $pdata$_GetImageBase       00000001400235ac     libvcruntime:trnsctrl.obj
 0004:000005b8       $pdata$_GetThrowImageBase  00000001400235b8     libvcruntime:trnsctrl.obj
 0004:000005c4       $pdata$_IsExceptionObjectToBeDestroyed 00000001400235c4     libvcruntime:trnsctrl.obj
 0004:000005d0       $pdata$_SetImageBase       00000001400235d0     libvcruntime:trnsctrl.obj
 0004:000005dc       $pdata$_SetThrowImageBase  00000001400235dc     libvcruntime:trnsctrl.obj
 0004:000005e8       $pdata$_UnwindNestedFrames 00000001400235e8     libvcruntime:trnsctrl.obj
 0004:000005f4       $pdata$__CxxFrameHandler3  00000001400235f4     libvcruntime:trnsctrl.obj
 0004:00000600       $pdata$__std_exception_copy 0000000140023600     libvcruntime:std_exception.obj
 0004:0000060c       $pdata$__std_exception_destroy 000000014002360c     libvcruntime:std_exception.obj
 0004:00000618       $pdata$__vcrt_initialize   0000000140023618     libvcruntime:initialization.obj
 0004:00000624       $pdata$__vcrt_uninitialize 0000000140023624     libvcruntime:initialization.obj
 0004:00000630       $pdata$__C_specific_handler 0000000140023630     libvcruntime:_chandler_.obj
 0004:0000063c       $pdata$__telemetry_main_invoke_trigger 000000014002363c     libvcruntime:telemetry.obj
 0004:00000648       $pdata$__telemetry_main_return_trigger 0000000140023648     libvcruntime:telemetry.obj
 0004:00000654       $pdata$__vcrt_uninitialize_telemetry_provider 0000000140023654     libvcruntime:telemetry.obj
 0004:0000066c       $pdata$__vcrt_freefls      000000014002366c     libvcruntime:per_thread_data.obj
 0004:00000678       $pdata$__vcrt_getptd       0000000140023678     libvcruntime:per_thread_data.obj
 0004:00000684       $pdata$__vcrt_getptd_noexit 0000000140023684     libvcruntime:per_thread_data.obj
 0004:00000690       $pdata$__vcrt_initialize_ptd 0000000140023690     libvcruntime:per_thread_data.obj
 0004:0000069c       $pdata$__vcrt_uninitialize_ptd 000000014002369c     libvcruntime:per_thread_data.obj
 0004:000006a8       $pdata$?__GetCurrentState@@YAHPEA_KPEAU_xDISPATCHER_CONTEXT@@PEBU_s_FuncInfo@@@Z 00000001400236a8     libvcruntime:ehstate.obj
 0004:000006b4       $pdata$?__GetUnwindTryBlock@@YAHPEA_KPEAU_xDISPATCHER_CONTEXT@@PEBU_s_FuncInfo@@@Z 00000001400236b4     libvcruntime:ehstate.obj
 0004:000006c0       $pdata$?__SetUnwindTryBlock@@YAXPEA_KPEAU_xDISPATCHER_CONTEXT@@PEBU_s_FuncInfo@@H@Z 00000001400236c0     libvcruntime:ehstate.obj
 0004:000006cc       $pdata$?__StateFromIp@@YAHPEBU_s_FuncInfo@@PEAU_xDISPATCHER_CONTEXT@@_J@Z 00000001400236cc     libvcruntime:ehstate.obj
 0004:000006d8       $pdata$__DestructExceptionObject 00000001400236d8     libvcruntime:frame.obj
 0004:000006e4       $pdata$??0bad_exception@std@@QEAA@AEBV01@@Z 00000001400236e4     libvcruntime:frame.obj
 0004:000006f0       $pdata$??_Glogic_error@std@@UEAAPEAXI@Z 00000001400236f0     libcpmt:xthrow.obj
 0004:000006f0       $pdata$??_Glength_error@std@@UEAAPEAXI@Z 00000001400236f0     libcpmt:xthrow.obj
 0004:000006f0       $pdata$??_Gbad_exception@std@@UEAAPEAXI@Z 00000001400236f0     libvcruntime:frame.obj
 0004:000006f0       $pdata$??_Gbad_alloc@std@@UEAAPEAXI@Z 00000001400236f0     libcpmt:xthrow.obj
 0004:000006f0       $pdata$??_Gbad_array_new_length@std@@UEAAPEAXI@Z 00000001400236f0     LIBCMT:throw_bad_alloc.obj
 0004:000006f0       $pdata$??_Gout_of_range@std@@UEAAPEAXI@Z 00000001400236f0     libcpmt:xthrow.obj
 0004:000006f0       $pdata$??_Gexception@std@@UEAAPEAXI@Z 00000001400236f0     libcpmt:xthrow.obj
 0004:000006fc       $pdata$?CatchIt@@YAXPEAUEHExceptionRecord@@PEA_KPEAU_CONTEXT@@PEAU_xDISPATCHER_CONTEXT@@PEBU_s_FuncInfo@@PEBU_s_HandlerType@@PEBU_s_CatchableType@@PEBU_s_TryBlockMapEntry@@H1EE@Z 00000001400236fc     libvcruntime:frame.obj
 0004:00000708       $pdata$?ExFilterRethrow@@YAHPEAU_EXCEPTION_POINTERS@@PEAUEHExceptionRecord@@PEAH@Z 0000000140023708     libvcruntime:frame.obj
 0004:00000714       $pdata$?FindHandler@@YAXPEAUEHExceptionRecord@@PEA_KPEAU_CONTEXT@@PEAU_xDISPATCHER_CONTEXT@@PEBU_s_FuncInfo@@EH1@Z 0000000140023714     libvcruntime:frame.obj
 0004:00000720       $pdata$?FindHandlerForForeignException@@YAXPEAUEHExceptionRecord@@PEA_KPEAU_CONTEXT@@PEAU_xDISPATCHER_CONTEXT@@PEBU_s_FuncInfo@@HH1@Z 0000000140023720     libvcruntime:frame.obj
 0004:0000072c       $pdata$?IsInExceptionSpec@@YAEPEAUEHExceptionRecord@@PEBU_s_ESTypeList@@@Z 000000014002372c     libvcruntime:frame.obj
 0004:00000738       $pdata$__BuildCatchObject  0000000140023738     libvcruntime:frame.obj
 0004:00000744       $pdata$__BuildCatchObjectHelper 0000000140023744     libvcruntime:frame.obj
 0004:00000750       $pdata$__CxxCallCatchBlock 0000000140023750     libvcruntime:frame.obj
 0004:0000075c       $pdata$__FrameUnwindFilter 000000014002375c     libvcruntime:frame.obj
 0004:00000768       $pdata$__FrameUnwindToState 0000000140023768     libvcruntime:frame.obj
 0004:00000774       $pdata$__InternalCxxFrameHandler 0000000140023774     libvcruntime:frame.obj
 0004:00000780       $pdata$__TypeMatch         0000000140023780     libvcruntime:frame.obj
 0004:0000078c       $pdata$__vcrt_initialize_locks 000000014002378c     libvcruntime:locks.obj
 0004:00000798       $pdata$__vcrt_uninitialize_locks 0000000140023798     libvcruntime:locks.obj
 0004:000007a4       $pdata$?try_get_function@@YAPEAXW4function_id@?A0x61ce2399@@QEBDQEBW4module_id@2@2@Z 00000001400237a4     libvcruntime:winapi_downlevel.obj
 0004:000007b0       $pdata$__vcrt_EventRegister 00000001400237b0     libvcruntime:winapi_downlevel.obj
 0004:000007bc       $pdata$__vcrt_EventSetInformation 00000001400237bc     libvcruntime:winapi_downlevel.obj
 0004:000007c8       $pdata$__vcrt_EventUnregister 00000001400237c8     libvcruntime:winapi_downlevel.obj
 0004:000007d4       $pdata$__vcrt_EventWriteTransfer 00000001400237d4     libvcruntime:winapi_downlevel.obj
 0004:000007e0       $pdata$__vcrt_FlsAlloc     00000001400237e0     libvcruntime:winapi_downlevel.obj
 0004:000007ec       $pdata$__vcrt_FlsFree      00000001400237ec     libvcruntime:winapi_downlevel.obj
 0004:000007f8       $pdata$__vcrt_FlsGetValue  00000001400237f8     libvcruntime:winapi_downlevel.obj
 0004:00000804       $pdata$__vcrt_FlsSetValue  0000000140023804     libvcruntime:winapi_downlevel.obj
 0004:00000810       $pdata$__vcrt_InitializeCriticalSectionEx 0000000140023810     libvcruntime:winapi_downlevel.obj
 0004:0000081c       $pdata$__vcrt_initialize_winapi_thunks 000000014002381c     libvcruntime:winapi_downlevel.obj
 0004:00000828       $pdata$__vcrt_uninitialize_winapi_thunks 0000000140023828     libvcruntime:winapi_downlevel.obj
 0004:00000870       $pdata$__acrt_call_reportfault 0000000140023870     libucrt:invalid_parameter.obj
 0004:0000087c       $pdata$_invalid_parameter  000000014002387c     libucrt:invalid_parameter.obj
 0004:00000888       $pdata$_invalid_parameter_noinfo 0000000140023888     libucrt:invalid_parameter.obj
 0004:00000894       $pdata$_invalid_parameter_noinfo_noreturn 0000000140023894     libucrt:invalid_parameter.obj
 0004:000008a0       $pdata$_invoke_watson      00000001400238a0     libucrt:invalid_parameter.obj
 0004:000008ac       $pdata$__acrt_initialize_stdio 00000001400238ac     libucrt:_file.obj
 0004:000008b8       $pdata$__acrt_uninitialize_stdio 00000001400238b8     libucrt:_file.obj
 0004:000008c4       $pdata$??$?RV<lambda_74b93660f2d9eb3fb15c5de9eff9db7b>@@AEAV<lambda_32f117a32e8f8eb613cbf2ca819ed45e>@@V<lambda_7322894ee7c8a2d41153fedefeab09e3>@@@?$__crt_seh_guarded_call@H@@QEAAH$$QEAV<lambda_74b93660f2d9eb3fb15c5de9eff9db7b>@@AEAV<lambda_32f117a32e8f8eb613cbf2ca819ed45e>@@$$QEAV<lambda_7322894ee7c8a2d41153fedefeab09e3>@@@Z 00000001400238c4     libucrt:output.obj
 0004:000008d0       $pdata$??$ensure_buffer_is_big_enough@D@formatting_buffer@__crt_stdio_output@@QEAA_N_K@Z 00000001400238d0     libucrt:output.obj
 0004:000008dc       $pdata$??$type_case_integer_parse_into_buffer@I@?$output_processor@DV?$stream_output_adapter@D@__crt_stdio_output@@V?$format_validation_base@DV?$stream_output_adapter@D@__crt_stdio_output@@@2@@__crt_stdio_output@@AEAAXII_N@Z 00000001400238dc     libucrt:output.obj
 0004:000008e8       $pdata$??$type_case_integer_parse_into_buffer@_K@?$output_processor@DV?$stream_output_adapter@D@__crt_stdio_output@@V?$format_validation_base@DV?$stream_output_adapter@D@__crt_stdio_output@@@2@@__crt_stdio_output@@AEAAX_KI_N@Z 00000001400238e8     libucrt:output.obj
 0004:000008f4       $pdata$??$write_multiple_characters@V?$stream_output_adapter@D@__crt_stdio_output@@D@__crt_stdio_output@@YAXAEBV?$stream_output_adapter@D@0@DHQEAH@Z 00000001400238f4     libucrt:output.obj
 0004:00000900       $pdata$??0_LocaleUpdate@@QEAA@QEAU__crt_locale_pointers@@@Z 0000000140023900     libucrt:output.obj
 0004:0000090c       $pdata$??R<lambda_32f117a32e8f8eb613cbf2ca819ed45e>@@QEBAHXZ 000000014002390c     libucrt:output.obj
 0004:00000918       $pdata$?force_decimal_point@__crt_stdio_output@@YAXPEADQEAU__crt_locale_pointers@@@Z 0000000140023918     libucrt:output.obj
 0004:00000924       $pdata$?parse_int_from_format_string@?$output_processor@DV?$stream_output_adapter@D@__crt_stdio_output@@V?$format_validation_base@DV?$stream_output_adapter@D@__crt_stdio_output@@@2@@__crt_stdio_output@@AEAA_NQEAH@Z 0000000140023924     libucrt:output.obj
 0004:00000930       $pdata$?process@?$output_processor@DV?$stream_output_adapter@D@__crt_stdio_output@@V?$format_validation_base@DV?$stream_output_adapter@D@__crt_stdio_output@@@2@@__crt_stdio_output@@QEAAHXZ 0000000140023930     libucrt:output.obj
 0004:0000093c       $pdata$?state_case_normal@?$output_processor@DV?$stream_output_adapter@D@__crt_stdio_output@@V?$format_validation_base@DV?$stream_output_adapter@D@__crt_stdio_output@@@2@@__crt_stdio_output@@AEAA_NXZ 000000014002393c     libucrt:output.obj
 0004:00000948       $pdata$?state_case_normal_tchar@?$output_processor@DV?$stream_output_adapter@D@__crt_stdio_output@@V?$format_validation_base@DV?$stream_output_adapter@D@__crt_stdio_output@@@2@@__crt_stdio_output@@AEAA_ND@Z 0000000140023948     libucrt:output.obj
 0004:00000954       $pdata$?state_case_size@?$output_processor@DV?$stream_output_adapter@D@__crt_stdio_output@@V?$format_validation_base@DV?$stream_output_adapter@D@__crt_stdio_output@@@2@@__crt_stdio_output@@AEAA_NXZ 0000000140023954     libucrt:output.obj
 0004:00000960       $pdata$?state_case_type@?$output_processor@DV?$stream_output_adapter@D@__crt_stdio_output@@V?$format_validation_base@DV?$stream_output_adapter@D@__crt_stdio_output@@@2@@__crt_stdio_output@@AEAA_NXZ 0000000140023960     libucrt:output.obj
 0004:0000096c       $pdata$?type_case_a@?$output_processor@DV?$stream_output_adapter@D@__crt_stdio_output@@V?$format_validation_base@DV?$stream_output_adapter@D@__crt_stdio_output@@@2@@__crt_stdio_output@@AEAA_NXZ 000000014002396c     libucrt:output.obj
 0004:00000978       $pdata$?type_case_c_tchar@?$output_processor@DV?$stream_output_adapter@D@__crt_stdio_output@@V?$format_validation_base@DV?$stream_output_adapter@D@__crt_stdio_output@@@2@@__crt_stdio_output@@AEAA_ND@Z 0000000140023978     libucrt:output.obj
 0004:00000984       $pdata$?type_case_integer@?$output_processor@DV?$stream_output_adapter@D@__crt_stdio_output@@V?$format_validation_base@DV?$stream_output_adapter@D@__crt_stdio_output@@@2@@__crt_stdio_output@@AEAA_NI_N@Z 0000000140023984     libucrt:output.obj
 0004:00000990       $pdata$?type_case_n@?$output_processor@DV?$stream_output_adapter@D@__crt_stdio_output@@V?$format_validation_base@DV?$stream_output_adapter@D@__crt_stdio_output@@@2@@__crt_stdio_output@@AEAA_NXZ 0000000140023990     libucrt:output.obj
 0004:0000099c       $pdata$?type_case_s@?$output_processor@DV?$stream_output_adapter@D@__crt_stdio_output@@V?$format_validation_base@DV?$stream_output_adapter@D@__crt_stdio_output@@@2@@__crt_stdio_output@@AEAA_NXZ 000000014002399c     libucrt:output.obj
 0004:000009a8       $pdata$?validate_stream_is_ansi_if_required@?$__acrt_stdio_char_traits@D@@SA_NQEAU_iobuf@@@Z 00000001400239a8     libucrt:output.obj
 0004:000009b4       $pdata$?write_stored_string_tchar@?$output_processor@DV?$stream_output_adapter@D@__crt_stdio_output@@V?$format_validation_base@DV?$stream_output_adapter@D@__crt_stdio_output@@@2@@__crt_stdio_output@@AEAA_ND@Z 00000001400239b4     libucrt:output.obj
 0004:000009c0       $pdata$?write_string_impl@?$output_adapter_common@DV?$stream_output_adapter@D@__crt_stdio_output@@@__crt_stdio_output@@IEBAXQEBDHQEAHAEAV__crt_deferred_errno_cache@@@Z 00000001400239c0     libucrt:output.obj
 0004:000009cc       $pdata$__stdio_common_vfprintf_s 00000001400239cc     libucrt:output.obj
 0004:000009d8       $pdata$_callnewh           00000001400239d8     libucrt:new_handler.obj
 0004:000009e4       $pdata$_query_new_handler  00000001400239e4     libucrt:new_handler.obj
 0004:000009f0       $pdata$_seh_filter_exe     00000001400239f0     libucrt:exception_filter.obj
 0004:000009fc       $pdata$??$?RV<lambda_d80eeec6fff315bfe5c115232f3240e3>@@AEAV<lambda_6e4b09c48022b2350581041d5f6b0c4c>@@V<lambda_2358e3775559c9db80273638284d5e45>@@@?$__crt_seh_guarded_call@X@@QEAAX$$QEAV<lambda_d80eeec6fff315bfe5c115232f3240e3>@@AEAV<lambda_6e4b09c48022b2350581041d5f6b0c4c>@@$$QEAV<lambda_2358e3775559c9db80273638284d5e45>@@@Z 00000001400239fc     libucrt:exit.obj
 0004:00000a08       $pdata$??R<lambda_6e4b09c48022b2350581041d5f6b0c4c>@@QEBA@XZ 0000000140023a08     libucrt:exit.obj
 0004:00000a14       $pdata$?common_exit@@YAXHW4_crt_exit_cleanup_mode@@W4_crt_exit_return_mode@@@Z 0000000140023a14     libucrt:exit.obj
 0004:00000a20       $pdata$?exit_or_terminate_process@@YAXI@Z 0000000140023a20     libucrt:exit.obj
 0004:00000a2c       $pdata$?try_cor_exit_process@@YAXI@Z 0000000140023a2c     libucrt:exit.obj
 0004:00000a38       $pdata$_register_thread_local_exe_atexit_callback 0000000140023a38     libucrt:exit.obj
 0004:00000a44       $pdata$??$common_initialize_environment_nolock@D@@YAHXZ 0000000140023a44     libucrt:environment_initialization.obj
 0004:00000a50       $pdata$??$create_environment@D@@YAQEAPEADQEAD@Z 0000000140023a50     libucrt:environment_initialization.obj
 0004:00000a5c       $pdata$??$free_environment@_W@@YAXQEAPEA_W@Z 0000000140023a5c     libucrt:environment_initialization.obj
 0004:00000a5c       $pdata$??$free_environment@D@@YAXQEAPEAD@Z 0000000140023a5c     libucrt:environment_initialization.obj
 0004:00000a68       $pdata$??$initialize_environment_by_cloning_nolock@D@@YAHXZ 0000000140023a68     libucrt:environment_initialization.obj
 0004:00000a74       $pdata$??$uninitialize_environment_internal@D@@YAXAEAPEAPEAD@Z 0000000140023a74     libucrt:environment_initialization.obj
 0004:00000a80       $pdata$??$uninitialize_environment_internal@_W@@YAXAEAPEAPEA_W@Z 0000000140023a80     libucrt:environment_initialization.obj
 0004:00000a8c       $pdata$__dcrt_get_or_create_narrow_environment_nolock 0000000140023a8c     libucrt:environment_initialization.obj
 0004:00000a98       $pdata$__dcrt_uninitialize_environments_nolock 0000000140023a98     libucrt:environment_initialization.obj
 0004:00000aa4       $pdata$_get_initial_narrow_environment 0000000140023aa4     libucrt:environment_initialization.obj
 0004:00000ab0       $pdata$??$?RV<lambda_7777bce6b2f8c936911f934f8298dc43>@@AEAV<lambda_f03950bc5685219e0bcd2087efbe011e>@@V<lambda_3883c3dff614d5e0c5f61bb1ac94921c>@@@?$__crt_seh_guarded_call@H@@QEAAH$$QEAV<lambda_7777bce6b2f8c936911f934f8298dc43>@@AEAV<lambda_f03950bc5685219e0bcd2087efbe011e>@@$$QEAV<lambda_3883c3dff614d5e0c5f61bb1ac94921c>@@@Z 0000000140023ab0     libucrt:onexit.obj
 0004:00000abc       $pdata$??$?RV<lambda_8369fcb7c4df1e85de37618bd2b85f07>@@AEAV<lambda_a10e4b102d4a2c3aac6f4f48bbdf488f>@@V<lambda_5b7707bd6d7a0c4713179f36c7fd995d>@@@?$__crt_seh_guarded_call@H@@QEAAH$$QEAV<lambda_8369fcb7c4df1e85de37618bd2b85f07>@@AEAV<lambda_a10e4b102d4a2c3aac6f4f48bbdf488f>@@$$QEAV<lambda_5b7707bd6d7a0c4713179f36c7fd995d>@@@Z 0000000140023abc     libucrt:onexit.obj
 0004:00000ac8       $pdata$??R<lambda_a10e4b102d4a2c3aac6f4f48bbdf488f>@@QEBAHXZ 0000000140023ac8     libucrt:onexit.obj
 0004:00000ad4       $pdata$??R<lambda_f03950bc5685219e0bcd2087efbe011e>@@QEBAHXZ 0000000140023ad4     libucrt:onexit.obj
 0004:00000ae0       $pdata$_execute_onexit_table 0000000140023ae0     libucrt:onexit.obj
 0004:00000aec       $pdata$_register_onexit_function 0000000140023aec     libucrt:onexit.obj
 0004:00000af8       $pdata$initialize_c        0000000140023af8     libucrt:initialization.obj
 0004:00000b04       $pdata$uninitialize_environment 0000000140023b04     libucrt:initialization.obj
 0004:00000b10       $pdata$initialize_pointers 0000000140023b10     libucrt:initialization.obj
 0004:00000b1c       $pdata$uninitialize_allocated_memory 0000000140023b1c     libucrt:initialization.obj
 0004:00000b28       $pdata$uninitialize_allocated_io_buffers 0000000140023b28     libucrt:initialization.obj
 0004:00000b34       $pdata$__acrt_uninitialize 0000000140023b34     libucrt:initialization.obj
 0004:00000b40       $pdata$??$parse_command_line@D@@YAXPEADPEAPEAD0PEA_K2@Z 0000000140023b40     libucrt:argv_parsing.obj
 0004:00000b4c       $pdata$__acrt_allocate_buffer_for_argv 0000000140023b4c     libucrt:argv_parsing.obj
 0004:00000b58       $pdata$_configure_narrow_argv 0000000140023b58     libucrt:argv_parsing.obj
 0004:00000b64       $pdata$_initterm           0000000140023b64     libucrt:initterm.obj
 0004:00000b70       $pdata$_initterm_e         0000000140023b70     libucrt:initterm.obj
 0004:00000b7c       $pdata$_set_fmode          0000000140023b7c     libucrt:setmode.obj
 0004:00000b88       $pdata$__acrt_initialize_command_line 0000000140023b88     libucrt:argv_data.obj
 0004:00000b94       $pdata$??$?RV<lambda_410d79af7f07d98d83a3f525b3859a53>@@AEAV<lambda_3e16ef9562a7dcce91392c22ab16ea36>@@V<lambda_38119f0e861e05405d8a144b9b982f0a>@@@?$__crt_seh_guarded_call@X@@QEAAX$$QEAV<lambda_410d79af7f07d98d83a3f525b3859a53>@@AEAV<lambda_3e16ef9562a7dcce91392c22ab16ea36>@@$$QEAV<lambda_38119f0e861e05405d8a144b9b982f0a>@@@Z 0000000140023b94     libucrt:wsetlocale.obj
 0004:00000ba0       $pdata$__acrt_uninitialize_locale 0000000140023ba0     libucrt:wsetlocale.obj
 0004:00000bac       $pdata$_configthreadlocale 0000000140023bac     libucrt:wsetlocale.obj
 0004:00000bb8       $pdata$_set_new_mode       0000000140023bb8     libucrt:new_mode.obj
 0004:00000bc4       $pdata$terminate           0000000140023bc4     libucrt:terminate.obj
 0004:00000bd0       $pdata$strcpy_s            0000000140023bd0     libucrt:strcpy_s.obj
 0004:00000bdc       $pdata$_free_base          0000000140023bdc     libucrt:free_base.obj
 0004:00000be8       $pdata$_malloc_base        0000000140023be8     libucrt:malloc_base.obj
 0004:00000bf4       $pdata$abort               0000000140023bf4     libucrt:abort.obj
 0004:00000c00       $pdata$_calloc_base        0000000140023c00     libucrt:calloc_base.obj
 0004:00000c0c       $pdata$??$parse_integer@KV?$c_string_character_source@D@__crt_strtox@@@__crt_strtox@@YAKQEAU__crt_locale_pointers@@V?$c_string_character_source@D@0@H_N@Z 0000000140023c0c     libucrt:atox.obj
 0004:00000c18       $pdata$??$?RV<lambda_0ae27a3a962d80f24befdcbee591983d>@@AEAV<lambda_8d0ee55de4b1038c4002e0adecdf1839>@@V<lambda_dc504788e8f1664fe9b84e20bfb512f2>@@@?$__crt_seh_guarded_call@X@@QEAAX$$QEAV<lambda_0ae27a3a962d80f24befdcbee591983d>@@AEAV<lambda_8d0ee55de4b1038c4002e0adecdf1839>@@$$QEAV<lambda_dc504788e8f1664fe9b84e20bfb512f2>@@@Z 0000000140023c18     libucrt:per_thread_data.obj
 0004:00000c24       $pdata$??$?RV<lambda_2d41944a1d46af3157314b8a01080d33>@@AEAV<lambda_8f455de75cd7d7f24b4096f044d8b9e6>@@V<lambda_aa500f224e6afead328df44964fe2772>@@@?$__crt_seh_guarded_call@X@@QEAAX$$QEAV<lambda_2d41944a1d46af3157314b8a01080d33>@@AEAV<lambda_8f455de75cd7d7f24b4096f044d8b9e6>@@$$QEAV<lambda_aa500f224e6afead328df44964fe2772>@@@Z 0000000140023c24     libucrt:per_thread_data.obj
 0004:00000c30       $pdata$??$?RV<lambda_aa87e3671a710a21b5dc78c0bdf72e11>@@AEAV<lambda_92619d2358a28f41a33ba319515a20b9>@@V<lambda_6992ecaafeb10aed2b74cb1fae11a551>@@@?$__crt_seh_guarded_call@X@@QEAAX$$QEAV<lambda_aa87e3671a710a21b5dc78c0bdf72e11>@@AEAV<lambda_92619d2358a28f41a33ba319515a20b9>@@$$QEAV<lambda_6992ecaafeb10aed2b74cb1fae11a551>@@@Z 0000000140023c30     libucrt:per_thread_data.obj
 0004:00000c3c       $pdata$??$?RV<lambda_f2e299630e499de9f9a165e60fcd3db5>@@AEAV<lambda_2ae9d31cdba2644fcbeaf08da7c24588>@@V<lambda_40d01ff24d0e7b3814fdbdcee8eab3c7>@@@?$__crt_seh_guarded_call@X@@QEAAX$$QEAV<lambda_f2e299630e499de9f9a165e60fcd3db5>@@AEAV<lambda_2ae9d31cdba2644fcbeaf08da7c24588>@@$$QEAV<lambda_40d01ff24d0e7b3814fdbdcee8eab3c7>@@@Z 0000000140023c3c     libucrt:per_thread_data.obj
 0004:00000c48       $pdata$?construct_ptd_array@@YAXQEAU__acrt_ptd@@@Z 0000000140023c48     libucrt:per_thread_data.obj
 0004:00000c54       $pdata$?destroy_fls@@YAXPEAX@Z 0000000140023c54     libucrt:per_thread_data.obj
 0004:00000c60       $pdata$?destroy_ptd_array@@YAXQEAU__acrt_ptd@@@Z 0000000140023c60     libucrt:per_thread_data.obj
 0004:00000c6c       $pdata$?replace_current_thread_locale_nolock@@YAXQEAU__acrt_ptd@@QEAU__crt_locale_data@@@Z 0000000140023c6c     libucrt:per_thread_data.obj
 0004:00000c78       $pdata$__acrt_getptd       0000000140023c78     libucrt:per_thread_data.obj
 0004:00000c84       $pdata$__acrt_getptd_head  0000000140023c84     libucrt:per_thread_data.obj
 0004:00000c90       $pdata$__acrt_getptd_noexit 0000000140023c90     libucrt:per_thread_data.obj
 0004:00000c9c       $pdata$__acrt_initialize_ptd 0000000140023c9c     libucrt:per_thread_data.obj
 0004:00000ca8       $pdata$__acrt_uninitialize_ptd 0000000140023ca8     libucrt:per_thread_data.obj
 0004:00000cb4       $pdata$__acrt_errno_map_os_error 0000000140023cb4     libucrt:errno.obj
 0004:00000cc0       $pdata$__doserrno          0000000140023cc0     libucrt:errno.obj
 0004:00000ccc       $pdata$_errno              0000000140023ccc     libucrt:errno.obj
 0004:00000cd8       $pdata$?try_get_function@@YAPEAXW4function_id@?A0x391cf84c@@QEBDQEBW4module_id@2@2@Z 0000000140023cd8     libucrt:winapi_thunks.obj
 0004:00000ce4       $pdata$__acrt_AppPolicyGetProcessTerminationMethodInternal 0000000140023ce4     libucrt:winapi_thunks.obj
 0004:00000cf0       $pdata$__acrt_CompareStringEx 0000000140023cf0     libucrt:winapi_thunks.obj
 0004:00000cfc       $pdata$__acrt_FlsAlloc     0000000140023cfc     libucrt:winapi_thunks.obj
 0004:00000d08       $pdata$__acrt_FlsFree      0000000140023d08     libucrt:winapi_thunks.obj
 0004:00000d14       $pdata$__acrt_FlsGetValue  0000000140023d14     libucrt:winapi_thunks.obj
 0004:00000d20       $pdata$__acrt_FlsSetValue  0000000140023d20     libucrt:winapi_thunks.obj
 0004:00000d2c       $pdata$__acrt_InitializeCriticalSectionEx 0000000140023d2c     libucrt:winapi_thunks.obj
 0004:00000d38       $pdata$__acrt_LCMapStringEx 0000000140023d38     libucrt:winapi_thunks.obj
 0004:00000d44       $pdata$__acrt_LocaleNameToLCID 0000000140023d44     libucrt:winapi_thunks.obj
 0004:00000d50       $pdata$__acrt_initialize_winapi_thunks 0000000140023d50     libucrt:winapi_thunks.obj
 0004:00000d5c       $pdata$__acrt_uninitialize_winapi_thunks 0000000140023d5c     libucrt:winapi_thunks.obj
 0004:00000d68       $pdata$_fcloseall          0000000140023d68     libucrt:closeall.obj
 0004:00000d74       $pdata$??$?RV<lambda_842d9ff0dc9ef11c61343bbaebe7f885>@@AEAV<lambda_c5860995281e5c4ce005b3de8f5874ee>@@V<lambda_d90129c13df834fdcbf8d2b88dafcf2d>@@@?$__crt_seh_guarded_call@X@@QEAAX$$QEAV<lambda_842d9ff0dc9ef11c61343bbaebe7f885>@@AEAV<lambda_c5860995281e5c4ce005b3de8f5874ee>@@$$QEAV<lambda_d90129c13df834fdcbf8d2b88dafcf2d>@@@Z 0000000140023d74     libucrt:fflush.obj
 0004:00000d80       $pdata$??$?RV<lambda_886d6c58226a84441f68b9f2b8217b83>@@AEAV<lambda_ab61a845afdef5b7c387490eaf3616ee>@@V<lambda_f7f22ab5edc0698d5f6905b0d3f44752>@@@?$__crt_seh_guarded_call@X@@QEAAX$$QEAV<lambda_886d6c58226a84441f68b9f2b8217b83>@@AEAV<lambda_ab61a845afdef5b7c387490eaf3616ee>@@$$QEAV<lambda_f7f22ab5edc0698d5f6905b0d3f44752>@@@Z 0000000140023d80     libucrt:fflush.obj
 0004:00000d8c       $pdata$?common_flush_all@@YAH_N@Z 0000000140023d8c     libucrt:fflush.obj
 0004:00000d98       $pdata$__acrt_stdio_flush_nolock 0000000140023d98     libucrt:fflush.obj
 0004:00000da4       $pdata$_fflush_nolock      0000000140023da4     libucrt:fflush.obj
 0004:00000db0       $pdata$__acrt_stdio_free_buffer_nolock 0000000140023db0     libucrt:_freebuf.obj
 0004:00000dbc       $pdata$?initialize_inherited_file_handles_nolock@@YAXXZ 0000000140023dbc     libucrt:ioinit.obj
 0004:00000dc8       $pdata$?initialize_stdio_handles_nolock@@YAXXZ 0000000140023dc8     libucrt:ioinit.obj
 0004:00000dd4       $pdata$__acrt_initialize_lowio 0000000140023dd4     libucrt:ioinit.obj
 0004:00000de0       $pdata$__acrt_uninitialize_lowio 0000000140023de0     libucrt:ioinit.obj
 0004:00000dec       $pdata$isdigit             0000000140023dec     libucrt:_ctype.obj
 0004:00000df8       $pdata$?internal_isupper_l@@YA_NHQEAU__crt_locale_pointers@@@Z 0000000140023df8     libucrt:tolower_toupper.obj
 0004:00000e04       $pdata$_tolower_l          0000000140023e04     libucrt:tolower_toupper.obj
 0004:00000e10       $pdata$tolower             0000000140023e10     libucrt:tolower_toupper.obj
 0004:00000e1c       $pdata$strtol              0000000140023e1c     libucrt:strtox.obj
 0004:00000e28       $pdata$_mbtowc_l           0000000140023e28     libucrt:mbtowc.obj
 0004:00000e34       $pdata$_wctomb_s_l         0000000140023e34     libucrt:wctomb.obj
 0004:00000e40       $pdata$wctomb_s            0000000140023e40     libucrt:wctomb.obj
 0004:00000e4c       $pdata$__acrt_update_locale_info 0000000140023e4c     libucrt:locale_update.obj
 0004:00000e58       $pdata$__acrt_update_multibyte_info 0000000140023e58     libucrt:locale_update.obj
 0004:00000e64       $pdata$?fp_format_a@@YAHQEBNPEAD_KQEAD2H_NIQEAU__crt_locale_pointers@@@Z 0000000140023e64     libucrt:cvt.obj
 0004:00000e70       $pdata$?fp_format_e@@YAHQEBNQEAD_K12H_NIQEAU__crt_locale_pointers@@@Z 0000000140023e70     libucrt:cvt.obj
 0004:00000e7c       $pdata$?fp_format_e_internal@@YAHQEAD_KH_NIQEAU_strflt@@2QEAU__crt_locale_pointers@@@Z 0000000140023e7c     libucrt:cvt.obj
 0004:00000e88       $pdata$?fp_format_f_internal@@YAHQEAD_KHQEAU_strflt@@_NQEAU__crt_locale_pointers@@@Z 0000000140023e88     libucrt:cvt.obj
 0004:00000e94       $pdata$?fp_format_g@@YAHQEBNQEAD_K12H_NIQEAU__crt_locale_pointers@@@Z 0000000140023e94     libucrt:cvt.obj
 0004:00000ea0       $pdata$?fp_format_nan_or_infinity@@YAHW4__acrt_fp_class@@_NPEAD_K1@Z 0000000140023ea0     libucrt:cvt.obj
 0004:00000eac       $pdata$__acrt_fp_format    0000000140023eac     libucrt:cvt.obj
 0004:00000eb8       $pdata$_fileno             0000000140023eb8     libucrt:fileno.obj
 0004:00000ec4       $pdata$__acrt_stdio_begin_temporary_buffering_nolock 0000000140023ec4     libucrt:_sftbuf.obj
 0004:00000ed0       $pdata$__acrt_stdio_end_temporary_buffering_nolock 0000000140023ed0     libucrt:_sftbuf.obj
 0004:00000edc       $pdata$__acrt_initialize_locks 0000000140023edc     libucrt:locks.obj
 0004:00000ee8       $pdata$__acrt_uninitialize_locks 0000000140023ee8     libucrt:locks.obj
 0004:00000ef4       $pdata$__acrt_get_process_end_policy 0000000140023ef4     libucrt:win_policies.obj
 0004:00000f00       $pdata$??$?RV<lambda_efdfa57d1f175319df784efa44bb7b81>@@AEAV<lambda_5f0a4c1567f8adc6734073e5d1e1b35c>@@V<lambda_2e8a7d3640ea6ccb4c2413664c2db6fd>@@@?$__crt_seh_guarded_call@X@@QEAAX$$QEAV<lambda_efdfa57d1f175319df784efa44bb7b81>@@AEAV<lambda_5f0a4c1567f8adc6734073e5d1e1b35c>@@$$QEAV<lambda_2e8a7d3640ea6ccb4c2413664c2db6fd>@@@Z 0000000140023f00     libucrt:mbctype.obj
 0004:00000f0c       $pdata$?getSystemCP@@YAHH@Z 0000000140023f0c     libucrt:mbctype.obj
 0004:00000f18       $pdata$?setSBCS@@YAXPEAU__crt_multibyte_data@@@Z 0000000140023f18     libucrt:mbctype.obj
 0004:00000f24       $pdata$?setSBUpLow@@YAXPEAU__crt_multibyte_data@@@Z 0000000140023f24     libucrt:mbctype.obj
 0004:00000f30       $pdata$?setmbcp_internal@@YAHH_NQEAU__acrt_ptd@@QEAPEAU__crt_multibyte_data@@@Z 0000000140023f30     libucrt:mbctype.obj
 0004:00000f3c       $pdata$?update_thread_multibyte_data_internal@@YAPEAU__crt_multibyte_data@@QEAU__acrt_ptd@@QEAPEAU1@@Z 0000000140023f3c     libucrt:mbctype.obj
 0004:00000f48       $pdata$__acrt_initialize_multibyte 0000000140023f48     libucrt:mbctype.obj
 0004:00000f54       $pdata$__acrt_update_thread_multibyte_data 0000000140023f54     libucrt:mbctype.obj
 0004:00000f60       $pdata$_setmbcp_nolock     0000000140023f60     libucrt:mbctype.obj
 0004:00000f6c       $pdata$__dcrt_get_narrow_environment_from_os 0000000140023f6c     libucrt:get_environment_from_os.obj
 0004:00000f78       $pdata$??$common_set_variable_in_environment_nolock@D@@YAHQEADH@Z 0000000140023f78     libucrt:setenv.obj
 0004:00000f84       $pdata$??$copy_environment@D@@YAPEAPEADQEAPEAD@Z 0000000140023f84     libucrt:setenv.obj
 0004:00000f90       $pdata$_recalloc_base      0000000140023f90     libucrt:recalloc.obj
 0004:00000f9c       $pdata$__acrt_initialize_heap 0000000140023f9c     libucrt:heap_handle.obj
 0004:00000fa8       $pdata$__acrt_execute_initializers 0000000140023fa8     libucrt:shared_initialization.obj
 0004:00000fb4       $pdata$__acrt_execute_uninitializers 0000000140023fb4     libucrt:shared_initialization.obj
 0004:00000fc0       $pdata$??$?RV<lambda_450d765d439847d4c735a33c368b5fc0>@@AEAV<lambda_44731a7d0e6d81c3e6aa82d741081786>@@V<lambda_601a2a7da3b7a96e9554ac7215c4b07c>@@@?$__crt_seh_guarded_call@P6AXH@Z@@QEAAP6AXH@Z$$QEAV<lambda_450d765d439847d4c735a33c368b5fc0>@@AEAV<lambda_44731a7d0e6d81c3e6aa82d741081786>@@$$QEAV<lambda_601a2a7da3b7a96e9554ac7215c4b07c>@@@Z 0000000140023fc0     libucrt:signal.obj
 0004:00000fcc       $pdata$__acrt_get_sigabrt_handler 0000000140023fcc     libucrt:signal.obj
 0004:00000fd8       $pdata$raise               0000000140023fd8     libucrt:signal.obj
 0004:00000fe4       $pdata$??$common_expand_argv_wildcards@D@@YAHQEAPEADQEAPEAPEAD@Z 0000000140023fe4     libucrt:argv_wildcards.obj
 0004:00000ff0       $pdata$??$copy_and_add_argument_to_buffer@D@@YAHQEBD0_KAEAV?$argument_list@D@?A0x5f5c8891@@@Z 0000000140023ff0     libucrt:argv_wildcards.obj
 0004:00000ffc       $pdata$??$expand_argument_wildcards@D@@YAHQEAD0AEAV?$argument_list@D@?A0x5f5c8891@@@Z 0000000140023ffc     libucrt:argv_wildcards.obj
 0004:00001008       $pdata$?x_ismbbtype_l@@YAHPEAU__crt_locale_pointers@@IHH@Z 0000000140024008     libucrt:ismbbyte.obj
 0004:00001014       $pdata$__acrt_lowio_create_handle_array 0000000140024014     libucrt:osfinfo.obj
 0004:00001020       $pdata$__acrt_lowio_destroy_handle_array 0000000140024020     libucrt:osfinfo.obj
 0004:0000102c       $pdata$__acrt_lowio_ensure_fh_exists 000000014002402c     libucrt:osfinfo.obj
 0004:00001038       $pdata$_free_osfhnd        0000000140024038     libucrt:osfinfo.obj
 0004:00001044       $pdata$_get_osfhandle      0000000140024044     libucrt:osfinfo.obj
 0004:00001050       $pdata$__acrt_locale_free_monetary 0000000140024050     libucrt:initmon.obj
 0004:0000105c       $pdata$__acrt_locale_free_numeric 000000014002405c     libucrt:initnum.obj
 0004:00001068       $pdata$?free_crt_array_internal@@YAXQEAPEBX_K@Z 0000000140024068     libucrt:inittime.obj
 0004:00001074       $pdata$__acrt_locale_free_time 0000000140024074     libucrt:inittime.obj
 0004:00001080       $pdata$__pctype_func       0000000140024080     libucrt:ctype.obj
 0004:0000108c       $pdata$__acrt_GetStringTypeA 000000014002408c     libucrt:getstringtypea.obj
 0004:00001098       $pdata$__acrt_free_locale  0000000140024098     libucrt:locale_refcounting.obj
 0004:000010a4       $pdata$__acrt_locale_free_lc_time_if_unreferenced 00000001400240a4     libucrt:locale_refcounting.obj
 0004:000010b0       $pdata$__acrt_release_locale_ref 00000001400240b0     libucrt:locale_refcounting.obj
 0004:000010bc       $pdata$__acrt_update_thread_locale_data 00000001400240bc     libucrt:locale_refcounting.obj
 0004:000010c8       $pdata$_updatetlocinfoEx_nolock 00000001400240c8     libucrt:locale_refcounting.obj
 0004:000010d4       $pdata$_isctype_l          00000001400240d4     libucrt:isctype.obj
 0004:000010e0       $pdata$?GetTableIndexFromLocaleName@@YAHPEB_W@Z 00000001400240e0     libucrt:lcidtoname_downlevel.obj
 0004:000010ec       $pdata$__acrt_DownlevelLocaleNameToLCID 00000001400240ec     libucrt:lcidtoname_downlevel.obj
 0004:000010f8       $pdata$_fclose_nolock      00000001400240f8     libucrt:fclose.obj
 0004:00001104       $pdata$fclose              0000000140024104     libucrt:fclose.obj
 0004:00001110       $pdata$??$?RV<lambda_a37b2b86f63e897a80ea819b0eb08c01>@@AEAV<lambda_38ce7e780aa69e748d6df282ebc68efe>@@V<lambda_99fb1378e971ab6e7edea83e3a7a83a2>@@@?$__crt_seh_guarded_call@H@@QEAAH$$QEAV<lambda_a37b2b86f63e897a80ea819b0eb08c01>@@AEAV<lambda_38ce7e780aa69e748d6df282ebc68efe>@@$$QEAV<lambda_99fb1378e971ab6e7edea83e3a7a83a2>@@@Z 0000000140024110     libucrt:commit.obj
 0004:0000111c       $pdata$_commit             000000014002411c     libucrt:commit.obj
 0004:00001128       $pdata$?write_double_translated_ansi_nolock@@YA?AUwrite_result@?A0x17268360@@HQEBDI@Z 0000000140024128     libucrt:write.obj
 0004:00001134       $pdata$?write_text_ansi_nolock@@YA?AUwrite_result@?A0x17268360@@HQEBDI@Z 0000000140024134     libucrt:write.obj
 0004:00001140       $pdata$?write_text_utf16le_nolock@@YA?AUwrite_result@?A0x17268360@@HQEBDI@Z 0000000140024140     libucrt:write.obj
 0004:0000114c       $pdata$?write_text_utf8_nolock@@YA?AUwrite_result@?A0x17268360@@HQEBDI@Z 000000014002414c     libucrt:write.obj
 0004:00001158       $pdata$_write              0000000140024158     libucrt:write.obj
 0004:00001164       $pdata$_write_nolock       0000000140024164     libucrt:write.obj
 0004:00001170       $pdata$_isleadbyte_l       0000000140024170     libucrt:_wctype.obj
 0004:0000117c       $pdata$?__acrt_LCMapStringA_stat@@YAHPEAU__crt_locale_pointers@@PEB_WKPEBDHPEADHHH@Z 000000014002417c     libucrt:lcmapstringa.obj
 0004:00001188       $pdata$__acrt_LCMapStringA 0000000140024188     libucrt:lcmapstringa.obj
 0004:00001194       $pdata$__acrt_fp_strflt_to_string 0000000140024194     libucrt:_fptostr.obj
 0004:000011a0       $pdata$?divide@__crt_strtox@@YA_KAEAUbig_integer@1@AEBU21@@Z 00000001400241a0     libucrt:cfout.obj
 0004:000011ac       $pdata$5$?divide@__crt_strtox@@YA_KAEAUbig_integer@1@AEBU21@@Z 00000001400241ac     libucrt:cfout.obj
 0004:000011b8       $pdata$6$?divide@__crt_strtox@@YA_KAEAUbig_integer@1@AEBU21@@Z 00000001400241b8     libucrt:cfout.obj
 0004:000011c4       $pdata$__acrt_fltout       00000001400241c4     libucrt:cfout.obj
 0004:000011d0       $pdata$memcpy_s            00000001400241d0     libucrt:cfout.obj
 0004:000011dc       $pdata$??$write_buffer_nolock@D@@YA_NDV__crt_stdio_stream@@@Z 00000001400241dc     libucrt:_flsbuf.obj
 0004:000011e8       $pdata$__acrt_stdio_flush_and_write_narrow_nolock 00000001400241e8     libucrt:_flsbuf.obj
 0004:000011f4       $pdata$_isatty             00000001400241f4     libucrt:isatty.obj
 0004:00001200       $pdata$?initialize_multibyte@@YAHXZ 0000000140024200     libucrt:multibyte_initializer.obj
 0004:0000120c       $pdata$_strnicoll_l        000000014002420c     libucrt:strnicol.obj
 0004:00001218       $pdata$_msize_base         0000000140024218     libucrt:msize.obj
 0004:00001224       $pdata$_realloc_base       0000000140024224     libucrt:realloc_base.obj
 0004:00001230       $pdata$qsort               0000000140024230     libucrt:qsort.obj
 0004:0000123c       $pdata$4$qsort             000000014002423c     libucrt:qsort.obj
 0004:00001248       $pdata$5$qsort             0000000140024248     libucrt:qsort.obj
 0004:00001254       $pdata$strncpy_s           0000000140024254     libucrt:strncpy_s.obj
 0004:00001260       $pdata$fallbackMethod      0000000140024260     libucrt:strpbrk.obj
 0004:0000126c       $pdata$strpbrk             000000014002426c     libucrt:strpbrk.obj
 0004:00001278       $pdata$_mbsdec_l           0000000140024278     libucrt:mbsdec.obj
 0004:00001284       $pdata$??$?RV<lambda_751a882b2c74d4b022dec766aa51a29a>@@AEAV<lambda_628dfdc04ba53c8bfc02c9951375f3f5>@@V<lambda_f6c7be5f7998530c34de24c7437d6b54>@@@?$__crt_seh_guarded_call@H@@QEAAH$$QEAV<lambda_751a882b2c74d4b022dec766aa51a29a>@@AEAV<lambda_628dfdc04ba53c8bfc02c9951375f3f5>@@$$QEAV<lambda_f6c7be5f7998530c34de24c7437d6b54>@@@Z 0000000140024284     libucrt:close.obj
 0004:00001290       $pdata$_close              0000000140024290     libucrt:close.obj
 0004:0000129c       $pdata$_close_nolock       000000014002429c     libucrt:close.obj
 0004:000012a8       $pdata$??$common_lseek@_J@@YA_JH_JH@Z 00000001400242a8     libucrt:lseek.obj
 0004:000012b4       $pdata$??$common_lseek_nolock@_J@@YA_JH_JH@Z 00000001400242b4     libucrt:lseek.obj
 0004:000012c0       $pdata$_putwch_nolock      00000001400242c0     libucrt:putwch.obj
 0004:000012cc       $pdata$fegetenv            00000001400242cc     libucrt:fegetenv.obj
 0004:000012d8       $pdata$fesetenv            00000001400242d8     libucrt:fesetenv.obj
 0004:000012e4       $pdata$feholdexcept        00000001400242e4     libucrt:feholdexcept.obj
 0004:000012fc       $pdata$__acrt_stdio_allocate_buffer_nolock 00000001400242fc     libucrt:_getbuf.obj
 0004:00001308       $pdata$__ascii_strnicmp    0000000140024308     libucrt:strnicmp.obj
 0004:00001314       $pdata$_strnicmp           0000000140024314     libucrt:strnicmp.obj
 0004:00001320       $pdata$_strnicmp_l         0000000140024320     libucrt:strnicmp.obj
 0004:0000132c       $pdata$?InternalCompareStringA@@YAHPEAU__crt_locale_pointers@@PEB_WKPEBDH2HH@Z 000000014002432c     libucrt:comparestringa.obj
 0004:00001338       $pdata$__acrt_CompareStringA 0000000140024338     libucrt:comparestringa.obj
 0004:00001344       $pdata$__dcrt_lowio_ensure_console_output_initialized 0000000140024344     libucrt:initcon.obj
 0004:00001350       $pdata$__dcrt_terminate_console_output 0000000140024350     libucrt:initcon.obj
 0004:0000135c       $pdata$__dcrt_write_console_w 000000014002435c     libucrt:initcon.obj
 0004:00001368       $pdata$__acrt_fenv_set_control 0000000140024368     libucrt:_fenvutils.obj
 0004:00001374       $pdata$_clearfp            0000000140024374     libucrt:ieee.obj
 0004:00001380       $pdata$_call_matherr       0000000140024380     libucrt:libm_error.obj
 0004:0000138c       $pdata$_exception_enabled  000000014002438c     libucrt:libm_error.obj
 0004:00001398       $pdata$_handle_error       0000000140024398     libucrt:libm_error.obj
 0004:000013a4       $pdata$__acrt_initialize_fma3 00000001400243a4     libucrt:fma3_available.obj
 0004:000013b0       $pdata$_log10_special      00000001400243b0     libucrt:log_special.obj
 0004:000013bc       $pdata$_log_special_common 00000001400243bc     libucrt:log_special.obj
 0004:000013d4       $pdata$_raise_exc          00000001400243d4     libucrt:fpexcept.obj
 0004:000013e0       $pdata$_raise_exc_ex       00000001400243e0     libucrt:fpexcept.obj
 0004:000013ec       $pdata$_set_errno_from_matherr 00000001400243ec     libucrt:fpexcept.obj
 0004:000013f8       $pdata$_clrfp              00000001400243f8     libucrt:fpctrl.obj
 0004:00001404       $pdata$_ctrlfp             0000000140024404     libucrt:fpctrl.obj
 0004:00001410       $pdata$_set_statfp         0000000140024410     libucrt:fpctrl.obj
 0004:0000141c       $pdata$_statfp             000000014002441c     libucrt:fpctrl.obj
 0004:00001428       $pdata$_IsNonwritableInCurrentImage 0000000140024428     LIBCMT:pesect.obj
 0004:0000144c       $pdata$strrchr             000000014002444c     libvcruntime:strrchr.obj
 0004:00001458       $pdata$strchr              0000000140024458     libvcruntime:strchr.obj
 0004:00001470       $pdata$?dtor$0@?0??loadFromFile@LTexture@@QEAA_NV?$basic_string@DU?$char_traits@D@std@@V?$allocator@D@2@@std@@@Z@4HA 0000000140024470     main.obj
 0004:0000147c       $pdata$?dtor$0@?0??loadFromRenderedText@LTexture@@QEAA_NV?$basic_string@DU?$char_traits@D@std@@V?$allocator@D@2@@std@@USDL_Color@@@Z@4HA 000000014002447c     main.obj
 0004:00001488       $pdata$?catch$1@?0??_Copy@?$basic_string@DU?$char_traits@D@std@@V?$allocator@D@2@@std@@QEAAX_K0@Z@4HA 0000000140024488     main.obj
 0004:00001494       $pdata$?catch$0@?0??_Copy@?$basic_string@DU?$char_traits@D@std@@V?$allocator@D@2@@std@@QEAAX_K0@Z@4HA 0000000140024494     main.obj
 0004:000014a0       $pdata$__scrt_is_nonwritable_in_current_image$filt$0 00000001400244a0     LIBCMT:utility.obj
 0004:000014ac       $pdata$?filt$0@?0??__scrt_common_main_seh@@YAHXZ@4HA 00000001400244ac     LIBCMT:exe_main.obj
 0004:000014b8       $pdata$_CallSETranslator$filt$0 00000001400244b8     libvcruntime:trnsctrl.obj
 0004:000014c4       $pdata$__CxxCallCatchBlock$filt$0 00000001400244c4     libvcruntime:frame.obj
 0004:000014d0       $pdata$__CxxCallCatchBlock$fin$1 00000001400244d0     libvcruntime:frame.obj
 0004:000014dc       $pdata$__DestructExceptionObject$filt$0 00000001400244dc     libvcruntime:frame.obj
 0004:000014e8       $pdata$__FrameUnwindToState$filt$0 00000001400244e8     libvcruntime:frame.obj
 0004:000014f4       $pdata$__FrameUnwindToState$fin$1 00000001400244f4     libvcruntime:frame.obj
 0004:00001500       $pdata$_query_new_handler$fin$0 0000000140024500     libucrt:new_handler.obj
 0004:0000150c       $pdata$?filt$0@?0???R<lambda_6e4b09c48022b2350581041d5f6b0c4c>@@QEBA@XZ@4HA 000000014002450c     libucrt:exit.obj
 0004:00001518       $pdata$?fin$0@?0???$?RV<lambda_410d79af7f07d98d83a3f525b3859a53>@@AEAV<lambda_3e16ef9562a7dcce91392c22ab16ea36>@@V<lambda_38119f0e861e05405d8a144b9b982f0a>@@@?$__crt_seh_guarded_call@X@@QEAAX$$QEAV<lambda_410d79af7f07d98d83a3f525b3859a53>@@AEAV<lambda_3e16ef9562a7dcce91392c22ab16ea36>@@$$QEAV<lambda_38119f0e861e05405d8a144b9b982f0a>@@@Z@4HA 0000000140024518     libucrt:wsetlocale.obj
 0004:00001524       $pdata$?fin$0@?0???$?RV<lambda_8369fcb7c4df1e85de37618bd2b85f07>@@AEAV<lambda_a10e4b102d4a2c3aac6f4f48bbdf488f>@@V<lambda_5b7707bd6d7a0c4713179f36c7fd995d>@@@?$__crt_seh_guarded_call@H@@QEAAH$$QEAV<lambda_8369fcb7c4df1e85de37618bd2b85f07>@@AEAV<lambda_a10e4b102d4a2c3aac6f4f48bbdf488f>@@$$QEAV<lambda_5b7707bd6d7a0c4713179f36c7fd995d>@@@Z@4HA 0000000140024524     libucrt:onexit.obj
 0004:00001524       $pdata$?fin$0@?0???$?RV<lambda_d80eeec6fff315bfe5c115232f3240e3>@@AEAV<lambda_6e4b09c48022b2350581041d5f6b0c4c>@@V<lambda_2358e3775559c9db80273638284d5e45>@@@?$__crt_seh_guarded_call@X@@QEAAX$$QEAV<lambda_d80eeec6fff315bfe5c115232f3240e3>@@AEAV<lambda_6e4b09c48022b2350581041d5f6b0c4c>@@$$QEAV<lambda_2358e3775559c9db80273638284d5e45>@@@Z@4HA 0000000140024524     libucrt:exit.obj
 0004:00001524       $pdata$?fin$0@?0???$?RV<lambda_efdfa57d1f175319df784efa44bb7b81>@@AEAV<lambda_5f0a4c1567f8adc6734073e5d1e1b35c>@@V<lambda_2e8a7d3640ea6ccb4c2413664c2db6fd>@@@?$__crt_seh_guarded_call@X@@QEAAX$$QEAV<lambda_efdfa57d1f175319df784efa44bb7b81>@@AEAV<lambda_5f0a4c1567f8adc6734073e5d1e1b35c>@@$$QEAV<lambda_2e8a7d3640ea6ccb4c2413664c2db6fd>@@@Z@4HA 0000000140024524     libucrt:mbctype.obj
 0004:00001524       $pdata$?fin$0@?0???$?RV<lambda_0ae27a3a962d80f24befdcbee591983d>@@AEAV<lambda_8d0ee55de4b1038c4002e0adecdf1839>@@V<lambda_dc504788e8f1664fe9b84e20bfb512f2>@@@?$__crt_seh_guarded_call@X@@QEAAX$$QEAV<lambda_0ae27a3a962d80f24befdcbee591983d>@@AEAV<lambda_8d0ee55de4b1038c4002e0adecdf1839>@@$$QEAV<lambda_dc504788e8f1664fe9b84e20bfb512f2>@@@Z@4HA 0000000140024524     libucrt:per_thread_data.obj
 0004:00001524       $pdata$?fin$0@?0???$?RV<lambda_aa87e3671a710a21b5dc78c0bdf72e11>@@AEAV<lambda_92619d2358a28f41a33ba319515a20b9>@@V<lambda_6992ecaafeb10aed2b74cb1fae11a551>@@@?$__crt_seh_guarded_call@X@@QEAAX$$QEAV<lambda_aa87e3671a710a21b5dc78c0bdf72e11>@@AEAV<lambda_92619d2358a28f41a33ba319515a20b9>@@$$QEAV<lambda_6992ecaafeb10aed2b74cb1fae11a551>@@@Z@4HA 0000000140024524     libucrt:per_thread_data.obj
 0004:00001524       $pdata$?fin$0@?0???$?RV<lambda_f2e299630e499de9f9a165e60fcd3db5>@@AEAV<lambda_2ae9d31cdba2644fcbeaf08da7c24588>@@V<lambda_40d01ff24d0e7b3814fdbdcee8eab3c7>@@@?$__crt_seh_guarded_call@X@@QEAAX$$QEAV<lambda_f2e299630e499de9f9a165e60fcd3db5>@@AEAV<lambda_2ae9d31cdba2644fcbeaf08da7c24588>@@$$QEAV<lambda_40d01ff24d0e7b3814fdbdcee8eab3c7>@@@Z@4HA 0000000140024524     libucrt:per_thread_data.obj
 0004:00001524       $pdata$?fin$0@?0???$?RV<lambda_450d765d439847d4c735a33c368b5fc0>@@AEAV<lambda_44731a7d0e6d81c3e6aa82d741081786>@@V<lambda_601a2a7da3b7a96e9554ac7215c4b07c>@@@?$__crt_seh_guarded_call@P6AXH@Z@@QEAAP6AXH@Z$$QEAV<lambda_450d765d439847d4c735a33c368b5fc0>@@AEAV<lambda_44731a7d0e6d81c3e6aa82d741081786>@@$$QEAV<lambda_601a2a7da3b7a96e9554ac7215c4b07c>@@@Z@4HA 0000000140024524     libucrt:signal.obj
 0004:00001524       $pdata$?fin$0@?0???$?RV<lambda_7777bce6b2f8c936911f934f8298dc43>@@AEAV<lambda_f03950bc5685219e0bcd2087efbe011e>@@V<lambda_3883c3dff614d5e0c5f61bb1ac94921c>@@@?$__crt_seh_guarded_call@H@@QEAAH$$QEAV<lambda_7777bce6b2f8c936911f934f8298dc43>@@AEAV<lambda_f03950bc5685219e0bcd2087efbe011e>@@$$QEAV<lambda_3883c3dff614d5e0c5f61bb1ac94921c>@@@Z@4HA 0000000140024524     libucrt:onexit.obj
 0004:00001524       $pdata$?fin$0@?0???$?RV<lambda_2d41944a1d46af3157314b8a01080d33>@@AEAV<lambda_8f455de75cd7d7f24b4096f044d8b9e6>@@V<lambda_aa500f224e6afead328df44964fe2772>@@@?$__crt_seh_guarded_call@X@@QEAAX$$QEAV<lambda_2d41944a1d46af3157314b8a01080d33>@@AEAV<lambda_8f455de75cd7d7f24b4096f044d8b9e6>@@$$QEAV<lambda_aa500f224e6afead328df44964fe2772>@@@Z@4HA 0000000140024524     libucrt:per_thread_data.obj
 0004:00001530       $pdata$_fcloseall$fin$0    0000000140024530     libucrt:closeall.obj
 0004:0000153c       $pdata$?fin$0@?0???$?RV<lambda_842d9ff0dc9ef11c61343bbaebe7f885>@@AEAV<lambda_c5860995281e5c4ce005b3de8f5874ee>@@V<lambda_d90129c13df834fdcbf8d2b88dafcf2d>@@@?$__crt_seh_guarded_call@X@@QEAAX$$QEAV<lambda_842d9ff0dc9ef11c61343bbaebe7f885>@@AEAV<lambda_c5860995281e5c4ce005b3de8f5874ee>@@$$QEAV<lambda_d90129c13df834fdcbf8d2b88dafcf2d>@@@Z@4HA 000000014002453c     libucrt:fflush.obj
 0004:0000153c       $pdata$?fin$0@?0???$?RV<lambda_74b93660f2d9eb3fb15c5de9eff9db7b>@@AEAV<lambda_32f117a32e8f8eb613cbf2ca819ed45e>@@V<lambda_7322894ee7c8a2d41153fedefeab09e3>@@@?$__crt_seh_guarded_call@H@@QEAAH$$QEAV<lambda_74b93660f2d9eb3fb15c5de9eff9db7b>@@AEAV<lambda_32f117a32e8f8eb613cbf2ca819ed45e>@@$$QEAV<lambda_7322894ee7c8a2d41153fedefeab09e3>@@@Z@4HA 000000014002453c     libucrt:output.obj
 0004:00001548       $pdata$?fin$0@?0???$?RV<lambda_886d6c58226a84441f68b9f2b8217b83>@@AEAV<lambda_ab61a845afdef5b7c387490eaf3616ee>@@V<lambda_f7f22ab5edc0698d5f6905b0d3f44752>@@@?$__crt_seh_guarded_call@X@@QEAAX$$QEAV<lambda_886d6c58226a84441f68b9f2b8217b83>@@AEAV<lambda_ab61a845afdef5b7c387490eaf3616ee>@@$$QEAV<lambda_f7f22ab5edc0698d5f6905b0d3f44752>@@@Z@4HA 0000000140024548     libucrt:fflush.obj
 0004:00001554       $pdata$__acrt_initialize_lowio$fin$0 0000000140024554     libucrt:ioinit.obj
 0004:00001554       $pdata$__acrt_lowio_ensure_fh_exists$fin$0 0000000140024554     libucrt:osfinfo.obj
 0004:00001560       $pdata$?fin$0@?0??update_thread_multibyte_data_internal@@YAPEAU__crt_multibyte_data@@QEAU__acrt_ptd@@QEAPEAU1@@Z@4HA 0000000140024560     libucrt:mbctype.obj
 0004:0000156c       $pdata$raise$fin$0         000000014002456c     libucrt:signal.obj
 0004:00001578       $pdata$__acrt_update_thread_locale_data$fin$0 0000000140024578     libucrt:locale_refcounting.obj
 0004:00001584       $pdata$fclose$fin$0        0000000140024584     libucrt:fclose.obj
 0004:00001590       $pdata$?fin$0@?0???$common_lseek@_J@@YA_JH_JH@Z@4HA 0000000140024590     libucrt:lseek.obj
 0004:00001590       $pdata$_write$fin$0        0000000140024590     libucrt:write.obj
 0004:0000159c       $pdata$?fin$0@?0???$?RV<lambda_751a882b2c74d4b022dec766aa51a29a>@@AEAV<lambda_628dfdc04ba53c8bfc02c9951375f3f5>@@V<lambda_f6c7be5f7998530c34de24c7437d6b54>@@@?$__crt_seh_guarded_call@H@@QEAAH$$QEAV<lambda_751a882b2c74d4b022dec766aa51a29a>@@AEAV<lambda_628dfdc04ba53c8bfc02c9951375f3f5>@@$$QEAV<lambda_f6c7be5f7998530c34de24c7437d6b54>@@@Z@4HA 000000014002459c     libucrt:close.obj
 0004:0000159c       $pdata$?fin$0@?0???$?RV<lambda_a37b2b86f63e897a80ea819b0eb08c01>@@AEAV<lambda_38ce7e780aa69e748d6df282ebc68efe>@@V<lambda_99fb1378e971ab6e7edea83e3a7a83a2>@@@?$__crt_seh_guarded_call@H@@QEAAH$$QEAV<lambda_a37b2b86f63e897a80ea819b0eb08c01>@@AEAV<lambda_38ce7e780aa69e748d6df282ebc68efe>@@$$QEAV<lambda_99fb1378e971ab6e7edea83e3a7a83a2>@@@Z@4HA 000000014002459c     libucrt:commit.obj
 0004:000015a8       $pdata$_ctrlfp$filt$0      00000001400245a8     libucrt:fpctrl.obj
 0004:000015b4       $pdata$_IsNonwritableInCurrentImage$filt$0 00000001400245b4     LIBCMT:pesect.obj
 0004:000015c0       $pdata$??__FgBackgroundTexture@@YAXXZ 00000001400245c0     main.obj
 0004:000015cc       $pdata$??__FgTextTexture@@YAXXZ 00000001400245cc     main.obj
 0004:000015d8       $pdata$??__FgTexture@@YAXXZ 00000001400245d8     main.obj
 0005:00000000       __guard_fids__             0000000140025000     libcpmt:xthrow.obj
 0005:00000008       __guard_fids__             0000000140025008     libcpmt:xthrow.obj
 0005:00000010       __guard_fids__             0000000140025010     libcpmt:xthrow.obj
 0005:00000018       __guard_fids__             0000000140025018     libcpmt:xthrow.obj
 0005:00000020       __guard_fids__             0000000140025020     libcpmt:xthrow.obj
 0005:00000028       __guard_fids__             0000000140025028     LIBCMT:exe_main.obj
 0005:0000002c       __guard_fids__             000000014002502c     LIBCMT:exe_main.obj
 0005:00000030       __guard_fids__             0000000140025030     LIBCMT:exe_main.obj
 0005:00000034       __guard_fids_?pre_c_initialization@@YAHXZ 0000000140025034     LIBCMT:exe_main.obj
 0005:0000003c       __guard_fids__             000000014002503c     LIBCMT:std_type_info_static.obj
 0005:00000040       __guard_fids__             0000000140025040     LIBCMT:throw_bad_alloc.obj
 0005:00000048       __guard_fids___scrt_set_unhandled_exception_filter 0000000140025048     LIBCMT:utility_desktop.obj
 0005:0000004c       __guard_fids__             000000014002504c     LIBCMT:guard_support.obj
 0005:00000050       __guard_fids__UnwindNestedFrames 0000000140025050     libvcruntime:trnsctrl.obj
 0005:00000054       __guard_fids__             0000000140025054     libvcruntime:telemetry.obj
 0005:00000058       __guard_fids_?TraceLoggingRegister@__vcrt_trace_logging_provider@@YAJPEBU_TlgProvider_t@1@PEBU_GUID@@P6AX1KE_K2PEAU_EVENT_FILTER_DESCRIPTOR@@PEAX@Z4@Z 0000000140025058     libvcruntime:telemetry.obj
 0005:0000005c       __guard_fids___vcrt_initialize_ptd 000000014002505c     libvcruntime:per_thread_data.obj
 0005:00000060       __guard_fids__             0000000140025060     libvcruntime:frame.obj
 0005:00000064       __guard_fids__             0000000140025064     libvcruntime:frame.obj
 0005:0000006c       __guard_fids__             000000014002506c     libucrt:initialization.obj
 0005:000000d0       __guard_fids___acrt_initialize_ptd 00000001400250d0     libucrt:per_thread_data.obj
 0005:000000d4       __guard_fids__             00000001400250d4     libucrt:stdio_initializer.obj
 0005:000000d8       __guard_fids__             00000001400250d8     libucrt:stdio_initializer.obj
 0005:000000dc       __guard_fids_??$expand_argument_wildcards@D@@YAHQEAD0AEAV?$argument_list@D@?A0x5f5c8891@@@Z 00000001400250dc     libucrt:argv_wildcards.obj
 0005:000000e0       __guard_fids__             00000001400250e0     libucrt:locale_initializer.obj
 0005:000000e4       __guard_fids__             00000001400250e4     libucrt:multibyte_initializer.obj
 0005:000000e8       __guard_fids__             00000001400250e8     libucrt:console_output_initializer.obj
 0005:000000ec       __guard_fids__             00000001400250ec     libucrt:fma3_initializer.obj
