 main

 Timestamp is 5ad5b8f5 (Tue Apr 17 11:05:57 2018)

 Preferred load address is 0000000140000000

 Start         Length     Name                   Class
 0001:00000000 000002c0H .text                   CODE
 0001:000002c0 00000060H .text$di                CODE
 0001:00000320 00013550H .text$mn                CODE
 0001:00013870 000000e0H .text$mn$00             CODE
 0001:00013950 000003b0H .text$x                 CODE
 0001:00013d00 00000035H .text$yd                CODE
 0002:00000000 00000330H .idata$5                DATA
 0002:00000330 00000020H .00cfg                  DATA
 0002:00000350 00000008H .CRT$XCA                DATA
 0002:00000358 00000008H .CRT$XCAA               DATA
 0002:00000360 00000010H .CRT$XCU                DATA
 0002:00000370 00000008H .CRT$XCZ                DATA
 0002:00000378 00000008H .CRT$XIA                DATA
 0002:00000380 00000008H .CRT$XIAA               DATA
 0002:00000388 00000008H .CRT$XIAC               DATA
 0002:00000390 00000018H .CRT$XIC                DATA
 0002:000003a8 00000008H .CRT$XIZ                DATA
 0002:000003b0 00000008H .CRT$XPA                DATA
 0002:000003b8 00000010H .CRT$XPX                DATA
 0002:000003c8 00000008H .CRT$XPXA               DATA
 0002:000003d0 00000008H .CRT$XPZ                DATA
 0002:000003d8 00000008H .CRT$XTA                DATA
 0002:000003e0 00000010H .CRT$XTZ                DATA
 0002:000003e8 00000000H .gfids$y                DATA
 0002:000003f0 00007f60H .rdata                  DATA
 0002:00008350 0000037cH .rdata$r                DATA
 0002:000086cc 0000034cH .rdata$zzzdbg           DATA
 0002:00008a18 00000008H .rtc$IAA                DATA
 0002:00008a20 00000008H .rtc$IZZ                DATA
 0002:00008a28 00000008H .rtc$TAA                DATA
 0002:00008a30 00000008H .rtc$TZZ                DATA
 0002:00008a38 000010a0H .xdata                  DATA
 0002:00009ad8 000001dcH .xdata$x                DATA
 0002:00009cb4 00000000H .edata                  DATA
 0002:00009cb4 0000003cH .idata$2                DATA
 0002:00009cf0 00000018H .idata$3                DATA
 0002:00009d08 00000330H .idata$4                DATA
 0002:0000a038 0000076aH .idata$6                DATA
 0003:00000000 00000940H .data                   DATA
 0003:00000940 00000120H .data$r                 DATA
 0003:00000a60 0000123cH .bss                    DATA
 0004:00000000 000014e8H .pdata                  DATA

  Address         Publics by Value              Rva+Base               Lib:Object

 0000:00000000       __guard_iat_table          0000000000000000     <absolute>
 0000:00000000       __guard_iat_count          0000000000000000     <absolute>
 0000:00000000       __hybrid_code_map          0000000000000000     <absolute>
 0000:00000000       __hybrid_code_map_count    0000000000000000     <absolute>
 0000:00000000       __dynamic_value_reloc_table 0000000000000000     <absolute>
 0000:00000000       __hybrid_auxiliary_iat     0000000000000000     <absolute>
 0000:00000000       __guard_longjmp_table      0000000000000000     <absolute>
 0000:00000000       __guard_longjmp_count      0000000000000000     <absolute>
 0000:00000000       __guard_fids_count         0000000000000000     <absolute>
 0000:00000000       __enclave_config           0000000000000000     <absolute>
 0000:00000000       ___safe_se_handler_table   0000000000000000     <absolute>
 0000:00000000       ___safe_se_handler_count   0000000000000000     <absolute>
 0000:00000000       __guard_fids_table         0000000000000000     <absolute>
 0000:00000100       __guard_flags              0000000000000100     <absolute>
 0000:00000000       __ImageBase                0000000140000000     <linker-defined>
 0001:000002b0       main                       00000001400012b0 f   SDL2main:SDL_windows_main.obj
 0001:00000320       SDL_main                   0000000140001320 f   main.obj
 0001:000004b0       ??0LTexture@@QEAA@XZ       00000001400014b0 f   main.obj
 0001:000004f0       ??1LTexture@@QEAA@XZ       00000001400014f0 f   main.obj
 0001:00000520       ?loadFromFile@LTexture@@QEAA_NV?$basic_string@DU?$char_traits@D@std@@V?$allocator@D@2@@std@@@Z 0000000140001520 f   main.obj
 0001:00000680       ?free@LTexture@@QEAAXXZ    0000000140001680 f   main.obj
 0001:000006d0       ?setColor@LTexture@@QEAAXEEE@Z 00000001400016d0 f   main.obj
 0001:00000710       ?setBlendMode@LTexture@@QEAAXW4SDL_BlendMode@@@Z 0000000140001710 f   main.obj
 0001:00000740       ?setAlpha@LTexture@@QEAAXE@Z 0000000140001740 f   main.obj
 0001:00000770       ?render@LTexture@@QEAAXHHPEAUSDL_Rect@@@Z 0000000140001770 f   main.obj
 0001:00000820       ?getWidth@LTexture@@QEAAHXZ 0000000140001820 f   main.obj
 0001:00000840       ?getHeight@LTexture@@QEAAHXZ 0000000140001840 f   main.obj
 0001:00000860       ?init@@YA_NXZ              0000000140001860 f   main.obj
 0001:00000960       ?loadMedia@@YA_NXZ         0000000140001960 f   main.obj
 0001:00000b60       ?close@@YAXXZ              0000000140001b60 f   main.obj
 0001:00000bc0       ?loadTexture@@YAPEAUSDL_Texture@@V?$basic_string@DU?$char_traits@D@std@@V?$allocator@D@2@@std@@@Z 0000000140001bc0 f   main.obj
 0001:00000c10       ??$?0$$V@?$_Compressed_pair@V?$allocator@D@std@@V?$_String_val@U?$_Simple_types@D@std@@@2@$00@std@@QEAA@U_Zero_then_variadic_args_t@1@@Z 0000000140001c10 f i main.obj
 0001:00000c40       ??$_Allocate@$0BA@U_Default_allocate_traits@std@@$0A@@std@@YAPEAX_K@Z 0000000140001c40 f i main.obj
 0001:00000c80       ??$_Allocate_manually_vector_aligned@U_Default_allocate_traits@std@@@std@@YAPEAX_K@Z 0000000140001c80 f i main.obj
 0001:00000d00       ?_Get_second@?$_Compressed_pair@V?$allocator@D@std@@V?$_String_val@U?$_Simple_types@D@std@@@2@$00@std@@QEBAAEBV?$_String_val@U?$_Simple_types@D@std@@@2@XZ 0000000140001d00 f i main.obj
 0001:00000d00       ??$_Unfancy@D@std@@YAPEADPEAD@Z 0000000140001d00 f i main.obj
 0001:00000d00       ??0?$allocator@D@std@@QEAA@XZ 0000000140001d00 f i main.obj
 0001:00000d00       ??$forward@AEBQEAD@std@@YAAEBQEADAEBQEAD@Z 0000000140001d00 f i main.obj
 0001:00000d00       ??$addressof@PEAD@std@@YAPEAPEADAEAPEAD@Z 0000000140001d00 f i main.obj
 0001:00000d00       ??$_Get_size_of_n@$00@std@@YA_K_K@Z 0000000140001d00 f i main.obj
 0001:00000d00       ??$_Convert_size@_K@std@@YA_K_K@Z 0000000140001d00 f i main.obj
 0001:00000d00       ??0_Bxty@?$_String_val@U?$_Simple_types@D@std@@@std@@QEAA@XZ 0000000140001d00 f i main.obj
 0001:00000d00       ?_Get_first@?$_Compressed_pair@V?$allocator@D@std@@V?$_String_val@U?$_Simple_types@D@std@@@2@$00@std@@QEAAAEAV?$allocator@D@2@XZ 0000000140001d00 f i main.obj
 0001:00000d00       ?_Get_second@?$_Compressed_pair@V?$allocator@D@std@@V?$_String_val@U?$_Simple_types@D@std@@@2@$00@std@@QEAAAEAV?$_String_val@U?$_Simple_types@D@std@@@2@XZ 0000000140001d00 f i main.obj
 0001:00000d00       ?_Get_first@?$_Compressed_pair@V?$allocator@D@std@@V?$_String_val@U?$_Simple_types@D@std@@@2@$00@std@@QEBAAEBV?$allocator@D@2@XZ 0000000140001d00 f i main.obj
 0001:00000d10       ??$_Deallocate@$0BA@$0A@@std@@YAXPEAX_K@Z 0000000140001d10 f i main.obj
 0001:00000d50       ??$_Max_value@_K@std@@YAAEB_KAEB_K0@Z 0000000140001d50 f i main.obj
 0001:00000da0       ??$_Min_value@_K@std@@YAAEB_KAEB_K0@Z 0000000140001da0 f i main.obj
 0001:00000f20       _initialize_denormal_control 0000000140001f20 f i LIBCMT:denormal_control.obj
 0001:00000f20       _initialize_invalid_parameter_handler 0000000140001f20 f i LIBCMT:invalid_parameter_handler.obj
 0001:00000f20       _guard_check_icall_nop     0000000140001f20 f i LIBCMT:guard_support.obj
 0001:00000f20       ??$__vcrt_va_start_verify_argument_type@QEBD@@YAXXZ 0000000140001f20 f i main.obj
 0001:00000f30       ??$construct@PEADAEBQEAD@?$_Default_allocator_traits@V?$allocator@D@std@@@std@@SAXAEAV?$allocator@D@1@QEAPEADAEBQEAD@Z 0000000140001f30 f i main.obj
 0001:00000f80       ??$destroy@PEAD@?$_Default_allocator_traits@V?$allocator@D@std@@@std@@SAXAEAV?$allocator@D@1@QEAPEAD@Z 0000000140001f80 f i main.obj
 0001:00000f90       ??0?$_String_alloc@U?$_String_base_types@DV?$allocator@D@std@@@std@@@std@@QEAA@XZ 0000000140001f90 f i main.obj
 0001:00000fc0       ??0?$_String_val@U?$_Simple_types@D@std@@@std@@QEAA@XZ 0000000140001fc0 f i main.obj
 0001:00001000       ??0?$basic_string@DU?$char_traits@D@std@@V?$allocator@D@2@@std@@QEAA@QEBD@Z 0000000140002000 f i main.obj
 0001:00001050       ??1?$_Compressed_pair@V?$allocator@D@std@@V?$_String_val@U?$_Simple_types@D@std@@@2@$00@std@@QEAA@XZ 0000000140002050 f i main.obj
 0001:00001070       ??1?$_String_alloc@U?$_String_base_types@DV?$allocator@D@std@@@std@@@std@@QEAA@XZ 0000000140002070 f i main.obj
 0001:00001090       ??1?$_String_val@U?$_Simple_types@D@std@@@std@@QEAA@XZ 0000000140002090 f i main.obj
 0001:000010b0       ??1?$basic_string@DU?$char_traits@D@std@@V?$allocator@D@2@@std@@QEAA@XZ 00000001400020b0 f i main.obj
 0001:000010e0       ??1_Bxty@?$_String_val@U?$_Simple_types@D@std@@@std@@QEAA@XZ 00000001400020e0 f i main.obj
 0001:000010e0       ?_Orphan_all@_Container_base0@std@@QEAAXXZ 00000001400020e0 f i main.obj
 0001:000010f0       ??2@YAPEAX_KPEAX@Z         00000001400020f0 f i main.obj
 0001:00001160       ?_Adjust_manually_vector_aligned@std@@YAXAEAPEAXAEA_K@Z 0000000140002160 f i main.obj
 0001:000011f0       ?_Allocate@_Default_allocate_traits@std@@SAPEAX_K@Z 00000001400021f0 f i main.obj
 0001:00001210       ?_Calculate_growth@?$basic_string@DU?$char_traits@D@std@@V?$allocator@D@2@@std@@QEBA_K_K@Z 0000000140002210 f i main.obj
 0001:000012d0       ?_Getal@?$_String_alloc@U?$_String_base_types@DV?$allocator@D@std@@@std@@@std@@QEAAAEAV?$allocator@D@2@XZ 00000001400022d0 f i main.obj
 0001:000012d0       ?_Get_data@?$_String_alloc@U?$_String_base_types@DV?$allocator@D@std@@@std@@@std@@QEAAAEAV?$_String_val@U?$_Simple_types@D@std@@@2@XZ 00000001400022d0 f i main.obj
 0001:000012d0       ?_Getal@?$_String_alloc@U?$_String_base_types@DV?$allocator@D@std@@@std@@@std@@QEBAAEBV?$allocator@D@2@XZ 00000001400022d0 f i main.obj
 0001:000012d0       ?_Get_data@?$_String_alloc@U?$_String_base_types@DV?$allocator@D@std@@@std@@@std@@QEBAAEBV?$_String_val@U?$_Simple_types@D@std@@@2@XZ 00000001400022d0 f i main.obj
 0001:000012f0       ?_Large_string_engaged@?$_String_val@U?$_Simple_types@D@std@@@std@@QEBA_NXZ 00000001400022f0 f i main.obj
 0001:00001320       ?_Myptr@?$_String_val@U?$_Simple_types@D@std@@@std@@QEAAPEADXZ 0000000140002320 f i main.obj
 0001:00001320       ?_Myptr@?$_String_val@U?$_Simple_types@D@std@@@std@@QEBAPEBDXZ 0000000140002320 f i main.obj
 0001:00001360       ?_Orphan_all@?$_String_alloc@U?$_String_base_types@DV?$allocator@D@std@@@std@@@std@@QEAAXXZ 0000000140002360 f i main.obj
 0001:00001380       ?_Tidy_deallocate@?$basic_string@DU?$char_traits@D@std@@V?$allocator@D@2@@std@@QEAAXXZ 0000000140002380 f i main.obj
 0001:00001450       ?_Tidy_init@?$basic_string@DU?$char_traits@D@std@@V?$allocator@D@2@@std@@QEAAXXZ 0000000140002450 f i main.obj
 0001:000014b0       ?_Xlen@?$basic_string@DU?$char_traits@D@std@@V?$allocator@D@2@@std@@SAXXZ 00000001400024b0 f i main.obj
 0001:000014d0       ?allocate@?$allocator@D@std@@QEAAPEAD_K@Z 00000001400024d0 f i main.obj
 0001:00001500       ?assign@?$basic_string@DU?$char_traits@D@std@@V?$allocator@D@2@@std@@QEAAAEAV12@QEBD@Z 0000000140002500 f i main.obj
 0001:00001540       ?assign@?$basic_string@DU?$char_traits@D@std@@V?$allocator@D@2@@std@@QEAAAEAV12@QEBD_K@Z 0000000140002540 f i main.obj
 0001:00001600       ?assign@?$char_traits@D@std@@SAXAEADAEBD@Z 0000000140002600 f i main.obj
 0001:00001620       ?c_str@?$basic_string@DU?$char_traits@D@std@@V?$allocator@D@2@@std@@QEBAPEBDXZ 0000000140002620 f i main.obj
 0001:00001650       ?copy@?$char_traits@D@std@@SAPEADQEADQEBD_K@Z 0000000140002650 f i main.obj
 0001:00001680       ?deallocate@?$allocator@D@std@@QEAAXQEAD_K@Z 0000000140002680 f i main.obj
 0001:000016b0       ?length@?$char_traits@D@std@@SA_KQEBD@Z 00000001400026b0 f i main.obj
 0001:000016f0       ?max@?$numeric_limits@_J@std@@SA_JXZ 00000001400026f0 f i main.obj
 0001:00001700       ?max_size@?$_Default_allocator_traits@V?$allocator@D@std@@@std@@SA_KAEBV?$allocator@D@2@@Z 0000000140002700 f i main.obj
 0001:00001710       ?max_size@?$basic_string@DU?$char_traits@D@std@@V?$allocator@D@2@@std@@QEBA_KXZ 0000000140002710 f i main.obj
 0001:00001780       ?move@?$char_traits@D@std@@SAPEADQEADQEBD_K@Z 0000000140002780 f i main.obj
 0001:000017b0       __local_stdio_printf_options 00000001400027b0 f i main.obj
 0001:000017c0       _vfprintf_s_l              00000001400027c0 f i main.obj
 0001:00001810       printf_s                   0000000140002810 f i main.obj
 0001:0000186c       SDL_GetError               000000014000286c f   SDL2:SDL2.dll
 0001:00001872       SDL_MapRGB                 0000000140002872 f   SDL2:SDL2.dll
 0001:00001878       SDL_FreeSurface            0000000140002878 f   SDL2:SDL2.dll
 0001:0000187e       SDL_SetColorKey            000000014000287e f   SDL2:SDL2.dll
 0001:00001884       SDL_CreateWindow           0000000140002884 f   SDL2:SDL2.dll
 0001:0000188a       SDL_DestroyWindow          000000014000288a f   SDL2:SDL2.dll
 0001:00001890       SDL_PollEvent              0000000140002890 f   SDL2:SDL2.dll
 0001:00001896       SDL_CreateRenderer         0000000140002896 f   SDL2:SDL2.dll
 0001:0000189c       SDL_CreateTextureFromSurface 000000014000289c f   SDL2:SDL2.dll
 0001:000018a2       SDL_SetTextureColorMod     00000001400028a2 f   SDL2:SDL2.dll
 0001:000018a8       SDL_SetTextureAlphaMod     00000001400028a8 f   SDL2:SDL2.dll
 0001:000018ae       SDL_SetTextureBlendMode    00000001400028ae f   SDL2:SDL2.dll
 0001:000018b4       SDL_SetRenderDrawColor     00000001400028b4 f   SDL2:SDL2.dll
 0001:000018ba       SDL_RenderClear            00000001400028ba f   SDL2:SDL2.dll
 0001:000018c0       SDL_RenderCopy             00000001400028c0 f   SDL2:SDL2.dll
 0001:000018c6       SDL_RenderPresent          00000001400028c6 f   SDL2:SDL2.dll
 0001:000018cc       SDL_DestroyTexture         00000001400028cc f   SDL2:SDL2.dll
 0001:000018d2       SDL_DestroyRenderer        00000001400028d2 f   SDL2:SDL2.dll
 0001:000018d8       SDL_Init                   00000001400028d8 f   SDL2:SDL2.dll
 0001:000018de       SDL_Quit                   00000001400028de f   SDL2:SDL2.dll
 0001:000018e4       IMG_Init                   00000001400028e4 f   SDL2_image:SDL2_image.dll
 0001:000018ea       IMG_Quit                   00000001400028ea f   SDL2_image:SDL2_image.dll
 0001:000018f0       IMG_Load                   00000001400028f0 f   SDL2_image:SDL2_image.dll
 0001:000018f6       IMG_LoadTexture            00000001400028f6 f   SDL2_image:SDL2_image.dll
 0001:000018fc       ??0bad_alloc@std@@QEAA@AEBV01@@Z 00000001400028fc f i libcpmt:xthrow.obj
 0001:0000193c       ??0bad_alloc@std@@QEAA@XZ  000000014000293c f i libcpmt:xthrow.obj
 0001:0000195c       ??0exception@std@@QEAA@AEBV01@@Z 000000014000295c f i libcpmt:xthrow.obj
 0001:00001994       ??0length_error@std@@QEAA@AEBV01@@Z 0000000140002994 f i libcpmt:xthrow.obj
 0001:000019d4       ??0length_error@std@@QEAA@PEBD@Z 00000001400029d4 f i libcpmt:xthrow.obj
 0001:00001a20       ??0logic_error@std@@QEAA@AEBV01@@Z 0000000140002a20 f i libcpmt:xthrow.obj
 0001:00001a60       ??1length_error@std@@UEAA@XZ 0000000140002a60 f i libcpmt:xthrow.obj
 0001:00001a60       ??1bad_exception@std@@UEAA@XZ 0000000140002a60 f i libvcruntime:frame.obj
 0001:00001a60       ??1bad_array_new_length@std@@UEAA@XZ 0000000140002a60 f i LIBCMT:throw_bad_alloc.obj
 0001:00001a60       ??1bad_alloc@std@@UEAA@XZ  0000000140002a60 f i libcpmt:xthrow.obj
 0001:00001a74       ??_Gexception@std@@UEAAPEAXI@Z 0000000140002a74 f i libcpmt:xthrow.obj
 0001:00001a74       ??_Ebad_array_new_length@std@@UEAAPEAXI@Z 0000000140002a74 f i LIBCMT:throw_bad_alloc.obj
 0001:00001a74       ??_Eexception@std@@UEAAPEAXI@Z 0000000140002a74 f i libcpmt:xthrow.obj
 0001:00001a74       ??_Glogic_error@std@@UEAAPEAXI@Z 0000000140002a74 f i libcpmt:xthrow.obj
 0001:00001a74       ??_Elogic_error@std@@UEAAPEAXI@Z 0000000140002a74 f i libcpmt:xthrow.obj
 0001:00001a74       ??_Elength_error@std@@UEAAPEAXI@Z 0000000140002a74 f i libcpmt:xthrow.obj
 0001:00001a74       ??_Glength_error@std@@UEAAPEAXI@Z 0000000140002a74 f i libcpmt:xthrow.obj
 0001:00001a74       ??_Gbad_alloc@std@@UEAAPEAXI@Z 0000000140002a74 f i libcpmt:xthrow.obj
 0001:00001a74       ??_Gbad_array_new_length@std@@UEAAPEAXI@Z 0000000140002a74 f i LIBCMT:throw_bad_alloc.obj
 0001:00001a74       ??_Ebad_alloc@std@@UEAAPEAXI@Z 0000000140002a74 f i libcpmt:xthrow.obj
 0001:00001a74       ??_Gbad_exception@std@@UEAAPEAXI@Z 0000000140002a74 f i libvcruntime:frame.obj
 0001:00001a74       ??_Ebad_exception@std@@UEAAPEAXI@Z 0000000140002a74 f i libvcruntime:frame.obj
 0001:00001ab8       ?_Xlength_error@std@@YAXPEBD@Z 0000000140002ab8 f   libcpmt:xthrow.obj
 0001:00001adc       ?what@exception@std@@UEBAPEBDXZ 0000000140002adc f i libcpmt:xthrow.obj
 0001:00001af0       ??2@YAPEAX_K@Z             0000000140002af0 f   LIBCMT:new_scalar.obj
 0001:00001b2c       ??3@YAXPEAX_K@Z            0000000140002b2c f   LIBCMT:delete_scalar_size.obj
 0001:00001b34       __scrt_acquire_startup_lock 0000000140002b34 f   LIBCMT:utility.obj
 0001:00001b70       __scrt_initialize_crt      0000000140002b70 f   LIBCMT:utility.obj
 0001:00001bbc       __scrt_initialize_onexit_tables 0000000140002bbc f   LIBCMT:utility.obj
 0001:00001c9c       __scrt_is_nonwritable_in_current_image 0000000140002c9c f   LIBCMT:utility.obj
 0001:00001d38       __scrt_release_startup_lock 0000000140002d38 f   LIBCMT:utility.obj
 0001:00001d5c       __scrt_uninitialize_crt    0000000140002d5c f   LIBCMT:utility.obj
 0001:00001d88       _onexit                    0000000140002d88 f   LIBCMT:utility.obj
 0001:00001dd8       atexit                     0000000140002dd8 f   LIBCMT:utility.obj
 0001:00001df0       __GSHandlerCheck           0000000140002df0 f   LIBCMT:_gshandler_.obj
 0001:00001e10       __GSHandlerCheckCommon     0000000140002e10 f   LIBCMT:_gshandler_.obj
 0001:00001e80       __security_check_cookie    0000000140002e80 f   LIBCMT:_amdsecgs_.obj
 0001:0000210c       mainCRTStartup             000000014000310c f   LIBCMT:exe_main.obj
 0001:00002120       ??_Gtype_info@@UEAAPEAXI@Z 0000000140003120 f i LIBCMT:std_type_info_static.obj
 0001:00002120       ??_Etype_info@@UEAAPEAXI@Z 0000000140003120 f i LIBCMT:std_type_info_static.obj
 0001:0000214c       ??0bad_array_new_length@std@@QEAA@AEBV01@@Z 000000014000314c f i LIBCMT:throw_bad_alloc.obj
 0001:0000218c       ??0bad_array_new_length@std@@QEAA@XZ 000000014000318c f i LIBCMT:throw_bad_alloc.obj
 0001:000021ac       ?__scrt_throw_std_bad_alloc@@YAXXZ 00000001400031ac f   LIBCMT:throw_bad_alloc.obj
 0001:000021cc       ?__scrt_throw_std_bad_array_new_length@@YAXXZ 00000001400031cc f   LIBCMT:throw_bad_alloc.obj
 0001:000021ec       ??3@YAXPEAX@Z              00000001400031ec f   LIBCMT:delete_scalar.obj
 0001:000021f4       __isa_available_init       00000001400031f4 f   LIBCMT:_cpu_disp_.obj
 0001:000023b0       _get_startup_argv_mode     00000001400033b0 f   LIBCMT:argv_mode.obj
 0001:000023b8       __scrt_is_ucrt_dll_in_use  00000001400033b8 f   LIBCMT:ucrt_detection.obj
 0001:000023c4       __crt_debugger_hook        00000001400033c4 f   LIBCMT:utility_desktop.obj
 0001:000023cc       __scrt_fastfail            00000001400033cc f   LIBCMT:utility_desktop.obj
 0001:00002518       _get_startup_commit_mode   0000000140003518 f   LIBCMT:commit_mode.obj
 0001:00002518       _get_startup_thread_locale_mode 0000000140003518 f   LIBCMT:thread_locale.obj
 0001:00002518       __scrt_initialize_winrt    0000000140003518 f   LIBCMT:utility_desktop.obj
 0001:00002518       _get_startup_new_mode      0000000140003518 f   LIBCMT:new_mode.obj
 0001:00002518       _matherr                   0000000140003518 f   LIBCMT:matherr.obj
 0001:0000251c       __scrt_is_managed_app      000000014000351c f   LIBCMT:utility_desktop.obj
 0001:00002570       __scrt_set_unhandled_exception_filter 0000000140003570 f   LIBCMT:utility_desktop.obj
 0001:00002580       __scrt_unhandled_exception_filter 0000000140003580 f   LIBCMT:utility_desktop.obj
 0001:000025b8       _guard_check_icall         00000001400035b8 f i LIBCMT:checkcfg.obj
 0001:000025c0       __raise_securityfailure    00000001400035c0 f   LIBCMT:gs_report.obj
 0001:000025f4       __report_gsfailure         00000001400035f4 f   LIBCMT:gs_report.obj
 0001:000026c8       __report_rangecheckfailure 00000001400036c8 f   LIBCMT:gs_report.obj
 0001:000026dc       __report_securityfailure   00000001400036dc f   LIBCMT:gs_report.obj
 0001:0000285c       __security_init_cookie     000000014000385c f   LIBCMT:gs_support.obj
 0001:0000290c       _get_startup_file_mode     000000014000390c f   LIBCMT:file_mode.obj
 0001:00002914       ?__scrt_initialize_type_info@@YAXXZ 0000000140003914 f   LIBCMT:tncleanup.obj
 0001:00002924       _should_initialize_environment 0000000140003924 f   LIBCMT:env_mode.obj
 0001:00002924       __acrt_uninitialize_command_line 0000000140003924 f   libucrt:argv_data.obj
 0001:00002928       __local_stdio_scanf_options 0000000140003928 f i LIBCMT:default_local_stdio_options.obj
 0001:00002930       __scrt_initialize_default_local_stdio_options 0000000140003930 f   LIBCMT:default_local_stdio_options.obj
 0001:0000294c       __scrt_is_user_matherr_present 000000014000394c f   LIBCMT:matherr_detection.obj
 0001:00002958       __scrt_get_dyn_tls_init_callback 0000000140003958 f   LIBCMT:dyn_tls_init.obj
 0001:00002960       __scrt_get_dyn_tls_dtor_callback 0000000140003960 f   LIBCMT:dyn_tls_dtor.obj
 0001:00002968       _RTC_Initialize            0000000140003968 f   LIBCMT:_initsect_.obj
 0001:000029b4       _RTC_Terminate             00000001400039b4 f   LIBCMT:_initsect_.obj
 0001:00002a00       IsProcessorFeaturePresent  0000000140003a00 f   kernel32:KERNEL32.dll
 0001:00002a20       memmove                    0000000140003a20 f   libvcruntime:memcpy.obj
 0001:00002a20       memcpy                     0000000140003a20 f   libvcruntime:memcpy.obj
 0001:00002e68       ?_ExecutionInCatch@@YAHPEAU_xDISPATCHER_CONTEXT@@PEBU_s_FuncInfo@@@Z 0000000140003e68 f   libvcruntime:risctrnsctrl.obj
 0001:00002edc       ?_GetEstablisherFrame@@YAPEA_KPEA_KPEAU_xDISPATCHER_CONTEXT@@PEBU_s_FuncInfo@@0@Z 0000000140003edc f   libvcruntime:risctrnsctrl.obj
 0001:00002fa8       ?_GetRangeOfTrysToCheck@@YAPEBU_s_TryBlockMapEntry@@PEA_KPEBU_s_FuncInfo@@HHPEAI2PEAU_xDISPATCHER_CONTEXT@@@Z 0000000140003fa8 f   libvcruntime:risctrnsctrl.obj
 0001:000030d4       ?__FrameUnwindToEmptyState@@YAXPEA_KPEAU_xDISPATCHER_CONTEXT@@PEBU_s_FuncInfo@@@Z 00000001400040d4 f   libvcruntime:risctrnsctrl.obj
 0001:00003168       _CallSETranslator          0000000140004168 f   libvcruntime:risctrnsctrl.obj
 0001:000031c0       _CreateFrameInfo           00000001400041c0 f   libvcruntime:risctrnsctrl.obj
 0001:000031fc       _FindAndUnlinkFrame        00000001400041fc f   libvcruntime:risctrnsctrl.obj
 0001:00003258       _GetImageBase              0000000140004258 f   libvcruntime:risctrnsctrl.obj
 0001:0000326c       _GetThrowImageBase         000000014000426c f   libvcruntime:risctrnsctrl.obj
 0001:00003280       _SetImageBase              0000000140004280 f   libvcruntime:risctrnsctrl.obj
 0001:00003298       _SetThrowImageBase         0000000140004298 f   libvcruntime:risctrnsctrl.obj
 0001:000032b0       _UnwindNestedFrames        00000001400042b0 f   libvcruntime:risctrnsctrl.obj
 0001:000033d4       __CxxFrameHandler3         00000001400043d4 f   libvcruntime:risctrnsctrl.obj
 0001:00003454       __std_exception_copy       0000000140004454 f   libvcruntime:std_exception.obj
 0001:000034e4       __std_exception_destroy    00000001400044e4 f   libvcruntime:std_exception.obj
 0001:0000350c       _CxxThrowException         000000014000450c f   libvcruntime:throw.obj
 0001:000035e4       __vcrt_initialize          00000001400045e4 f   libvcruntime:initialization.obj
 0001:00003618       __vcrt_uninitialize        0000000140004618 f   libvcruntime:initialization.obj
 0001:00003638       __C_specific_handler       0000000140004638 f   libvcruntime:_riscchandler_.obj
 0001:00003860       memset                     0000000140004860 f   libvcruntime:memset.obj
 0001:00003a10       __std_type_info_compare    0000000140004a10 f   libvcruntime:std_type_info.obj
 0001:00003a38       __vcrt_freefls             0000000140004a38 f   libvcruntime:per_thread_data.obj
 0001:00003a58       __vcrt_getptd              0000000140004a58 f   libvcruntime:per_thread_data.obj
 0001:00003a74       __vcrt_getptd_noexit       0000000140004a74 f   libvcruntime:per_thread_data.obj
 0001:00003b2c       __vcrt_initialize_ptd      0000000140004b2c f   libvcruntime:per_thread_data.obj
 0001:00003b80       __vcrt_uninitialize_ptd    0000000140004b80 f   libvcruntime:per_thread_data.obj
 0001:00003ba4       ?__GetCurrentState@@YAHPEA_KPEAU_xDISPATCHER_CONTEXT@@PEBU_s_FuncInfo@@@Z 0000000140004ba4 f   libvcruntime:riscehstate.obj
 0001:00003bcc       ?__GetUnwindTryBlock@@YAHPEA_KPEAU_xDISPATCHER_CONTEXT@@PEBU_s_FuncInfo@@@Z 0000000140004bcc f   libvcruntime:riscehstate.obj
 0001:00003bf8       ?__SetState@@YAXPEA_KPEAU_xDISPATCHER_CONTEXT@@PEBU_s_FuncInfo@@H@Z 0000000140004bf8 f   libvcruntime:riscehstate.obj
 0001:00003c04       ?__SetUnwindTryBlock@@YAXPEA_KPEAU_xDISPATCHER_CONTEXT@@PEBU_s_FuncInfo@@H@Z 0000000140004c04 f   libvcruntime:riscehstate.obj
 0001:00003c40       ?__StateFromControlPc@@YAHPEBU_s_FuncInfo@@PEAU_xDISPATCHER_CONTEXT@@@Z 0000000140004c40 f   libvcruntime:riscehstate.obj
 0001:00003c48       ?__StateFromIp@@YAHPEBU_s_FuncInfo@@PEAU_xDISPATCHER_CONTEXT@@_K@Z 0000000140004c48 f   libvcruntime:riscehstate.obj
 0001:00003cb4       ??0bad_exception@std@@QEAA@AEBV01@@Z 0000000140004cb4 f i libvcruntime:frame.obj
 0001:00003cf4       ??0bad_exception@std@@QEAA@XZ 0000000140004cf4 f i libvcruntime:frame.obj
 0001:0000465c       ?_CallMemberFunction1@@YAXQEAX00@Z 000000014000565c f i libvcruntime:frame.obj
 0001:00004668       ?_CallMemberFunction2@@YAXQEAX00H@Z 0000000140005668 f i libvcruntime:frame.obj
 0001:00004678       __BuildCatchObject         0000000140005678 f   libvcruntime:frame.obj
 0001:0000473c       __BuildCatchObjectHelper   000000014000573c f   libvcruntime:frame.obj
 0001:00004940       __CxxCallCatchBlock        0000000140005940 f   libvcruntime:frame.obj
 0001:00004b2c       __FrameUnwindToState       0000000140005b2c f   libvcruntime:frame.obj
 0001:00004cc0       __InternalCxxFrameHandler  0000000140005cc0 f   libvcruntime:frame.obj
 0001:00004f10       __TypeMatch                0000000140005f10 f   libvcruntime:frame.obj
 0001:00005054       __vcrt_initialize_locks    0000000140006054 f   libvcruntime:locks.obj
 0001:0000509c       __vcrt_uninitialize_locks  000000014000609c f   libvcruntime:locks.obj
 0001:000052ac       __vcrt_FlsAlloc            00000001400062ac f   libvcruntime:winapi_downlevel.obj
 0001:00005300       __vcrt_FlsFree             0000000140006300 f   libvcruntime:winapi_downlevel.obj
 0001:00005354       __vcrt_FlsGetValue         0000000140006354 f   libvcruntime:winapi_downlevel.obj
 0001:000053a8       __vcrt_FlsSetValue         00000001400063a8 f   libvcruntime:winapi_downlevel.obj
 0001:00005410       __vcrt_InitializeCriticalSectionEx 0000000140006410 f   libvcruntime:winapi_downlevel.obj
 0001:00005488       __vcrt_initialize_winapi_thunks 0000000140006488 f   libvcruntime:winapi_downlevel.obj
 0001:000054cc       __vcrt_uninitialize_winapi_thunks 00000001400064cc f   libvcruntime:winapi_downlevel.obj
 0001:0000550c       __vcrt_initialize_pure_virtual_call_handler 000000014000650c f   libvcruntime:purevirt_data.obj
 0001:00005540       _local_unwind              0000000140006540 f   libvcruntime:_jmpuwind_.obj
 0001:00005570       _NLG_Notify                0000000140006570 f   libvcruntime:_jmpuwind_.obj
 0001:00005590       __NLG_Dispatch2            0000000140006590 f   libvcruntime:_jmpuwind_.obj
 0001:000055a0       __NLG_Return2              00000001400065a0 f   libvcruntime:_jmpuwind_.obj
 0001:000055a4       __except_validate_context_record 00000001400065a4 f   libvcruntime:jbcxrval.obj
 0001:000055f0       _CallSettingFrame          00000001400065f0 f   libvcruntime:handlers.obj
 0001:00005630       __DestructExceptionObject  0000000140006630 f   libvcruntime:ehhelpers.obj
 0001:000056b4       ?_CallMemberFunction0@@YAXQEAX0@Z 00000001400066b4 f i libvcruntime:ehhelpers.obj
 0001:000056b8       _IsExceptionObjectToBeDestroyed 00000001400066b8 f   libvcruntime:ehhelpers.obj
 0001:000056e8       __AdjustPointer            00000001400066e8 f   libvcruntime:ehhelpers.obj
 0001:0000570c       __FrameUnwindFilter        000000014000670c f   libvcruntime:ehhelpers.obj
 0001:00005758       __acrt_call_reportfault    0000000140006758 f   libucrt:invalid_parameter.obj
 0001:000058b4       __acrt_initialize_invalid_parameter_handler 00000001400068b4 f   libucrt:invalid_parameter.obj
 0001:000058bc       _invalid_parameter         00000001400068bc f   libucrt:invalid_parameter.obj
 0001:0000596c       _invalid_parameter_noinfo  000000014000696c f   libucrt:invalid_parameter.obj
 0001:0000598c       _invalid_parameter_noinfo_noreturn 000000014000698c f   libucrt:invalid_parameter.obj
 0001:000059bc       _invoke_watson             00000001400069bc f   libucrt:invalid_parameter.obj
 0001:00005a04       __acrt_initialize_stdio    0000000140006a04 f   libucrt:_file.obj
 0001:00005b24       __acrt_iob_func            0000000140006b24 f   libucrt:_file.obj
 0001:00005b38       __acrt_uninitialize_stdio  0000000140006b38 f   libucrt:_file.obj
 0001:00005b94       _lock_file                 0000000140006b94 f   libucrt:_file.obj
 0001:00005ba0       _unlock_file               0000000140006ba0 f   libucrt:_file.obj
 0001:00005bec       ??$ensure_buffer_is_big_enough@D@formatting_buffer@__crt_stdio_output@@QEAA_N_K@Z 0000000140006bec f i libucrt:output.obj
 0001:00005c94       ??$type_case_integer_parse_into_buffer@I@?$output_processor@DV?$stream_output_adapter@D@__crt_stdio_output@@V?$format_validation_base@DV?$stream_output_adapter@D@__crt_stdio_output@@@2@@__crt_stdio_output@@AEAAXII_N@Z 0000000140006c94 f i libucrt:output.obj
 0001:00005d1c       ??$type_case_integer_parse_into_buffer@_K@?$output_processor@DV?$stream_output_adapter@D@__crt_stdio_output@@V?$format_validation_base@DV?$stream_output_adapter@D@__crt_stdio_output@@@2@@__crt_stdio_output@@AEAAX_KI_N@Z 0000000140006d1c f i libucrt:output.obj
 0001:00005dac       ??$write_multiple_characters@V?$stream_output_adapter@D@__crt_stdio_output@@D@__crt_stdio_output@@YAXAEBV?$stream_output_adapter@D@0@DHQEAH@Z 0000000140006dac f i libucrt:output.obj
 0001:00005e30       ??0_LocaleUpdate@@QEAA@QEAU__crt_locale_pointers@@@Z 0000000140006e30 f i libucrt:output.obj
 0001:00005ff0       ?force_decimal_point@__crt_stdio_output@@YAXPEADQEAU__crt_locale_pointers@@@Z 0000000140006ff0 f i libucrt:output.obj
 0001:00006060       ?parse_int_from_format_string@?$output_processor@DV?$stream_output_adapter@D@__crt_stdio_output@@V?$format_validation_base@DV?$stream_output_adapter@D@__crt_stdio_output@@@2@@__crt_stdio_output@@AEAA_NQEAH@Z 0000000140007060 f i libucrt:output.obj
 0001:00006104       ?process@?$output_processor@DV?$stream_output_adapter@D@__crt_stdio_output@@V?$format_validation_base@DV?$stream_output_adapter@D@__crt_stdio_output@@@2@@__crt_stdio_output@@QEAAHXZ 0000000140007104 f i libucrt:output.obj
 0001:00006330       ?state_case_normal@?$output_processor@DV?$stream_output_adapter@D@__crt_stdio_output@@V?$format_validation_base@DV?$stream_output_adapter@D@__crt_stdio_output@@@2@@__crt_stdio_output@@AEAA_NXZ 0000000140007330 f i libucrt:output.obj
 0001:000063a0       ?state_case_normal_tchar@?$output_processor@DV?$stream_output_adapter@D@__crt_stdio_output@@V?$format_validation_base@DV?$stream_output_adapter@D@__crt_stdio_output@@@2@@__crt_stdio_output@@AEAA_ND@Z 00000001400073a0 f i libucrt:output.obj
 0001:0000643c       ?state_case_size@?$output_processor@DV?$stream_output_adapter@D@__crt_stdio_output@@V?$format_validation_base@DV?$stream_output_adapter@D@__crt_stdio_output@@@2@@__crt_stdio_output@@AEAA_NXZ 000000014000743c f i libucrt:output.obj
 0001:000065b8       ?state_case_type@?$output_processor@DV?$stream_output_adapter@D@__crt_stdio_output@@V?$format_validation_base@DV?$stream_output_adapter@D@__crt_stdio_output@@@2@@__crt_stdio_output@@AEAA_NXZ 00000001400075b8 f i libucrt:output.obj
 0001:00006850       ?type_case_Z@?$output_processor@DV?$stream_output_adapter@D@__crt_stdio_output@@V?$format_validation_base@DV?$stream_output_adapter@D@__crt_stdio_output@@@2@@__crt_stdio_output@@AEAA_NXZ 0000000140007850 f i libucrt:output.obj
 0001:000068d0       ?type_case_a@?$output_processor@DV?$stream_output_adapter@D@__crt_stdio_output@@V?$format_validation_base@DV?$stream_output_adapter@D@__crt_stdio_output@@@2@@__crt_stdio_output@@AEAA_NXZ 00000001400078d0 f i libucrt:output.obj
 0001:00006ae8       ?type_case_c_tchar@?$output_processor@DV?$stream_output_adapter@D@__crt_stdio_output@@V?$format_validation_base@DV?$stream_output_adapter@D@__crt_stdio_output@@@2@@__crt_stdio_output@@AEAA_ND@Z 0000000140007ae8 f i libucrt:output.obj
 0001:00006bb4       ?type_case_integer@?$output_processor@DV?$stream_output_adapter@D@__crt_stdio_output@@V?$format_validation_base@DV?$stream_output_adapter@D@__crt_stdio_output@@@2@@__crt_stdio_output@@AEAA_NI_N@Z 0000000140007bb4 f i libucrt:output.obj
 0001:00006d78       ?type_case_n@?$output_processor@DV?$stream_output_adapter@D@__crt_stdio_output@@V?$format_validation_base@DV?$stream_output_adapter@D@__crt_stdio_output@@@2@@__crt_stdio_output@@AEAA_NXZ 0000000140007d78 f i libucrt:output.obj
 0001:00006e54       ?type_case_s@?$output_processor@DV?$stream_output_adapter@D@__crt_stdio_output@@V?$format_validation_base@DV?$stream_output_adapter@D@__crt_stdio_output@@@2@@__crt_stdio_output@@AEAA_NXZ 0000000140007e54 f i libucrt:output.obj
 0001:00006ef0       ?validate_stream_is_ansi_if_required@?$__acrt_stdio_char_traits@D@@SA_NQEAU_iobuf@@@Z 0000000140007ef0 f i libucrt:output.obj
 0001:00006f7c       ?write_stored_string_tchar@?$output_processor@DV?$stream_output_adapter@D@__crt_stdio_output@@V?$format_validation_base@DV?$stream_output_adapter@D@__crt_stdio_output@@@2@@__crt_stdio_output@@AEAA_ND@Z 0000000140007f7c f i libucrt:output.obj
 0001:000070a0       ?write_string_impl@?$output_adapter_common@DV?$stream_output_adapter@D@__crt_stdio_output@@@__crt_stdio_output@@IEBAXQEBDHQEAHAEAV__crt_deferred_errno_cache@@@Z 00000001400080a0 f i libucrt:output.obj
 0001:00007198       __stdio_common_vfprintf_s  0000000140008198 f   libucrt:output.obj
 0001:00007224       __acrt_initialize_new_handler 0000000140008224 f   libucrt:new_handler.obj
 0001:0000722c       _callnewh                  000000014000822c f   libucrt:new_handler.obj
 0001:0000725c       _query_new_handler         000000014000825c f   libucrt:new_handler.obj
 0001:00007290       malloc                     0000000140008290 f   libucrt:malloc.obj
 0001:00007298       _seh_filter_exe            0000000140008298 f   libucrt:exception_filter.obj
 0001:000076a4       __acrt_initialize_thread_local_exit_callback 00000001400086a4 f   libucrt:exit.obj
 0001:000076ac       _c_exit                    00000001400086ac f   libucrt:exit.obj
 0001:000076bc       _cexit                     00000001400086bc f   libucrt:exit.obj
 0001:000076cc       _exit                      00000001400086cc f   libucrt:exit.obj
 0001:000076d8       _register_thread_local_exe_atexit_callback 00000001400086d8 f   libucrt:exit.obj
 0001:0000771c       exit                       000000014000871c f   libucrt:exit.obj
 0001:000078e4       __acrt_allocate_buffer_for_argv 00000001400088e4 f   libucrt:argv_parsing.obj
 0001:00007944       _configure_narrow_argv     0000000140008944 f   libucrt:argv_parsing.obj
 0001:00007d94       __dcrt_get_or_create_narrow_environment_nolock 0000000140008d94 f   libucrt:environment_initialization.obj
 0001:00007dd0       __dcrt_uninitialize_environments_nolock 0000000140008dd0 f   libucrt:environment_initialization.obj
 0001:00007e08       _get_initial_narrow_environment 0000000140008e08 f   libucrt:environment_initialization.obj
 0001:00007e58       _initialize_narrow_environment 0000000140008e58 f   libucrt:environment_initialization.obj
 0001:000081e8       _crt_atexit                00000001400091e8 f   libucrt:onexit.obj
 0001:000081f8       _execute_onexit_table      00000001400091f8 f   libucrt:onexit.obj
 0001:00008234       _initialize_onexit_table   0000000140009234 f   libucrt:onexit.obj
 0001:00008274       _register_onexit_function  0000000140009274 f   libucrt:onexit.obj
 0001:000083fc       __acrt_initialize          00000001400093fc f   libucrt:initialization.obj
 0001:00008410       __acrt_uninitialize        0000000140009410 f   libucrt:initialization.obj
 0001:00008448       _query_app_type            0000000140009448 f   libucrt:report_runtime_error.obj
 0001:00008450       _set_app_type              0000000140009450 f   libucrt:report_runtime_error.obj
 0001:00008458       __acrt_has_user_matherr    0000000140009458 f   libucrt:matherr.obj
 0001:00008478       __acrt_initialize_user_matherr 0000000140009478 f   libucrt:matherr.obj
 0001:00008480       __acrt_invoke_user_matherr 0000000140009480 f   libucrt:matherr.obj
 0001:000084b0       __setusermatherr           00000001400094b0 f   libucrt:matherr.obj
 0001:000084d8       _initterm                  00000001400094d8 f   libucrt:initterm.obj
 0001:0000853c       _initterm_e                000000014000953c f   libucrt:initterm.obj
 0001:0000857c       _set_fmode                 000000014000957c f   libucrt:setmode.obj
 0001:000085bc       __acrt_initialize_command_line 00000001400095bc f   libucrt:argv_data.obj
 0001:000085e4       __p___argc                 00000001400095e4 f   libucrt:argv_data.obj
 0001:000085ec       __p___argv                 00000001400095ec f   libucrt:argv_data.obj
 0001:00008664       __acrt_set_locale_changed  0000000140009664 f   libucrt:wsetlocale.obj
 0001:00008670       __acrt_uninitialize_locale 0000000140009670 f   libucrt:wsetlocale.obj
 0001:000086a0       _configthreadlocale        00000001400096a0 f   libucrt:wsetlocale.obj
 0001:0000870c       _query_new_mode            000000014000970c f   libucrt:new_mode.obj
 0001:00008714       _set_new_mode              0000000140009714 f   libucrt:new_mode.obj
 0001:00008740       __p__commode               0000000140009740 f   libucrt:ncommode.obj
 0001:00008748       free                       0000000140009748 f   libucrt:free.obj
 0001:0000875c       terminate                  000000014000975c f   libucrt:terminate.obj
 0001:0000877c       strcpy_s                   000000014000977c f   libucrt:strcpy_s.obj
 0001:000087dc       _free_base                 00000001400097dc f   libucrt:free_base.obj
 0001:0000881c       _malloc_base               000000014000981c f   libucrt:malloc_base.obj
 0001:0000887c       abort                      000000014000987c f   libucrt:abort.obj
 0001:000088d4       _calloc_base               00000001400098d4 f   libucrt:calloc_base.obj
 0001:0000894c       wcsncmp                    000000014000994c f   libucrt:wcsncmp.obj
 0001:00008978       ??$parse_integer@KV?$c_string_character_source@D@__crt_strtox@@@__crt_strtox@@YAKQEAU__crt_locale_pointers@@V?$c_string_character_source@D@0@H_N@Z 0000000140009978 f i libucrt:atox.obj
 0001:00008cb0       strncmp                    0000000140009cb0 f   libucrt:strncmp.obj
 0001:000090a8       __acrt_getptd              000000014000a0a8 f   libucrt:per_thread_data.obj
 0001:00009174       __acrt_getptd_head         000000014000a174 f   libucrt:per_thread_data.obj
 0001:0000921c       __acrt_getptd_noexit       000000014000a21c f   libucrt:per_thread_data.obj
 0001:000092ec       __acrt_initialize_ptd      000000014000a2ec f   libucrt:per_thread_data.obj
 0001:00009328       __acrt_uninitialize_ptd    000000014000a328 f   libucrt:per_thread_data.obj
 0001:0000934c       __acrt_errno_from_os_error 000000014000a34c f   libucrt:errno.obj
 0001:00009394       __acrt_errno_map_os_error  000000014000a394 f   libucrt:errno.obj
 0001:000093e4       __doserrno                 000000014000a3e4 f   libucrt:errno.obj
 0001:00009404       _errno                     000000014000a404 f   libucrt:errno.obj
 0001:000095fc       __acrt_AppPolicyGetProcessTerminationMethodInternal 000000014000a5fc f   libucrt:winapi_thunks.obj
 0001:0000964c       __acrt_CompareStringEx     000000014000a64c f   libucrt:winapi_thunks.obj
 0001:00009728       __acrt_FlsAlloc            000000014000a728 f   libucrt:winapi_thunks.obj
 0001:00009770       __acrt_FlsFree             000000014000a770 f   libucrt:winapi_thunks.obj
 0001:000097b8       __acrt_FlsGetValue         000000014000a7b8 f   libucrt:winapi_thunks.obj
 0001:00009800       __acrt_FlsSetValue         000000014000a800 f   libucrt:winapi_thunks.obj
 0001:00009854       __acrt_InitializeCriticalSectionEx 000000014000a854 f   libucrt:winapi_thunks.obj
 0001:000098b8       __acrt_LCMapStringEx       000000014000a8b8 f   libucrt:winapi_thunks.obj
 0001:00009994       __acrt_LocaleNameToLCID    000000014000a994 f   libucrt:winapi_thunks.obj
 0001:000099e4       __acrt_initialize_winapi_thunks 000000014000a9e4 f   libucrt:winapi_thunks.obj
 0001:00009a2c       __acrt_uninitialize_winapi_thunks 000000014000aa2c f   libucrt:winapi_thunks.obj
 0001:00009a70       _fcloseall                 000000014000aa70 f   libucrt:closeall.obj
 0001:00009d08       __acrt_stdio_flush_nolock  000000014000ad08 f   libucrt:fflush.obj
 0001:00009d84       _fflush_nolock             000000014000ad84 f   libucrt:fflush.obj
 0001:00009dd0       _flushall                  000000014000add0 f   libucrt:fflush.obj
 0001:00009dd8       __acrt_stdio_free_buffer_nolock 000000014000add8 f   libucrt:_freebuf.obj
 0001:0000a000       __acrt_initialize_lowio    000000014000b000 f   libucrt:ioinit.obj
 0001:0000a03c       __acrt_uninitialize_lowio  000000014000b03c f   libucrt:ioinit.obj
 0001:0000a07c       isdigit                    000000014000b07c f i libucrt:_ctype.obj
 0001:0000a134       _tolower_l                 000000014000b134 f   libucrt:tolower_toupper.obj
 0001:0000a274       tolower                    000000014000b274 f   libucrt:tolower_toupper.obj
 0001:0000a2a0       strtol                     000000014000b2a0 f   libucrt:strtox.obj
 0001:0000a2cc       _mbtowc_l                  000000014000b2cc f   libucrt:mbtowc.obj
 0001:0000a414       mbtowc                     000000014000b414 f   libucrt:mbtowc.obj
 0001:0000a41c       _wctomb_s_l                000000014000b41c f   libucrt:wctomb.obj
 0001:0000a5a0       wctomb_s                   000000014000b5a0 f   libucrt:wctomb.obj
 0001:0000a5b4       strnlen                    000000014000b5b4 f   libucrt:strnlen.obj
 0001:0000a6f8       wcsnlen                    000000014000b6f8 f   libucrt:strnlen.obj
 0001:0000a8c0       __acrt_update_locale_info  000000014000b8c0 f   libucrt:locale_update.obj
 0001:0000a8f4       __acrt_update_multibyte_info 000000014000b8f4 f   libucrt:locale_update.obj
 0001:0000b2e4       __acrt_fp_format           000000014000c2e4 f   libucrt:cvt.obj
 0001:0000b56c       _fileno                    000000014000c56c f   libucrt:fileno.obj
 0001:0000b594       _fputc_nolock              000000014000c594 f   libucrt:fputc.obj
 0001:0000b5ac       _get_printf_count_output   000000014000c5ac f   libucrt:printf_count_output.obj
 0001:0000b5c4       __acrt_stdio_begin_temporary_buffering_nolock 000000014000c5c4 f   libucrt:_sftbuf.obj
 0001:0000b694       __acrt_stdio_end_temporary_buffering_nolock 000000014000c694 f   libucrt:_sftbuf.obj
 0001:0000b6d0       __acrt_initialize_locks    000000014000c6d0 f   libucrt:locks.obj
 0001:0000b718       __acrt_lock                000000014000c718 f   libucrt:locks.obj
 0001:0000b734       __acrt_uninitialize_locks  000000014000c734 f   libucrt:locks.obj
 0001:0000b76c       __acrt_unlock              000000014000c76c f   libucrt:locks.obj
 0001:0000b788       __acrt_get_process_end_policy 000000014000c788 f   libucrt:win_policies.obj
 0001:0000bd28       __acrt_expand_narrow_argv_wildcards 000000014000cd28 f   libucrt:argv_wildcards.obj
 0001:0000c470       __acrt_initialize_multibyte 000000014000d470 f   libucrt:mbctype.obj
 0001:0000c4d0       __acrt_update_thread_multibyte_data 000000014000d4d0 f   libucrt:mbctype.obj
 0001:0000c4ec       _setmbcp_nolock            000000014000d4ec f   libucrt:mbctype.obj
 0001:0000c824       _ismbblead                 000000014000d824 f   libucrt:ismbbyte.obj
 0001:0000c838       __dcrt_get_narrow_environment_from_os 000000014000d838 f   libucrt:get_environment_from_os.obj
 0001:0000cd48       __dcrt_set_variable_in_narrow_environment_nolock 000000014000dd48 f   libucrt:setenv.obj
 0001:0000cd50       _recalloc                  000000014000dd50 f   libucrt:recalloc.obj
 0001:0000cd58       _recalloc_base             000000014000dd58 f   libucrt:recalloc.obj
 0001:0000cdf0       __acrt_initialize_heap     000000014000ddf0 f   libucrt:heap_handle.obj
 0001:0000ce0c       __acrt_uninitialize_heap   000000014000de0c f   libucrt:heap_handle.obj
 0001:0000ce18       __acrt_execute_initializers 000000014000de18 f   libucrt:shared_initialization.obj
 0001:0000ce98       __acrt_execute_uninitializers 000000014000de98 f   libucrt:shared_initialization.obj
 0001:0000cf1c       __acrt_get_sigabrt_handler 000000014000df1c f   libucrt:signal.obj
 0001:0000cf4c       __acrt_initialize_signal_handlers 000000014000df4c f   libucrt:signal.obj
 0001:0000cf6c       raise                      000000014000df6c f   libucrt:signal.obj
 0001:0000d1e0       __acrt_lowio_create_handle_array 000000014000e1e0 f   libucrt:osfinfo.obj
 0001:0000d278       __acrt_lowio_destroy_handle_array 000000014000e278 f   libucrt:osfinfo.obj
 0001:0000d2c8       __acrt_lowio_ensure_fh_exists 000000014000e2c8 f   libucrt:osfinfo.obj
 0001:0000d370       __acrt_lowio_lock_fh       000000014000e370 f   libucrt:osfinfo.obj
 0001:0000d394       __acrt_lowio_unlock_fh     000000014000e394 f   libucrt:osfinfo.obj
 0001:0000d3b8       _free_osfhnd               000000014000e3b8 f   libucrt:osfinfo.obj
 0001:0000d474       _get_osfhandle             000000014000e474 f   libucrt:osfinfo.obj
 0001:0000d4ec       __acrt_locale_free_monetary 000000014000e4ec f   libucrt:initmon.obj
 0001:0000d5f8       __acrt_locale_free_numeric 000000014000e5f8 f   libucrt:initnum.obj
 0001:0000d6b8       __acrt_locale_free_time    000000014000e6b8 f   libucrt:inittime.obj
 0001:0000d7c0       __pctype_func              000000014000e7c0 f   libucrt:ctype.obj
 0001:0000d7f0       __acrt_GetStringTypeA      000000014000e7f0 f   libucrt:getstringtypea.obj
 0001:0000d980       __acrt_add_locale_ref      000000014000e980 f   libucrt:locale_refcounting.obj
 0001:0000da0c       __acrt_free_locale         000000014000ea0c f   libucrt:locale_refcounting.obj
 0001:0000db84       __acrt_locale_add_lc_time_reference 000000014000eb84 f   libucrt:locale_refcounting.obj
 0001:0000dbac       __acrt_locale_free_lc_time_if_unreferenced 000000014000ebac f   libucrt:locale_refcounting.obj
 0001:0000dbe4       __acrt_locale_release_lc_time_reference 000000014000ebe4 f   libucrt:locale_refcounting.obj
 0001:0000dc0c       __acrt_release_locale_ref  000000014000ec0c f   libucrt:locale_refcounting.obj
 0001:0000dcb4       __acrt_update_thread_locale_data 000000014000ecb4 f   libucrt:locale_refcounting.obj
 0001:0000dd24       _updatetlocinfoEx_nolock   000000014000ed24 f   libucrt:locale_refcounting.obj
 0001:0000dd8c       _isctype_l                 000000014000ed8c f   libucrt:isctype.obj
 0001:0000df68       __acrt_DownlevelLocaleNameToLCID 000000014000ef68 f   libucrt:lcidtoname_downlevel.obj
 0001:0000df9c       _fclose_nolock             000000014000ef9c f   libucrt:fclose.obj
 0001:0000e020       fclose                     000000014000f020 f   libucrt:fclose.obj
 0001:0000e110       _commit                    000000014000f110 f   libucrt:commit.obj
 0001:0000e75c       _write                     000000014000f75c f   libucrt:write.obj
 0001:0000e848       _write_nolock              000000014000f848 f   libucrt:write.obj
 0001:0000eb8c       _isleadbyte_l              000000014000fb8c f i libucrt:_wctype.obj
 0001:0000eee4       __acrt_LCMapStringA        000000014000fee4 f   libucrt:lcmapstringa.obj
 0001:0000ef7c       __acrt_MultiByteToWideChar 000000014000ff7c f   libucrt:multibytetowidechar.obj
 0001:0000ef84       __acrt_WideCharToMultiByte 000000014000ff84 f   libucrt:widechartomultibyte.obj
 0001:0000ef8c       __acrt_fp_strflt_to_string 000000014000ff8c f   libucrt:_fptostr.obj
 0001:0000f050       ?divide@__crt_strtox@@YA_KAEAUbig_integer@1@AEBU21@@Z 0000000140010050 f i libucrt:cfout.obj
 0001:0000f4e4       __acrt_fltout              00000001400104e4 f   libucrt:cfout.obj
 0001:000109a0       __acrt_stdio_flush_and_write_narrow_nolock 00000001400119a0 f   libucrt:_flsbuf.obj
 0001:00010a88       _isatty                    0000000140011a88 f   libucrt:isatty.obj
 0001:00010af0       qsort                      0000000140011af0 f   libucrt:qsort.obj
 0001:00010ea0       strncpy_s                  0000000140011ea0 f   libucrt:strncpy_s.obj
 0001:00011020       strpbrk                    0000000140012020 f   libucrt:strpbrk.obj
 0001:00011400       _mbsdec                    0000000140012400 f   libucrt:mbsdec.obj
 0001:00011408       _mbsdec_l                  0000000140012408 f   libucrt:mbsdec.obj
 0001:000114b0       _strnicoll                 00000001400124b0 f   libucrt:strnicol.obj
 0001:000114c8       _strnicoll_l               00000001400124c8 f   libucrt:strnicol.obj
 0001:000115c8       _msize                     00000001400125c8 f   libucrt:msize.obj
 0001:000115d0       _msize_base                00000001400125d0 f   libucrt:msize.obj
 0001:0001160c       _realloc_base              000000014001260c f   libucrt:realloc_base.obj
 0001:000116fc       _close                     00000001400126fc f   libucrt:close.obj
 0001:000117a0       _close_nolock              00000001400127a0 f   libucrt:close.obj
 0001:0001185c       ?__acrt_stdio_free_stream@@YAXV__crt_stdio_stream@@@Z 000000014001285c f   libucrt:stream.obj
 0001:00011a04       _lseeki64                  0000000140012a04 f   libucrt:lseek.obj
 0001:00011a0c       _lseeki64_nolock           0000000140012a0c f   libucrt:lseek.obj
 0001:00011a14       _putwch_nolock             0000000140012a14 f   libucrt:putwch.obj
 0001:00011a50       __strncnt                  0000000140012a50 f   libucrt:strncnt.obj
 0001:00011a68       fegetenv                   0000000140012a68 f   libucrt:fegetenv.obj
 0001:00011a88       fesetenv                   0000000140012a88 f   libucrt:fesetenv.obj
 0001:00011ad8       feholdexcept               0000000140012ad8 f   libucrt:feholdexcept.obj
 0001:00011b28       ceil                       0000000140012b28 f   libucrt:ceil.obj
 0001:00011bf0       log10                      0000000140012bf0 f   libucrt:log10.obj
 0001:0001219c       __acrt_stdio_allocate_buffer_nolock 000000014001319c f   libucrt:_getbuf.obj
 0001:00012200       __ascii_strnicmp           0000000140013200 f   libucrt:strnicmp.obj
 0001:0001225c       _strnicmp                  000000014001325c f   libucrt:strnicmp.obj
 0001:000122ac       _strnicmp_l                00000001400132ac f   libucrt:strnicmp.obj
 0001:000126d8       __acrt_CompareStringA      00000001400136d8 f   libucrt:comparestringa.obj
 0001:00012764       __dcrt_lowio_ensure_console_output_initialized 0000000140013764 f   libucrt:initcon.obj
 0001:000127b8       __dcrt_terminate_console_output 00000001400137b8 f   libucrt:initcon.obj
 0001:000127d4       __dcrt_write_console_w     00000001400137d4 f   libucrt:initcon.obj
 0001:00012894       __acrt_fenv_get_control    0000000140013894 f   libucrt:_fenvutils.obj
 0001:00012994       __acrt_fenv_get_status     0000000140013994 f   libucrt:_fenvutils.obj
 0001:000129ec       __acrt_fenv_set_control    00000001400139ec f   libucrt:_fenvutils.obj
 0001:00012b34       __acrt_fenv_set_status     0000000140013b34 f   libucrt:_fenvutils.obj
 0001:00012bb8       _clearfp                   0000000140013bb8 f   libucrt:ieee.obj
 0001:00012d4c       _handle_error              0000000140013d4c f   libucrt:libm_error.obj
 0001:00012e74       _handle_nan                0000000140013e74 f   libucrt:libm_error.obj
 0001:00012e90       __acrt_initialize_fma3     0000000140013e90 f   libucrt:fma3_available.obj
 0001:00012f00       _log10_special             0000000140013f00 f   libucrt:log_special.obj
 0001:00012fd0       _get_fpsr                  0000000140013fd0 f   libucrt:fpsr.obj
 0001:00012fe0       _set_fpsr                  0000000140013fe0 f   libucrt:fpsr.obj
 0001:00012fea       _fclrf                     0000000140013fea f   libucrt:fpsr.obj
 0001:00012ffe       _frnd                      0000000140013ffe f   libucrt:fpsr.obj
 0001:00013020       _raise_exc                 0000000140014020 f   libucrt:fpexcept.obj
 0001:00013048       _raise_exc_ex              0000000140014048 f   libucrt:fpexcept.obj
 0001:00013350       _set_errno_from_matherr    0000000140014350 f   libucrt:fpexcept.obj
 0001:00013380       _clrfp                     0000000140014380 f   libucrt:fpctrl.obj
 0001:000133a0       _ctrlfp                    00000001400143a0 f   libucrt:fpctrl.obj
 0001:0001341c       _set_statfp                000000014001441c f   libucrt:fpctrl.obj
 0001:0001343c       _statfp                    000000014001443c f   libucrt:fpctrl.obj
 0001:00013450       _FindPESection             0000000140014450 f   LIBCMT:pesect.obj
 0001:000134a0       _IsNonwritableInCurrentImage 00000001400144a0 f   LIBCMT:pesect.obj
 0001:000134f0       _ValidateImageBase         00000001400144f0 f   LIBCMT:pesect.obj
 0001:00013530       __chkstk                   0000000140014530 f   LIBCMT:_chkstk_.obj
 0001:00013530       _alloca_probe              0000000140014530 f   LIBCMT:_chkstk_.obj
 0001:00013581       RtlUnwindEx                0000000140014581 f   kernel32:KERNEL32.dll
 0001:000135a0       memcmp                     00000001400145a0 f   libvcruntime:memcmp.obj
 0001:00013668       strrchr                    0000000140014668 f   libvcruntime:strrchr.obj
 0001:000137b4       strchr                     00000001400147b4 f   libvcruntime:strchr.obj
 0001:0001383d       SDL_ShowSimpleMessageBox   000000014001483d f   SDL2:SDL2.dll
 0001:00013843       SDL_SetMainReady           0000000140014843 f   SDL2:SDL2.dll
 0001:00013849       SDL_free                   0000000140014849 f   SDL2:SDL2.dll
 0001:0001384f       SDL_malloc                 000000014001484f f   SDL2:SDL2.dll
 0001:00013855       SDL_iconv_string           0000000140014855 f   SDL2:SDL2.dll
 0001:0001385b       SDL_wcslen                 000000014001485b f   SDL2:SDL2.dll
 0001:00013880       _guard_dispatch_icall_nop  0000000140014880 f   LIBCMT:_guard_dispatch_.obj
 0001:000138a0       __guard_ss_verify_failure  00000001400148a0 f   LIBCMT:_rfgfailure_.obj
 0001:000138ab       __guard_ss_verify_failure_rcx 00000001400148ab     LIBCMT:_rfgfailure_.obj
 0001:000138b1       __guard_ss_verify_failure_rdx 00000001400148b1     LIBCMT:_rfgfailure_.obj
 0001:000138b7       __guard_ss_verify_failure_r8 00000001400148b7     LIBCMT:_rfgfailure_.obj
 0001:000138bd       __guard_ss_verify_failure_r9 00000001400148bd     LIBCMT:_rfgfailure_.obj
 0001:000138c3       __guard_ss_verify_failure_r10 00000001400148c3     LIBCMT:_rfgfailure_.obj
 0001:000138d0       __guard_ss_verify_failure_default 00000001400148d0 f   LIBCMT:_rfgfailure_.obj
 0001:00013930       __guard_ss_verify_sp       0000000140014930 f   LIBCMT:_rfgfailure_.obj
 0001:00013940       __guard_ss_verify_sp_default 0000000140014940 f   LIBCMT:_rfgfailure_.obj
 0002:00000000       __imp_FreeLibrary          0000000140015000     kernel32:KERNEL32.dll
 0002:00000008       __imp_SetFilePointerEx     0000000140015008     kernel32:KERNEL32.dll
 0002:00000010       __imp_CloseHandle          0000000140015010     kernel32:KERNEL32.dll
 0002:00000018       __imp_HeapReAlloc          0000000140015018     kernel32:KERNEL32.dll
 0002:00000020       __imp_HeapSize             0000000140015020     kernel32:KERNEL32.dll
 0002:00000028       __imp_GetConsoleMode       0000000140015028     kernel32:KERNEL32.dll
 0002:00000030       __imp_GetConsoleCP         0000000140015030     kernel32:KERNEL32.dll
 0002:00000038       __imp_FlushFileBuffers     0000000140015038     kernel32:KERNEL32.dll
 0002:00000040       __imp_GetStringTypeW       0000000140015040     kernel32:KERNEL32.dll
 0002:00000048       __imp_SetStdHandle         0000000140015048     kernel32:KERNEL32.dll
 0002:00000050       __imp_GetProcessHeap       0000000140015050     kernel32:KERNEL32.dll
 0002:00000058       __imp_SetEnvironmentVariableA 0000000140015058     kernel32:KERNEL32.dll
 0002:00000060       __imp_FreeEnvironmentStringsW 0000000140015060     kernel32:KERNEL32.dll
 0002:00000068       __imp_GetEnvironmentStringsW 0000000140015068     kernel32:KERNEL32.dll
 0002:00000070       __imp_GetCPInfo            0000000140015070     kernel32:KERNEL32.dll
 0002:00000078       __imp_GetOEMCP             0000000140015078     kernel32:KERNEL32.dll
 0002:00000080       __imp_IsValidCodePage      0000000140015080     kernel32:KERNEL32.dll
 0002:00000088       __imp_FindNextFileA        0000000140015088     kernel32:KERNEL32.dll
 0002:00000090       __imp_FindFirstFileExA     0000000140015090     kernel32:KERNEL32.dll
 0002:00000098       __imp_FindClose            0000000140015098     kernel32:KERNEL32.dll
 0002:000000a0       __imp_GetFileType          00000001400150a0     kernel32:KERNEL32.dll
 0002:000000a8       __imp_WriteConsoleW        00000001400150a8     kernel32:KERNEL32.dll
 0002:000000b0       __imp_RtlCaptureContext    00000001400150b0     kernel32:KERNEL32.dll
 0002:000000b8       __imp_RtlLookupFunctionEntry 00000001400150b8     kernel32:KERNEL32.dll
 0002:000000c0       __imp_RtlVirtualUnwind     00000001400150c0     kernel32:KERNEL32.dll
 0002:000000c8       __imp_IsDebuggerPresent    00000001400150c8     kernel32:KERNEL32.dll
 0002:000000d0       __imp_UnhandledExceptionFilter 00000001400150d0     kernel32:KERNEL32.dll
 0002:000000d8       __imp_SetUnhandledExceptionFilter 00000001400150d8     kernel32:KERNEL32.dll
 0002:000000e0       __imp_GetStartupInfoW      00000001400150e0     kernel32:KERNEL32.dll
 0002:000000e8       __imp_IsProcessorFeaturePresent 00000001400150e8     kernel32:KERNEL32.dll
 0002:000000f0       __imp_GetModuleHandleW     00000001400150f0     kernel32:KERNEL32.dll
 0002:000000f8       __imp_GetCurrentProcess    00000001400150f8     kernel32:KERNEL32.dll
 0002:00000100       __imp_TerminateProcess     0000000140015100     kernel32:KERNEL32.dll
 0002:00000108       __imp_QueryPerformanceCounter 0000000140015108     kernel32:KERNEL32.dll
 0002:00000110       __imp_GetCurrentProcessId  0000000140015110     kernel32:KERNEL32.dll
 0002:00000118       __imp_GetCurrentThreadId   0000000140015118     kernel32:KERNEL32.dll
 0002:00000120       __imp_GetSystemTimeAsFileTime 0000000140015120     kernel32:KERNEL32.dll
 0002:00000128       __imp_InitializeSListHead  0000000140015128     kernel32:KERNEL32.dll
 0002:00000130       __imp_RtlUnwindEx          0000000140015130     kernel32:KERNEL32.dll
 0002:00000138       __imp_RtlPcToFileHeader    0000000140015138     kernel32:KERNEL32.dll
 0002:00000140       __imp_RaiseException       0000000140015140     kernel32:KERNEL32.dll
 0002:00000148       __imp_GetLastError         0000000140015148     kernel32:KERNEL32.dll
 0002:00000150       __imp_SetLastError         0000000140015150     kernel32:KERNEL32.dll
 0002:00000158       __imp_EncodePointer        0000000140015158     kernel32:KERNEL32.dll
 0002:00000160       __imp_EnterCriticalSection 0000000140015160     kernel32:KERNEL32.dll
 0002:00000168       __imp_LeaveCriticalSection 0000000140015168     kernel32:KERNEL32.dll
 0002:00000170       __imp_DeleteCriticalSection 0000000140015170     kernel32:KERNEL32.dll
 0002:00000178       __imp_InitializeCriticalSectionAndSpinCount 0000000140015178     kernel32:KERNEL32.dll
 0002:00000180       __imp_TlsAlloc             0000000140015180     kernel32:KERNEL32.dll
 0002:00000188       __imp_TlsGetValue          0000000140015188     kernel32:KERNEL32.dll
 0002:00000190       __imp_TlsSetValue          0000000140015190     kernel32:KERNEL32.dll
 0002:00000198       __imp_TlsFree              0000000140015198     kernel32:KERNEL32.dll
 0002:000001a0       __imp_GetProcAddress       00000001400151a0     kernel32:KERNEL32.dll
 0002:000001a8       __imp_LoadLibraryExW       00000001400151a8     kernel32:KERNEL32.dll
 0002:000001b0       __imp_ExitProcess          00000001400151b0     kernel32:KERNEL32.dll
 0002:000001b8       __imp_GetModuleHandleExW   00000001400151b8     kernel32:KERNEL32.dll
 0002:000001c0       __imp_GetModuleFileNameA   00000001400151c0     kernel32:KERNEL32.dll
 0002:000001c8       __imp_MultiByteToWideChar  00000001400151c8     kernel32:KERNEL32.dll
 0002:000001d0       __imp_WideCharToMultiByte  00000001400151d0     kernel32:KERNEL32.dll
 0002:000001d8       __imp_GetStdHandle         00000001400151d8     kernel32:KERNEL32.dll
 0002:000001e0       __imp_WriteFile            00000001400151e0     kernel32:KERNEL32.dll
 0002:000001e8       __imp_GetCommandLineA      00000001400151e8     kernel32:KERNEL32.dll
 0002:000001f0       __imp_GetCommandLineW      00000001400151f0     kernel32:KERNEL32.dll
 0002:000001f8       __imp_GetACP               00000001400151f8     kernel32:KERNEL32.dll
 0002:00000200       __imp_HeapFree             0000000140015200     kernel32:KERNEL32.dll
 0002:00000208       __imp_HeapAlloc            0000000140015208     kernel32:KERNEL32.dll
 0002:00000210       __imp_CompareStringW       0000000140015210     kernel32:KERNEL32.dll
 0002:00000218       __imp_LCMapStringW         0000000140015218     kernel32:KERNEL32.dll
 0002:00000220       __imp_CreateFileW          0000000140015220     kernel32:KERNEL32.dll
 0002:00000228       \177KERNEL32_NULL_THUNK_DATA 0000000140015228     kernel32:KERNEL32.dll
 0002:00000230       __imp_SDL_ShowSimpleMessageBox 0000000140015230     SDL2:SDL2.dll
 0002:00000238       __imp_SDL_SetMainReady     0000000140015238     SDL2:SDL2.dll
 0002:00000240       __imp_SDL_free             0000000140015240     SDL2:SDL2.dll
 0002:00000248       __imp_SDL_malloc           0000000140015248     SDL2:SDL2.dll
 0002:00000250       __imp_SDL_iconv_string     0000000140015250     SDL2:SDL2.dll
 0002:00000258       __imp_SDL_Quit             0000000140015258     SDL2:SDL2.dll
 0002:00000260       __imp_SDL_Init             0000000140015260     SDL2:SDL2.dll
 0002:00000268       __imp_SDL_DestroyRenderer  0000000140015268     SDL2:SDL2.dll
 0002:00000270       __imp_SDL_DestroyTexture   0000000140015270     SDL2:SDL2.dll
 0002:00000278       __imp_SDL_RenderPresent    0000000140015278     SDL2:SDL2.dll
 0002:00000280       __imp_SDL_RenderCopy       0000000140015280     SDL2:SDL2.dll
 0002:00000288       __imp_SDL_RenderClear      0000000140015288     SDL2:SDL2.dll
 0002:00000290       __imp_SDL_SetRenderDrawColor 0000000140015290     SDL2:SDL2.dll
 0002:00000298       __imp_SDL_SetTextureBlendMode 0000000140015298     SDL2:SDL2.dll
 0002:000002a0       __imp_SDL_SetTextureAlphaMod 00000001400152a0     SDL2:SDL2.dll
 0002:000002a8       __imp_SDL_SetTextureColorMod 00000001400152a8     SDL2:SDL2.dll
 0002:000002b0       __imp_SDL_CreateTextureFromSurface 00000001400152b0     SDL2:SDL2.dll
 0002:000002b8       __imp_SDL_CreateRenderer   00000001400152b8     SDL2:SDL2.dll
 0002:000002c0       __imp_SDL_PollEvent        00000001400152c0     SDL2:SDL2.dll
 0002:000002c8       __imp_SDL_DestroyWindow    00000001400152c8     SDL2:SDL2.dll
 0002:000002d0       __imp_SDL_CreateWindow     00000001400152d0     SDL2:SDL2.dll
 0002:000002d8       __imp_SDL_SetColorKey      00000001400152d8     SDL2:SDL2.dll
 0002:000002e0       __imp_SDL_FreeSurface      00000001400152e0     SDL2:SDL2.dll
 0002:000002e8       __imp_SDL_MapRGB           00000001400152e8     SDL2:SDL2.dll
 0002:000002f0       __imp_SDL_GetError         00000001400152f0     SDL2:SDL2.dll
 0002:000002f8       __imp_SDL_wcslen           00000001400152f8     SDL2:SDL2.dll
 0002:00000300       \177SDL2_NULL_THUNK_DATA   0000000140015300     SDL2:SDL2.dll
 0002:00000308       __imp_IMG_Quit             0000000140015308     SDL2_image:SDL2_image.dll
 0002:00000310       __imp_IMG_Init             0000000140015310     SDL2_image:SDL2_image.dll
 0002:00000318       __imp_IMG_Load             0000000140015318     SDL2_image:SDL2_image.dll
 0002:00000320       __imp_IMG_LoadTexture      0000000140015320     SDL2_image:SDL2_image.dll
 0002:00000328       \177SDL2_image_NULL_THUNK_DATA 0000000140015328     SDL2_image:SDL2_image.dll
 0002:00000330       __guard_check_icall_fptr   0000000140015330     LIBCMT:guard_support.obj
 0002:00000338       __guard_dispatch_icall_fptr 0000000140015338     LIBCMT:guard_support.obj
 0002:00000340       __guard_ss_verify_failure_fptr 0000000140015340     LIBCMT:guard_support.obj
 0002:00000348       __guard_ss_verify_sp_fptr  0000000140015348     LIBCMT:guard_support.obj
 0002:00000350       __xc_a                     0000000140015350     LIBCMT:initializers.obj
 0002:00000370       __xc_z                     0000000140015370     LIBCMT:initializers.obj
 0002:00000378       __xi_a                     0000000140015378     LIBCMT:initializers.obj
 0002:00000390       __acrt_stdio_initializer   0000000140015390     libucrt:stdio_initializer.obj
 0002:00000398       __acrt_multibyte_initializer 0000000140015398     libucrt:multibyte_initializer.obj
 0002:000003a0       __acrt_tran_fma3_initializer 00000001400153a0     libucrt:fma3_initializer.obj
 0002:000003a8       __xi_z                     00000001400153a8     LIBCMT:initializers.obj
 0002:000003b0       __xp_a                     00000001400153b0     LIBCMT:initializers.obj
 0002:000003b8       __acrt_locale_terminator   00000001400153b8     libucrt:locale_initializer.obj
 0002:000003c0       __dcrt_console_output_terminator 00000001400153c0     libucrt:console_output_initializer.obj
 0002:000003c8       __acrt_stdio_terminator    00000001400153c8     libucrt:stdio_initializer.obj
 0002:000003d0       __xp_z                     00000001400153d0     LIBCMT:initializers.obj
 0002:000003d8       __xt_a                     00000001400153d8     LIBCMT:initializers.obj
 0002:000003e0       __xt_z                     00000001400153e0     LIBCMT:initializers.obj
 0002:00000640       ??_C@_0BA@JFNIOLAK@string?5too?5long?$AA@ 0000000140015640     main.obj
 0002:00000658       ??_7exception@std@@6B@     0000000140015658     libcpmt:xthrow.obj
 0002:00000668       ??_C@_0BC@EOODALEL@Unknown?5exception?$AA@ 0000000140015668     libcpmt:xthrow.obj
 0002:00000688       ??_7bad_alloc@std@@6B@     0000000140015688     libcpmt:xthrow.obj
 0002:00000698       ??_C@_0P@GHFPNOJB@bad?5allocation?$AA@ 0000000140015698     libcpmt:xthrow.obj
 0002:000006b0       ??_7logic_error@std@@6B@   00000001400156b0     libcpmt:xthrow.obj
 0002:000006c8       ??_7length_error@std@@6B@  00000001400156c8     libcpmt:xthrow.obj
 0002:000006e0       ??_7type_info@@6B@         00000001400156e0     LIBCMT:std_type_info_static.obj
 0002:000006f0       ??_7bad_array_new_length@std@@6B@ 00000001400156f0     LIBCMT:throw_bad_alloc.obj
 0002:00000700       ??_C@_0BF@KINCDENJ@bad?5array?5new?5length?$AA@ 0000000140015700     LIBCMT:throw_bad_alloc.obj
 0002:00000818       ??_7bad_exception@std@@6B@ 0000000140015818     libvcruntime:frame.obj
 0002:00000828       ??_C@_0O@DPKOEFFH@bad?5exception?$AA@ 0000000140015828     libvcruntime:frame.obj
 0002:00000850       ??_C@_1DM@KHCHBNEB@?$AAa?$AAp?$AAi?$AA?9?$AAm?$AAs?$AA?9?$AAw?$AAi?$AAn?$AA?9?$AAc?$AAo?$AAr?$AAe?$AA?9?$AAf?$AAi?$AAb?$AAe?$AAr?$AAs?$AA?9?$AAl?$AA1?$AA?9?$AA1?$AA?9?$AA1?$AA?$AA@ 0000000140015850     libvcruntime:winapi_downlevel.obj
 0002:00000890       ??_C@_1DK@LPPGFMPP@?$AAa?$AAp?$AAi?$AA?9?$AAm?$AAs?$AA?9?$AAw?$AAi?$AAn?$AA?9?$AAc?$AAo?$AAr?$AAe?$AA?9?$AAs?$AAy?$AAn?$AAc?$AAh?$AA?9?$AAl?$AA1?$AA?9?$AA2?$AA?9?$AA0?$AA?$AA@ 0000000140015890     libvcruntime:winapi_downlevel.obj
 0002:000008d0       ??_C@_1BC@GDMECMAK@?$AAk?$AAe?$AAr?$AAn?$AAe?$AAl?$AA3?$AA2?$AA?$AA@ 00000001400158d0     libvcruntime:winapi_downlevel.obj
 0002:000008e8       ??_C@_1BA@PFFKHIOG@?$AAa?$AAp?$AAi?$AA?9?$AAm?$AAs?$AA?9?$AA?$AA@ 00000001400158e8     libvcruntime:winapi_downlevel.obj
 0002:000008f8       ??_C@_1BA@IAIFMGEF@?$AAe?$AAx?$AAt?$AA?9?$AAm?$AAs?$AA?9?$AA?$AA@ 00000001400158f8     libvcruntime:winapi_downlevel.obj
 0002:00000910       ??_C@_08KNHFBNJ@FlsAlloc?$AA@ 0000000140015910     libvcruntime:winapi_downlevel.obj
 0002:00000928       ??_C@_07PEJMOBNF@FlsFree?$AA@ 0000000140015928     libvcruntime:winapi_downlevel.obj
 0002:00000938       ??_C@_0M@GDNOONDI@FlsGetValue?$AA@ 0000000140015938     libvcruntime:winapi_downlevel.obj
 0002:00000950       ??_C@_0M@JCPCPOEF@FlsSetValue?$AA@ 0000000140015950     libvcruntime:winapi_downlevel.obj
 0002:00000968       ??_C@_0BM@HCFOFFN@InitializeCriticalSectionEx?$AA@ 0000000140015968     libvcruntime:winapi_downlevel.obj
 0002:00000cb8       ??_C@_08EHJDFFNH@__based?$CI?$AA@ 0000000140015cb8     libvcruntime:undname.obj
 0002:00000cc8       ??_C@_07KOLFKCDI@__cdecl?$AA@ 0000000140015cc8     libvcruntime:undname.obj
 0002:00000cd0       ??_C@_08GHMPAG@__pascal?$AA@ 0000000140015cd0     libvcruntime:undname.obj
 0002:00000ce0       ??_C@_09IFJBGAPI@__stdcall?$AA@ 0000000140015ce0     libvcruntime:undname.obj
 0002:00000cf0       ??_C@_0L@NPHFGOKO@__thiscall?$AA@ 0000000140015cf0     libvcruntime:undname.obj
 0002:00000d00       ??_C@_0L@JMKHOMEK@__fastcall?$AA@ 0000000140015d00     libvcruntime:undname.obj
 0002:00000d10       ??_C@_0N@BCKKPABJ@__vectorcall?$AA@ 0000000140015d10     libvcruntime:undname.obj
 0002:00000d20       ??_C@_09HIJEGCPM@__clrcall?$AA@ 0000000140015d20     libvcruntime:undname.obj
 0002:00000d2c       ??_C@_06GHPCKEAG@__eabi?$AA@ 0000000140015d2c     libvcruntime:undname.obj
 0002:00000d38       ??_C@_07JOMMBBKO@__ptr64?$AA@ 0000000140015d38     libvcruntime:undname.obj
 0002:00000d40       ??_C@_0L@PILCLIHE@__restrict?$AA@ 0000000140015d40     libvcruntime:undname.obj
 0002:00000d50       ??_C@_0M@GFIIJFMG@__unaligned?$AA@ 0000000140015d50     libvcruntime:undname.obj
 0002:00000d60       ??_C@_09DHDLOLLB@restrict?$CI?$AA@ 0000000140015d60     libvcruntime:undname.obj
 0002:00000d6a       ??_C@_00CNPNBAHC@?$AA@     0000000140015d6a     libvcruntime:undname.obj
 0002:00000d6c       ??_C@_04NIHEBCM@?5new?$AA@ 0000000140015d6c     libvcruntime:undname.obj
 0002:00000d78       ??_C@_07FPCDHGMM@?5delete?$AA@ 0000000140015d78     libvcruntime:undname.obj
 0002:00000d80       ??_C@_01NEMOKFLO@?$DN?$AA@ 0000000140015d80     libvcruntime:undname.obj
 0002:00000d84       ??_C@_02GPIOPFAK@?$DO?$DO?$AA@ 0000000140015d84     libvcruntime:undname.obj
 0002:00000d88       ??_C@_02FODMEDOG@?$DM?$DM?$AA@ 0000000140015d88     libvcruntime:undname.obj
 0002:00000d8c       ??_C@_01DCLJPIOD@?$CB?$AA@ 0000000140015d8c     libvcruntime:undname.obj
 0002:00000d90       ??_C@_02EGOFBIJA@?$DN?$DN?$AA@ 0000000140015d90     libvcruntime:undname.obj
 0002:00000d94       ??_C@_02FDNJECIE@?$CB?$DN?$AA@ 0000000140015d94     libvcruntime:undname.obj
 0002:00000d98       ??_C@_02GPECMEKF@?$FL?$FN?$AA@ 0000000140015d98     libvcruntime:undname.obj
 0002:00000da0       ??_C@_08LHJFAFGD@operator?$AA@ 0000000140015da0     libvcruntime:undname.obj
 0002:00000dac       ??_C@_02HBOOOICD@?9?$DO?$AA@ 0000000140015dac     libvcruntime:undname.obj
 0002:00000db0       ??_C@_01NBENCBCI@?$CK?$AA@ 0000000140015db0     libvcruntime:undname.obj
 0002:00000db4       ??_C@_02ECNGHCIF@?$CL?$CL?$AA@ 0000000140015db4     libvcruntime:undname.obj
 0002:00000db8       ??_C@_02BAABKJLB@?9?9?$AA@ 0000000140015db8     libvcruntime:undname.obj
 0002:00000dbc       ??_C@_01JOAMLHOP@?9?$AA@   0000000140015dbc     libvcruntime:undname.obj
 0002:00000dc0       ??_C@_01MIFGBAGJ@?$CL?$AA@ 0000000140015dc0     libvcruntime:undname.obj
 0002:00000dc4       ??_C@_01HNPIGOCE@?$CG?$AA@ 0000000140015dc4     libvcruntime:undname.obj
 0002:00000dc8       ??_C@_03MNHNFDLC@?9?$DO?$CK?$AA@ 0000000140015dc8     libvcruntime:undname.obj
 0002:00000dcc       ??_C@_01KMDKNFGN@?1?$AA@   0000000140015dcc     libvcruntime:undname.obj
 0002:00000dd0       ??_C@_01FGNFDNOH@?$CF?$AA@ 0000000140015dd0     libvcruntime:undname.obj
 0002:00000dd4       ??_C@_01MNNFJEPP@?$DM?$AA@ 0000000140015dd4     libvcruntime:undname.obj
 0002:00000dd8       ??_C@_02EHCHHCKH@?$DM?$DN?$AA@ 0000000140015dd8     libvcruntime:undname.obj
 0002:00000ddc       ??_C@_01PPODPGHN@?$DO?$AA@ 0000000140015ddc     libvcruntime:undname.obj
 0002:00000de0       ??_C@_02EEKDKGMJ@?$DO?$DN?$AA@ 0000000140015de0     libvcruntime:undname.obj
 0002:00000de4       ??_C@_01IHBHIGKO@?0?$AA@   0000000140015de4     libvcruntime:undname.obj
 0002:00000de8       ??_C@_02HCKGKOFO@?$CI?$CJ?$AA@ 0000000140015de8     libvcruntime:undname.obj
 0002:00000dec       ??_C@_01PJKLJHI@?$HO?$AA@  0000000140015dec     libvcruntime:undname.obj
 0002:00000df0       ??_C@_01JKBOJNNK@?$FO?$AA@ 0000000140015df0     libvcruntime:undname.obj
 0002:00000df4       ??_C@_01DNKMNLPK@?$HM?$AA@ 0000000140015df4     libvcruntime:undname.obj
 0002:00000df8       ??_C@_02PPKAJPJL@?$CG?$CG?$AA@ 0000000140015df8     libvcruntime:undname.obj
 0002:00000dfc       ??_C@_02NONPIBCD@?$HM?$HM?$AA@ 0000000140015dfc     libvcruntime:undname.obj
 0002:00000e00       ??_C@_02FPIMKNGF@?$CK?$DN?$AA@ 0000000140015e00     libvcruntime:undname.obj
 0002:00000e04       ??_C@_02FOEOMHFC@?$CL?$DN?$AA@ 0000000140015e04     libvcruntime:undname.obj
 0002:00000e08       ??_C@_02FKMDLLOA@?9?$DN?$AA@ 0000000140015e08     libvcruntime:undname.obj
 0002:00000e0c       ??_C@_02FJEHGPIO@?1?$DN?$AA@ 0000000140015e0c     libvcruntime:undname.obj
 0002:00000e10       ??_C@_02FENAOKFI@?$CF?$DN?$AA@ 0000000140015e10     libvcruntime:undname.obj
 0002:00000e14       ??_C@_03IKFCCPFF@?$DO?$DO?$DN?$AA@ 0000000140015e14     libvcruntime:undname.obj
 0002:00000e18       ??_C@_03CDNPDDLA@?$DM?$DM?$DN?$AA@ 0000000140015e18     libvcruntime:undname.obj
 0002:00000e1c       ??_C@_02FGJGFEAB@?$CG?$DN?$AA@ 0000000140015e1c     libvcruntime:undname.obj
 0002:00000e20       ??_C@_02DHLNPPGH@?$HM?$DN?$AA@ 0000000140015e20     libvcruntime:undname.obj
 0002:00000e24       ??_C@_02MHEGNOJ@?$FO?$DN?$AA@ 0000000140015e24     libvcruntime:undname.obj
 0002:00000e28       ??_C@_09IFPLHPGF@?$GAvftable?8?$AA@ 0000000140015e28     libvcruntime:undname.obj
 0002:00000e38       ??_C@_09BLBHBJP@?$GAvbtable?8?$AA@ 0000000140015e38     libvcruntime:undname.obj
 0002:00000e48       ??_C@_07FEEIOKP@?$GAvcall?8?$AA@ 0000000140015e48     libvcruntime:undname.obj
 0002:00000e50       ??_C@_08LLFFHHDJ@?$GAtypeof?8?$AA@ 0000000140015e50     libvcruntime:undname.obj
 0002:00000e60       ??_C@_0BF@KDPPACIK@?$GAlocal?5static?5guard?8?$AA@ 0000000140015e60     libvcruntime:undname.obj
 0002:00000e78       ??_C@_08OBABFOLI@?$GAstring?8?$AA@ 0000000140015e78     libvcruntime:undname.obj
 0002:00000e88       ??_C@_0BD@JDLKDPAB@?$GAvbase?5destructor?8?$AA@ 0000000140015e88     libvcruntime:undname.obj
 0002:00000ea0       ??_C@_0BN@DEGPLNFK@?$GAvector?5deleting?5destructor?8?$AA@ 0000000140015ea0     libvcruntime:undname.obj
 0002:00000ec0       ??_C@_0BO@OBMKPJIG@?$GAdefault?5constructor?5closure?8?$AA@ 0000000140015ec0     libvcruntime:undname.obj
 0002:00000ee0       ??_C@_0BN@IMDCHIKM@?$GAscalar?5deleting?5destructor?8?$AA@ 0000000140015ee0     libvcruntime:undname.obj
 0002:00000f00       ??_C@_0BO@PFGOCPJJ@?$GAvector?5constructor?5iterator?8?$AA@ 0000000140015f00     libvcruntime:undname.obj
 0002:00000f20       ??_C@_0BN@LFPFMEDL@?$GAvector?5destructor?5iterator?8?$AA@ 0000000140015f20     libvcruntime:undname.obj
 0002:00000f40       ??_C@_0CE@IKBNEHA@?$GAvector?5vbase?5constructor?5iterat@ 0000000140015f40     libvcruntime:undname.obj
 0002:00000f68       ??_C@_0BL@NILFHHPC@?$GAvirtual?5displacement?5map?8?$AA@ 0000000140015f68     libvcruntime:undname.obj
 0002:00000f88       ??_C@_0CB@JONCMFFK@?$GAeh?5vector?5constructor?5iterator?8@ 0000000140015f88     libvcruntime:undname.obj
 0002:00000fb0       ??_C@_0CA@GCEOPDGL@?$GAeh?5vector?5destructor?5iterator?8?$AA@ 0000000140015fb0     libvcruntime:undname.obj
 0002:00000fd0       ??_C@_0CH@OOJPLCPH@?$GAeh?5vector?5vbase?5constructor?5ite@ 0000000140015fd0     libvcruntime:undname.obj
 0002:00000ff8       ??_C@_0BL@LLKPOHJI@?$GAcopy?5constructor?5closure?8?$AA@ 0000000140015ff8     libvcruntime:undname.obj
 0002:00001018       ??_C@_0BA@KBCDOMBN@?$GAudt?5returning?8?$AA@ 0000000140016018     libvcruntime:undname.obj
 0002:00001028       ??_C@_03KLGMFNMG@?$GAEH?$AA@ 0000000140016028     libvcruntime:undname.obj
 0002:0000102c       ??_C@_05KHLCHHI@?$GARTTI?$AA@ 000000014001602c     libvcruntime:undname.obj
 0002:00001038       ??_C@_0BA@KKLDJDLB@?$GAlocal?5vftable?8?$AA@ 0000000140016038     libvcruntime:undname.obj
 0002:00001048       ??_C@_0CE@IIHCMGGL@?$GAlocal?5vftable?5constructor?5closu@ 0000000140016048     libvcruntime:undname.obj
 0002:0000106c       ??_C@_06FHBGPFGH@?5new?$FL?$FN?$AA@ 000000014001606c     libvcruntime:undname.obj
 0002:00001078       ??_C@_09LBNFPBCA@?5delete?$FL?$FN?$AA@ 0000000140016078     libvcruntime:undname.obj
 0002:00001088       ??_C@_0P@HJKNJFNN@?$GAomni?5callsig?8?$AA@ 0000000140016088     libvcruntime:undname.obj
 0002:00001098       ??_C@_0BL@CNOONJFP@?$GAplacement?5delete?5closure?8?$AA@ 0000000140016098     libvcruntime:undname.obj
 0002:000010b8       ??_C@_0BN@CKNJLHMB@?$GAplacement?5delete?$FL?$FN?5closure?8?$AA@ 00000001400160b8     libvcruntime:undname.obj
 0002:000010d8       ??_C@_0CG@CFDHKGGD@?$GAmanaged?5vector?5constructor?5iter@ 00000001400160d8     libvcruntime:undname.obj
 0002:00001100       ??_C@_0CF@IMGKMJNO@?$GAmanaged?5vector?5destructor?5itera@ 0000000140016100     libvcruntime:undname.obj
 0002:00001128       ??_C@_0CG@HLDDJMAG@?$GAeh?5vector?5copy?5constructor?5iter@ 0000000140016128     libvcruntime:undname.obj
 0002:00001150       ??_C@_0CM@FCBBDIGB@?$GAeh?5vector?5vbase?5copy?5constructo@ 0000000140016150     libvcruntime:undname.obj
 0002:00001180       ??_C@_0BL@CLIPGLGB@?$GAdynamic?5initializer?5for?5?8?$AA@ 0000000140016180     libvcruntime:undname.obj
 0002:000011a0       ??_C@_0CB@PDBIFEP@?$GAdynamic?5atexit?5destructor?5for?5?8@ 00000001400161a0     libvcruntime:undname.obj
 0002:000011c8       ??_C@_0CD@CGAJBKEJ@?$GAvector?5copy?5constructor?5iterato@ 00000001400161c8     libvcruntime:undname.obj
 0002:000011f0       ??_C@_0CJ@GJELGAMM@?$GAvector?5vbase?5copy?5constructor?5i@ 00000001400161f0     libvcruntime:undname.obj
 0002:00001220       ??_C@_0CL@FGIJHLCE@?$GAmanaged?5vector?5copy?5constructor@ 0000000140016220     libvcruntime:undname.obj
 0002:00001250       ??_C@_0BM@PMGGMLDN@?$GAlocal?5static?5thread?5guard?8?$AA@ 0000000140016250     libvcruntime:undname.obj
 0002:00001270       ??_C@_0N@BDNMDMOL@operator?5?$CC?$CC?5?$AA@ 0000000140016270     libvcruntime:undname.obj
 0002:00001280       ??_C@_0BC@GGEBGALA@operator?5co_await?$AA@ 0000000140016280     libvcruntime:undname.obj
 0002:00001298       ??_C@_0BC@DAFEJGAK@?5Type?5Descriptor?8?$AA@ 0000000140016298     libvcruntime:undname.obj
 0002:000012b0       ??_C@_0BM@LDKODKLH@?5Base?5Class?5Descriptor?5at?5?$CI?$AA@ 00000001400162b0     libvcruntime:undname.obj
 0002:000012d0       ??_C@_0BD@LGICGFMM@?5Base?5Class?5Array?8?$AA@ 00000001400162d0     libvcruntime:undname.obj
 0002:000012e8       ??_C@_0BN@MECKDCOJ@?5Class?5Hierarchy?5Descriptor?8?$AA@ 00000001400162e8     libvcruntime:undname.obj
 0002:00001308       ??_C@_0BK@CFCOFLF@?5Complete?5Object?5Locator?8?$AA@ 0000000140016308     libvcruntime:undname.obj
 0002:00001328       _pDestructExceptionObject  0000000140016328     libvcruntime:ehhelpers.obj
 0002:00001330       format_validation_lookup_table 0000000140016330     libucrt:output.obj
 0002:00001390       ??_C@_1O@CEDCILHN@?$AA?$CI?$AAn?$AAu?$AAl?$AAl?$AA?$CJ?$AA?$AA@ 0000000140016390     libucrt:output.obj
 0002:000013a0       ??_C@_06OJHGLDPL@?$CInull?$CJ?$AA@ 00000001400163a0     libucrt:output.obj
 0002:000013b0       __acrt_exception_action_table 00000001400163b0     libucrt:exception_filter.obj
 0002:00001470       __acrt_signal_action_table_count 0000000140016470     libucrt:exception_filter.obj
 0002:00001478       __acrt_signal_action_first_fpe_index 0000000140016478     libucrt:exception_filter.obj
 0002:00001480       __acrt_signal_action_fpe_count 0000000140016480     libucrt:exception_filter.obj
 0002:00001488       ??_C@_1BI@BGOHAHKC@?$AAm?$AAs?$AAc?$AAo?$AAr?$AAe?$AAe?$AA?4?$AAd?$AAl?$AAl?$AA?$AA@ 0000000140016488     libucrt:exit.obj
 0002:000014a0       ??_C@_0P@MIGLKIOC@CorExitProcess?$AA@ 00000001400164a0     libucrt:exit.obj
 0002:000017b0       ??_C@_1EA@JGEFHKEI@?$AAa?$AAp?$AAi?$AA?9?$AAm?$AAs?$AA?9?$AAw?$AAi?$AAn?$AA?9?$AAc?$AAo?$AAr?$AAe?$AA?9?$AAd?$AAa?$AAt?$AAe?$AAt?$AAi?$AAm?$AAe?$AA?9?$AAl?$AA1?$AA?9?$AA1?$AA?9?$AA1?$AA?$AA@ 00000001400167b0     libucrt:winapi_thunks.obj
 0002:000017f0       ??_C@_1DI@IJCEHOCB@?$AAa?$AAp?$AAi?$AA?9?$AAm?$AAs?$AA?9?$AAw?$AAi?$AAn?$AA?9?$AAc?$AAo?$AAr?$AAe?$AA?9?$AAf?$AAi?$AAl?$AAe?$AA?9?$AAl?$AA1?$AA?9?$AA2?$AA?9?$AA2?$AA?$AA@ 00000001400167f0     libucrt:winapi_thunks.obj
 0002:00001830       ??_C@_1EI@MPIAOHOC@?$AAa?$AAp?$AAi?$AA?9?$AAm?$AAs?$AA?9?$AAw?$AAi?$AAn?$AA?9?$AAc?$AAo?$AAr?$AAe?$AA?9?$AAl?$AAo?$AAc?$AAa?$AAl?$AAi?$AAz?$AAa?$AAt?$AAi?$AAo?$AAn?$AA?9?$AAl?$AA1?$AA?9@ 0000000140016830     libucrt:winapi_thunks.obj
 0002:00001880       ??_C@_1FK@FPHCKFIE@?$AAa?$AAp?$AAi?$AA?9?$AAm?$AAs?$AA?9?$AAw?$AAi?$AAn?$AA?9?$AAc?$AAo?$AAr?$AAe?$AA?9?$AAl?$AAo?$AAc?$AAa?$AAl?$AAi?$AAz?$AAa?$AAt?$AAi?$AAo?$AAn?$AA?9?$AAo?$AAb?$AAs@ 0000000140016880     libucrt:winapi_thunks.obj
 0002:000018e0       ??_C@_1EM@DILCGIIO@?$AAa?$AAp?$AAi?$AA?9?$AAm?$AAs?$AA?9?$AAw?$AAi?$AAn?$AA?9?$AAc?$AAo?$AAr?$AAe?$AA?9?$AAp?$AAr?$AAo?$AAc?$AAe?$AAs?$AAs?$AAt?$AAh?$AAr?$AAe?$AAa?$AAd?$AAs?$AA?9?$AAl@ 00000001400168e0     libucrt:winapi_thunks.obj
 0002:00001930       ??_C@_1DM@LNCGDDPN@?$AAa?$AAp?$AAi?$AA?9?$AAm?$AAs?$AA?9?$AAw?$AAi?$AAn?$AA?9?$AAc?$AAo?$AAr?$AAe?$AA?9?$AAs?$AAt?$AAr?$AAi?$AAn?$AAg?$AA?9?$AAl?$AA1?$AA?9?$AA1?$AA?9?$AA0?$AA?$AA@ 0000000140016930     libucrt:winapi_thunks.obj
 0002:00001970       ??_C@_1DO@FPAPJEMD@?$AAa?$AAp?$AAi?$AA?9?$AAm?$AAs?$AA?9?$AAw?$AAi?$AAn?$AA?9?$AAc?$AAo?$AAr?$AAe?$AA?9?$AAs?$AAy?$AAs?$AAi?$AAn?$AAf?$AAo?$AA?9?$AAl?$AA1?$AA?9?$AA2?$AA?9?$AA1?$AA?$AA@ 0000000140016970     libucrt:winapi_thunks.obj
 0002:000019b0       ??_C@_1DK@NDHNAHIO@?$AAa?$AAp?$AAi?$AA?9?$AAm?$AAs?$AA?9?$AAw?$AAi?$AAn?$AA?9?$AAc?$AAo?$AAr?$AAe?$AA?9?$AAw?$AAi?$AAn?$AAr?$AAt?$AA?9?$AAl?$AA1?$AA?9?$AA1?$AA?9?$AA0?$AA?$AA@ 00000001400169b0     libucrt:winapi_thunks.obj
 0002:000019f0       ??_C@_1DM@KGHDGBCM@?$AAa?$AAp?$AAi?$AA?9?$AAm?$AAs?$AA?9?$AAw?$AAi?$AAn?$AA?9?$AAc?$AAo?$AAr?$AAe?$AA?9?$AAx?$AAs?$AAt?$AAa?$AAt?$AAe?$AA?9?$AAl?$AA2?$AA?9?$AA1?$AA?9?$AA0?$AA?$AA@ 00000001400169f0     libucrt:winapi_thunks.obj
 0002:00001a30       ??_C@_1EO@IJIOEFOH@?$AAa?$AAp?$AAi?$AA?9?$AAm?$AAs?$AA?9?$AAw?$AAi?$AAn?$AA?9?$AAr?$AAt?$AAc?$AAo?$AAr?$AAe?$AA?9?$AAn?$AAt?$AAu?$AAs?$AAe?$AAr?$AA?9?$AAw?$AAi?$AAn?$AAd?$AAo?$AAw?$AA?9@ 0000000140016a30     libucrt:winapi_thunks.obj
 0002:00001a80       ??_C@_1FG@HHGEKANL@?$AAa?$AAp?$AAi?$AA?9?$AAm?$AAs?$AA?9?$AAw?$AAi?$AAn?$AA?9?$AAs?$AAe?$AAc?$AAu?$AAr?$AAi?$AAt?$AAy?$AA?9?$AAs?$AAy?$AAs?$AAt?$AAe?$AAm?$AAf?$AAu?$AAn?$AAc?$AAt?$AAi@ 0000000140016a80     libucrt:winapi_thunks.obj
 0002:00001ae0       ??_C@_1EG@DBIOJECG@?$AAe?$AAx?$AAt?$AA?9?$AAm?$AAs?$AA?9?$AAw?$AAi?$AAn?$AA?9?$AAn?$AAt?$AAu?$AAs?$AAe?$AAr?$AA?9?$AAd?$AAi?$AAa?$AAl?$AAo?$AAg?$AAb?$AAo?$AAx?$AA?9?$AAl?$AA1?$AA?9?$AA1@ 0000000140016ae0     libucrt:winapi_thunks.obj
 0002:00001b30       ??_C@_1EO@FIHMJCLF@?$AAe?$AAx?$AAt?$AA?9?$AAm?$AAs?$AA?9?$AAw?$AAi?$AAn?$AA?9?$AAn?$AAt?$AAu?$AAs?$AAe?$AAr?$AA?9?$AAw?$AAi?$AAn?$AAd?$AAo?$AAw?$AAs?$AAt?$AAa?$AAt?$AAi?$AAo?$AAn?$AA?9@ 0000000140016b30     libucrt:winapi_thunks.obj
 0002:00001b80       ??_C@_1BC@DNHGCMLG@?$AAa?$AAd?$AAv?$AAa?$AAp?$AAi?$AA3?$AA2?$AA?$AA@ 0000000140016b80     libucrt:winapi_thunks.obj
 0002:00001b98       ??_C@_1M@OAIMIKLP@?$AAn?$AAt?$AAd?$AAl?$AAl?$AA?$AA@ 0000000140016b98     libucrt:winapi_thunks.obj
 0002:00001bb0       ??_C@_1EG@DPGNFKGC@?$AAa?$AAp?$AAi?$AA?9?$AAm?$AAs?$AA?9?$AAw?$AAi?$AAn?$AA?9?$AAa?$AAp?$AAp?$AAm?$AAo?$AAd?$AAe?$AAl?$AA?9?$AAr?$AAu?$AAn?$AAt?$AAi?$AAm?$AAe?$AA?9?$AAl?$AA1?$AA?9?$AA1@ 0000000140016bb0     libucrt:winapi_thunks.obj
 0002:00001bf8       ??_C@_1O@BCCLBEOE@?$AAu?$AAs?$AAe?$AAr?$AA3?$AA2?$AA?$AA@ 0000000140016bf8     libucrt:winapi_thunks.obj
 0002:00001c10       ??_C@_0BA@IHGNDAEB@CompareStringEx?$AA@ 0000000140016c10     libucrt:winapi_thunks.obj
 0002:00001c50       ??_C@_0O@KKBNKAPF@LCMapStringEx?$AA@ 0000000140016c50     libucrt:winapi_thunks.obj
 0002:00001c68       ??_C@_0BB@HBDEELFH@LocaleNameToLCID?$AA@ 0000000140016c68     libucrt:winapi_thunks.obj
 0002:00001c80       ??_C@_0CF@OJOFEIGO@AppPolicyGetProcessTerminationMe@ 0000000140016c80     libucrt:winapi_thunks.obj
 0002:00001ca8       ??_C@_03OEIAHPBN@INF?$AA@  0000000140016ca8     libucrt:cvt.obj
 0002:00001cac       ??_C@_03OJHLLCGB@inf?$AA@  0000000140016cac     libucrt:cvt.obj
 0002:00001cb0       ??_C@_03LKNCIKJB@NAN?$AA@  0000000140016cb0     libucrt:cvt.obj
 0002:00001cb4       ??_C@_03LHCJEHON@nan?$AA@  0000000140016cb4     libucrt:cvt.obj
 0002:00001cb8       ??_C@_09OFJJIMPC@NAN?$CISNAN?$CJ?$AA@ 0000000140016cb8     libucrt:cvt.obj
 0002:00001cc8       ??_C@_09IPFBKMDL@nan?$CIsnan?$CJ?$AA@ 0000000140016cc8     libucrt:cvt.obj
 0002:00001cd8       ??_C@_08IKHNHAJ@NAN?$CIIND?$CJ?$AA@ 0000000140016cd8     libucrt:cvt.obj
 0002:00001ce8       ??_C@_08OFCDMILK@nan?$CIind?$CJ?$AA@ 0000000140016ce8     libucrt:cvt.obj
 0002:00001cf4       ??_C@_05KLBDPFGC@e?$CL000?$AA@ 0000000140016cf4     libucrt:cvt.obj
 0002:00001d00       __lc_time_c                0000000140016d00     libucrt:nlsdata.obj
 0002:00001fc0       ??_C@_03KOEHGMDN@Sun?$AA@  0000000140016fc0     libucrt:nlsdata.obj
 0002:00001fc4       ??_C@_03PDAGKDH@Mon?$AA@   0000000140016fc4     libucrt:nlsdata.obj
 0002:00001fc8       ??_C@_03NAGEINEP@Tue?$AA@  0000000140016fc8     libucrt:nlsdata.obj
 0002:00001fcc       ??_C@_03MHOMLAJA@Wed?$AA@  0000000140016fcc     libucrt:nlsdata.obj
 0002:00001fd0       ??_C@_03IOFIKPDN@Thu?$AA@  0000000140016fd0     libucrt:nlsdata.obj
 0002:00001fd4       ??_C@_03IDIOELNC@Fri?$AA@  0000000140016fd4     libucrt:nlsdata.obj
 0002:00001fd8       ??_C@_03FEFJNEK@Sat?$AA@   0000000140016fd8     libucrt:nlsdata.obj
 0002:00001fdc       ??_C@_06OOPIFAJ@Sunday?$AA@ 0000000140016fdc     libucrt:nlsdata.obj
 0002:00001fe4       ??_C@_06JLEDEDGH@Monday?$AA@ 0000000140016fe4     libucrt:nlsdata.obj
 0002:00001ff0       ??_C@_07BAAGCFCM@Tuesday?$AA@ 0000000140016ff0     libucrt:nlsdata.obj
 0002:00001ff8       ??_C@_09DLIGFAKA@Wednesday?$AA@ 0000000140016ff8     libucrt:nlsdata.obj
 0002:00002008       ??_C@_08HACCIKIA@Thursday?$AA@ 0000000140017008     libucrt:nlsdata.obj
 0002:00002014       ??_C@_06JECMNKMI@Friday?$AA@ 0000000140017014     libucrt:nlsdata.obj
 0002:00002020       ??_C@_08INBOOONO@Saturday?$AA@ 0000000140017020     libucrt:nlsdata.obj
 0002:0000202c       ??_C@_03JIHJHPIE@Jan?$AA@  000000014001702c     libucrt:nlsdata.obj
 0002:00002030       ??_C@_03HJBDCHOM@Feb?$AA@  0000000140017030     libucrt:nlsdata.obj
 0002:00002034       ??_C@_03ODNJBKGA@Mar?$AA@  0000000140017034     libucrt:nlsdata.obj
 0002:00002038       ??_C@_03LEOLGMJP@Apr?$AA@  0000000140017038     libucrt:nlsdata.obj
 0002:0000203c       ??_C@_03CNMDKL@May?$AA@    000000014001703c     libucrt:nlsdata.obj
 0002:00002040       ??_C@_03IDFGHECI@Jun?$AA@  0000000140017040     libucrt:nlsdata.obj
 0002:00002044       ??_C@_03LBGABGKK@Jul?$AA@  0000000140017044     libucrt:nlsdata.obj
 0002:00002048       ??_C@_03IFJFEIGA@Aug?$AA@  0000000140017048     libucrt:nlsdata.obj
 0002:0000204c       ??_C@_03GGCAPAJC@Sep?$AA@  000000014001704c     libucrt:nlsdata.obj
 0002:00002050       ??_C@_03BMAOKBAD@Oct?$AA@  0000000140017050     libucrt:nlsdata.obj
 0002:00002054       ??_C@_03JPJOFNIA@Nov?$AA@  0000000140017054     libucrt:nlsdata.obj
 0002:00002058       ??_C@_03MKABNOCG@Dec?$AA@  0000000140017058     libucrt:nlsdata.obj
 0002:00002060       ??_C@_07CGJPFGJA@January?$AA@ 0000000140017060     libucrt:nlsdata.obj
 0002:00002068       ??_C@_08GNJGEPFN@February?$AA@ 0000000140017068     libucrt:nlsdata.obj
 0002:00002074       ??_C@_05HPCKOFNC@March?$AA@ 0000000140017074     libucrt:nlsdata.obj
 0002:0000207c       ??_C@_05DMJDNLEJ@April?$AA@ 000000014001707c     libucrt:nlsdata.obj
 0002:00002084       ??_C@_04CNLMGBGM@June?$AA@ 0000000140017084     libucrt:nlsdata.obj
 0002:0000208c       ??_C@_04MIEPOIFP@July?$AA@ 000000014001708c     libucrt:nlsdata.obj
 0002:00002094       ??_C@_06LBBHFDDG@August?$AA@ 0000000140017094     libucrt:nlsdata.obj
 0002:000020a0       ??_C@_09BHHEALKD@September?$AA@ 00000001400170a0     libucrt:nlsdata.obj
 0002:000020b0       ??_C@_07JJNFCEND@October?$AA@ 00000001400170b0     libucrt:nlsdata.obj
 0002:000020b8       ??_C@_08HCHEGEOA@November?$AA@ 00000001400170b8     libucrt:nlsdata.obj
 0002:000020c8       ??_C@_08EDHMEBNP@December?$AA@ 00000001400170c8     libucrt:nlsdata.obj
 0002:000020d4       ??_C@_02DEDBPAFC@AM?$AA@   00000001400170d4     libucrt:nlsdata.obj
 0002:000020d8       ??_C@_02CJNFDJBF@PM?$AA@   00000001400170d8     libucrt:nlsdata.obj
 0002:000020e0       ??_C@_08BPBNCDIB@MM?1dd?1yy?$AA@ 00000001400170e0     libucrt:nlsdata.obj
 0002:000020f0       ??_C@_0BE@CKGJFCPC@dddd?0?5MMMM?5dd?0?5yyyy?$AA@ 00000001400170f0     libucrt:nlsdata.obj
 0002:00002108       ??_C@_08JCCMCCIL@HH?3mm?3ss?$AA@ 0000000140017108     libucrt:nlsdata.obj
 0002:00002118       ??_C@_17MBGCMIPB@?$AAS?$AAu?$AAn?$AA?$AA@ 0000000140017118     libucrt:nlsdata.obj
 0002:00002120       ??_C@_17KBOMKBF@?$AAM?$AAo?$AAn?$AA?$AA@ 0000000140017120     libucrt:nlsdata.obj
 0002:00002128       ??_C@_17BMKGEGOJ@?$AAT?$AAu?$AAe?$AA?$AA@ 0000000140017128     libucrt:nlsdata.obj
 0002:00002130       ??_C@_17CJEDCEPE@?$AAW?$AAe?$AAd?$AA?$AA@ 0000000140017130     libucrt:nlsdata.obj
 0002:00002138       ??_C@_17PDPHAADD@?$AAT?$AAh?$AAu?$AA?$AA@ 0000000140017138     libucrt:nlsdata.obj
 0002:00002140       ??_C@_17HFOLPPLP@?$AAF?$AAr?$AAi?$AA?$AA@ 0000000140017140     libucrt:nlsdata.obj
 0002:00002148       ??_C@_17GGIBDPIH@?$AAS?$AAa?$AAt?$AA?$AA@ 0000000140017148     libucrt:nlsdata.obj
 0002:00002150       ??_C@_1O@IHNHDHPB@?$AAS?$AAu?$AAn?$AAd?$AAa?$AAy?$AA?$AA@ 0000000140017150     libucrt:nlsdata.obj
 0002:00002160       ??_C@_1O@MMNBFLIA@?$AAM?$AAo?$AAn?$AAd?$AAa?$AAy?$AA?$AA@ 0000000140017160     libucrt:nlsdata.obj
 0002:00002170       ??_C@_1BA@ENFBFFEK@?$AAT?$AAu?$AAe?$AAs?$AAd?$AAa?$AAy?$AA?$AA@ 0000000140017170     libucrt:nlsdata.obj
 0002:00002180       ??_C@_1BE@EBOGMDOH@?$AAW?$AAe?$AAd?$AAn?$AAe?$AAs?$AAd?$AAa?$AAy?$AA?$AA@ 0000000140017180     libucrt:nlsdata.obj
 0002:00002198       ??_C@_1BC@HHMNLIHE@?$AAT?$AAh?$AAu?$AAr?$AAs?$AAd?$AAa?$AAy?$AA?$AA@ 0000000140017198     libucrt:nlsdata.obj
 0002:000021b0       ??_C@_1O@PDICJHAG@?$AAF?$AAr?$AAi?$AAd?$AAa?$AAy?$AA?$AA@ 00000001400171b0     libucrt:nlsdata.obj
 0002:000021c0       ??_C@_1BC@ENMNNPAJ@?$AAS?$AAa?$AAt?$AAu?$AAr?$AAd?$AAa?$AAy?$AA?$AA@ 00000001400171c0     libucrt:nlsdata.obj
 0002:000021d8       ??_C@_17DKNBKCHM@?$AAJ?$AAa?$AAn?$AA?$AA@ 00000001400171d8     libucrt:nlsdata.obj
 0002:000021e0       ??_C@_17LMDJEKJN@?$AAF?$AAe?$AAb?$AA?$AA@ 00000001400171e0     libucrt:nlsdata.obj
 0002:000021e8       ??_C@_17CKNLEDEC@?$AAM?$AAa?$AAr?$AA?$AA@ 00000001400171e8     libucrt:nlsdata.obj
 0002:000021f0       ??_C@_17LFPOIHDD@?$AAA?$AAp?$AAr?$AA?$AA@ 00000001400171f0     libucrt:nlsdata.obj
 0002:000021f8       ??_C@_17PNNKMEED@?$AAM?$AAa?$AAy?$AA?$AA@ 00000001400171f8     libucrt:nlsdata.obj
 0002:00002200       ??_C@_17KCJGOCPB@?$AAJ?$AAu?$AAn?$AA?$AA@ 0000000140017200     libucrt:nlsdata.obj
 0002:00002208       ??_C@_17IJPCKHK@?$AAJ?$AAu?$AAl?$AA?$AA@ 0000000140017208     libucrt:nlsdata.obj
 0002:00002210       ??_C@_17ICPELBCN@?$AAA?$AAu?$AAg?$AA?$AA@ 0000000140017210     libucrt:nlsdata.obj
 0002:00002218       ??_C@_17HCHCOKMG@?$AAS?$AAe?$AAp?$AA?$AA@ 0000000140017218     libucrt:nlsdata.obj
 0002:00002220       ??_C@_17FNLKOI@?$AAO?$AAc?$AAt?$AA?$AA@ 0000000140017220     libucrt:nlsdata.obj
 0002:00002228       ??_C@_17BBDMLCIG@?$AAN?$AAo?$AAv?$AA?$AA@ 0000000140017228     libucrt:nlsdata.obj
 0002:00002230       ??_C@_17EGKACKIF@?$AAD?$AAe?$AAc?$AA?$AA@ 0000000140017230     libucrt:nlsdata.obj
 0002:00002238       ??_C@_1BA@EFMEIEBA@?$AAJ?$AAa?$AAn?$AAu?$AAa?$AAr?$AAy?$AA?$AA@ 0000000140017238     libucrt:nlsdata.obj
 0002:00002248       ??_C@_1BC@JGDDFFAM@?$AAF?$AAe?$AAb?$AAr?$AAu?$AAa?$AAr?$AAy?$AA?$AA@ 0000000140017248     libucrt:nlsdata.obj
 0002:00002260       ??_C@_1M@IKEENEDF@?$AAM?$AAa?$AAr?$AAc?$AAh?$AA?$AA@ 0000000140017260     libucrt:nlsdata.obj
 0002:00002270       ??_C@_1M@GJNLMHFD@?$AAA?$AAp?$AAr?$AAi?$AAl?$AA?$AA@ 0000000140017270     libucrt:nlsdata.obj
 0002:00002280       ??_C@_19EPFLPGAP@?$AAJ?$AAu?$AAn?$AAe?$AA?$AA@ 0000000140017280     libucrt:nlsdata.obj
 0002:00002290       ??_C@_19BIFMLPCD@?$AAJ?$AAu?$AAl?$AAy?$AA?$AA@ 0000000140017290     libucrt:nlsdata.obj
 0002:000022a0       ??_C@_1O@PAHLKOAC@?$AAA?$AAu?$AAg?$AAu?$AAs?$AAt?$AA?$AA@ 00000001400172a0     libucrt:nlsdata.obj
 0002:000022b0       ??_C@_1BE@DKAAMBJL@?$AAS?$AAe?$AAp?$AAt?$AAe?$AAm?$AAb?$AAe?$AAr?$AA?$AA@ 00000001400172b0     libucrt:nlsdata.obj
 0002:000022c8       ??_C@_1BA@EPANDLNG@?$AAO?$AAc?$AAt?$AAo?$AAb?$AAe?$AAr?$AA?$AA@ 00000001400172c8     libucrt:nlsdata.obj
 0002:000022d8       ??_C@_1BC@BGLIFPF@?$AAN?$AAo?$AAv?$AAe?$AAm?$AAb?$AAe?$AAr?$AA?$AA@ 00000001400172d8     libucrt:nlsdata.obj
 0002:000022f0       ??_C@_1BC@FEMKIFH@?$AAD?$AAe?$AAc?$AAe?$AAm?$AAb?$AAe?$AAr?$AA?$AA@ 00000001400172f0     libucrt:nlsdata.obj
 0002:00002304       ??_C@_15ODEHAHHF@?$AAA?$AAM?$AA?$AA@ 0000000140017304     libucrt:nlsdata.obj
 0002:0000230c       ??_C@_15CLMNNGEL@?$AAP?$AAM?$AA?$AA@ 000000014001730c     libucrt:nlsdata.obj
 0002:00002318       ??_C@_1BC@IEBCMHCM@?$AAM?$AAM?$AA?1?$AAd?$AAd?$AA?1?$AAy?$AAy?$AA?$AA@ 0000000140017318     libucrt:nlsdata.obj
 0002:00002330       ??_C@_1CI@KNAKOEBC@?$AAd?$AAd?$AAd?$AAd?$AA?0?$AA?5?$AAM?$AAM?$AAM?$AAM?$AA?5?$AAd?$AAd?$AA?0?$AA?5?$AAy?$AAy?$AAy?$AAy?$AA?$AA@ 0000000140017330     libucrt:nlsdata.obj
 0002:00002358       ??_C@_1BC@GDGBMEMK@?$AAH?$AAH?$AA?3?$AAm?$AAm?$AA?3?$AAs?$AAs?$AA?$AA@ 0000000140017358     libucrt:nlsdata.obj
 0002:00002370       ??_C@_1M@BMHNFIME@?$AAe?$AAn?$AA?9?$AAU?$AAS?$AA?$AA@ 0000000140017370     libucrt:nlsdata.obj
 0002:000023a0       ??_C@_1M@HPNHIDJI@?$AAj?$AAa?$AA?9?$AAJ?$AAP?$AA?$AA@ 00000001400173a0     libucrt:mbctype.obj
 0002:000023b0       ??_C@_1M@BIBDDEMK@?$AAz?$AAh?$AA?9?$AAC?$AAN?$AA?$AA@ 00000001400173b0     libucrt:mbctype.obj
 0002:000023c0       ??_C@_1M@JLOOOEGK@?$AAk?$AAo?$AA?9?$AAK?$AAR?$AA?$AA@ 00000001400173c0     libucrt:mbctype.obj
 0002:000023d0       ??_C@_1M@CLNBBOPM@?$AAz?$AAh?$AA?9?$AAT?$AAW?$AA?$AA@ 00000001400173d0     libucrt:mbctype.obj
 0002:000023e0       __newctype                 00000001400173e0     libucrt:ctype.obj
 0002:000026e0       __newclmap                 00000001400176e0     libucrt:ctype.obj
 0002:00002860       __newcumap                 0000000140017860     libucrt:ctype.obj
 0002:000029e0       ??_C@_15PJPFLCCM@?$AAu?$AAk?$AA?$AA@ 00000001400179e0     libucrt:get_qualified_locale.obj
 0002:000029e8       ??_C@_1M@BJNKEDC@?$AAc?$AAa?$AA?9?$AAE?$AAS?$AA?$AA@ 00000001400179e8     libucrt:lcidtoname_downlevel.obj
 0002:000029f8       ??_C@_1M@IJJHFJHA@?$AAc?$AAs?$AA?9?$AAC?$AAZ?$AA?$AA@ 00000001400179f8     libucrt:lcidtoname_downlevel.obj
 0002:00002a08       ??_C@_1M@CLPEOBGI@?$AAd?$AAa?$AA?9?$AAD?$AAK?$AA?$AA@ 0000000140017a08     libucrt:lcidtoname_downlevel.obj
 0002:00002a18       ??_C@_1M@MCMADGCB@?$AAd?$AAe?$AA?9?$AAD?$AAE?$AA?$AA@ 0000000140017a18     libucrt:lcidtoname_downlevel.obj
 0002:00002a28       ??_C@_1M@OOCKEMAM@?$AAe?$AAl?$AA?9?$AAG?$AAR?$AA?$AA@ 0000000140017a28     libucrt:lcidtoname_downlevel.obj
 0002:00002a38       ??_C@_1M@DDNJFGID@?$AAf?$AAi?$AA?9?$AAF?$AAI?$AA?$AA@ 0000000140017a38     libucrt:lcidtoname_downlevel.obj
 0002:00002a48       ??_C@_1M@GLIPPMAC@?$AAf?$AAr?$AA?9?$AAF?$AAR?$AA?$AA@ 0000000140017a48     libucrt:lcidtoname_downlevel.obj
 0002:00002a58       ??_C@_1M@GFMCHPE@?$AAh?$AAe?$AA?9?$AAI?$AAL?$AA?$AA@ 0000000140017a58     libucrt:lcidtoname_downlevel.obj
 0002:00002a68       ??_C@_1M@MHLPGNKM@?$AAh?$AAu?$AA?9?$AAH?$AAU?$AA?$AA@ 0000000140017a68     libucrt:lcidtoname_downlevel.obj
 0002:00002a78       ??_C@_1M@LPDDNNPN@?$AAi?$AAs?$AA?9?$AAI?$AAS?$AA?$AA@ 0000000140017a78     libucrt:lcidtoname_downlevel.obj
 0002:00002a88       ??_C@_1M@MADIPODN@?$AAi?$AAt?$AA?9?$AAI?$AAT?$AA?$AA@ 0000000140017a88     libucrt:lcidtoname_downlevel.obj
 0002:00002a98       ??_C@_1M@IHBJJGG@?$AAn?$AAl?$AA?9?$AAN?$AAL?$AA?$AA@ 0000000140017a98     libucrt:lcidtoname_downlevel.obj
 0002:00002aa8       ??_C@_1M@EANAGDL@?$AAn?$AAb?$AA?9?$AAN?$AAO?$AA?$AA@ 0000000140017aa8     libucrt:lcidtoname_downlevel.obj
 0002:00002ab8       ??_C@_1M@NEIEMEGP@?$AAp?$AAl?$AA?9?$AAP?$AAL?$AA?$AA@ 0000000140017ab8     libucrt:lcidtoname_downlevel.obj
 0002:00002ac8       ??_C@_1M@BOCFIGEP@?$AAp?$AAt?$AA?9?$AAB?$AAR?$AA?$AA@ 0000000140017ac8     libucrt:lcidtoname_downlevel.obj
 0002:00002ad8       ??_C@_1M@IMPFOPBG@?$AAr?$AAo?$AA?9?$AAR?$AAO?$AA?$AA@ 0000000140017ad8     libucrt:lcidtoname_downlevel.obj
 0002:00002ae8       ??_C@_1M@IDNNEJMM@?$AAr?$AAu?$AA?9?$AAR?$AAU?$AA?$AA@ 0000000140017ae8     libucrt:lcidtoname_downlevel.obj
 0002:00002af8       ??_C@_1M@LILEEOGM@?$AAh?$AAr?$AA?9?$AAH?$AAR?$AA?$AA@ 0000000140017af8     libucrt:lcidtoname_downlevel.obj
 0002:00002b08       ??_C@_1M@FKIFEHPB@?$AAs?$AAk?$AA?9?$AAS?$AAK?$AA?$AA@ 0000000140017b08     libucrt:lcidtoname_downlevel.obj
 0002:00002b18       ??_C@_1M@LJMAMNPJ@?$AAs?$AAq?$AA?9?$AAA?$AAL?$AA?$AA@ 0000000140017b18     libucrt:lcidtoname_downlevel.obj
 0002:00002b28       ??_C@_1M@GIAKDKJK@?$AAs?$AAv?$AA?9?$AAS?$AAE?$AA?$AA@ 0000000140017b28     libucrt:lcidtoname_downlevel.obj
 0002:00002b38       ??_C@_1M@MKJKIKCL@?$AAt?$AAh?$AA?9?$AAT?$AAH?$AA?$AA@ 0000000140017b38     libucrt:lcidtoname_downlevel.obj
 0002:00002b48       ??_C@_1M@MFLCCMPB@?$AAt?$AAr?$AA?9?$AAT?$AAR?$AA?$AA@ 0000000140017b48     libucrt:lcidtoname_downlevel.obj
 0002:00002b58       ??_C@_1M@OIJHDKJN@?$AAu?$AAr?$AA?9?$AAP?$AAK?$AA?$AA@ 0000000140017b58     libucrt:lcidtoname_downlevel.obj
 0002:00002b68       ??_C@_1M@LHIPCIEK@?$AAi?$AAd?$AA?9?$AAI?$AAD?$AA?$AA@ 0000000140017b68     libucrt:lcidtoname_downlevel.obj
 0002:00002b78       ??_C@_1M@MFMOBGI@?$AAu?$AAk?$AA?9?$AAU?$AAA?$AA?$AA@ 0000000140017b78     libucrt:lcidtoname_downlevel.obj
 0002:00002b88       ??_C@_1M@OBGLJIPL@?$AAb?$AAe?$AA?9?$AAB?$AAY?$AA?$AA@ 0000000140017b88     libucrt:lcidtoname_downlevel.obj
 0002:00002b98       ??_C@_1M@BCFAJEAD@?$AAs?$AAl?$AA?9?$AAS?$AAI?$AA?$AA@ 0000000140017b98     libucrt:lcidtoname_downlevel.obj
 0002:00002ba8       ??_C@_1M@FKFFEDDN@?$AAe?$AAt?$AA?9?$AAE?$AAE?$AA?$AA@ 0000000140017ba8     libucrt:lcidtoname_downlevel.obj
 0002:00002bb8       ??_C@_1M@KGKKAACI@?$AAl?$AAv?$AA?9?$AAL?$AAV?$AA?$AA@ 0000000140017bb8     libucrt:lcidtoname_downlevel.obj
 0002:00002bc8       ??_C@_1M@IFGBIJO@?$AAl?$AAt?$AA?9?$AAL?$AAT?$AA?$AA@ 0000000140017bc8     libucrt:lcidtoname_downlevel.obj
 0002:00002bd8       ??_C@_1M@FGEAHEDM@?$AAf?$AAa?$AA?9?$AAI?$AAR?$AA?$AA@ 0000000140017bd8     libucrt:lcidtoname_downlevel.obj
 0002:00002be8       ??_C@_1M@KBMAIBFN@?$AAv?$AAi?$AA?9?$AAV?$AAN?$AA?$AA@ 0000000140017be8     libucrt:lcidtoname_downlevel.obj
 0002:00002bf8       ??_C@_1M@GPCBKDJK@?$AAh?$AAy?$AA?9?$AAA?$AAM?$AA?$AA@ 0000000140017bf8     libucrt:lcidtoname_downlevel.obj
 0002:00002c08       ??_C@_1BG@BECMDDJB@?$AAa?$AAz?$AA?9?$AAA?$AAZ?$AA?9?$AAL?$AAa?$AAt?$AAn?$AA?$AA@ 0000000140017c08     libucrt:lcidtoname_downlevel.obj
 0002:00002c20       ??_C@_1M@MAOFCAEA@?$AAe?$AAu?$AA?9?$AAE?$AAS?$AA?$AA@ 0000000140017c20     libucrt:lcidtoname_downlevel.obj
 0002:00002c30       ??_C@_1M@IGHABKPI@?$AAm?$AAk?$AA?9?$AAM?$AAK?$AA?$AA@ 0000000140017c30     libucrt:lcidtoname_downlevel.obj
 0002:00002c40       ??_C@_1M@IAIGNEJG@?$AAt?$AAn?$AA?9?$AAZ?$AAA?$AA?$AA@ 0000000140017c40     libucrt:lcidtoname_downlevel.obj
 0002:00002c50       ??_C@_1M@IIJCOJFA@?$AAx?$AAh?$AA?9?$AAZ?$AAA?$AA?$AA@ 0000000140017c50     libucrt:lcidtoname_downlevel.obj
 0002:00002c60       ??_C@_1M@LGPJHNJH@?$AAz?$AAu?$AA?9?$AAZ?$AAA?$AA?$AA@ 0000000140017c60     libucrt:lcidtoname_downlevel.obj
 0002:00002c70       ??_C@_1M@HOKAOIO@?$AAa?$AAf?$AA?9?$AAZ?$AAA?$AA?$AA@ 0000000140017c70     libucrt:lcidtoname_downlevel.obj
 0002:00002c80       ??_C@_1M@DPCLHLIE@?$AAk?$AAa?$AA?9?$AAG?$AAE?$AA?$AA@ 0000000140017c80     libucrt:lcidtoname_downlevel.obj
 0002:00002c90       ??_C@_1M@BLKMHJBI@?$AAf?$AAo?$AA?9?$AAF?$AAO?$AA?$AA@ 0000000140017c90     libucrt:lcidtoname_downlevel.obj
 0002:00002ca0       ??_C@_1M@LGGJAPPB@?$AAh?$AAi?$AA?9?$AAI?$AAN?$AA?$AA@ 0000000140017ca0     libucrt:lcidtoname_downlevel.obj
 0002:00002cb0       ??_C@_1M@FIKPIHFE@?$AAm?$AAt?$AA?9?$AAM?$AAT?$AA?$AA@ 0000000140017cb0     libucrt:lcidtoname_downlevel.obj
 0002:00002cc0       ??_C@_1M@HEGGPBFA@?$AAs?$AAe?$AA?9?$AAN?$AAO?$AA?$AA@ 0000000140017cc0     libucrt:lcidtoname_downlevel.obj
 0002:00002cd0       ??_C@_1M@EIBJEEPA@?$AAm?$AAs?$AA?9?$AAM?$AAY?$AA?$AA@ 0000000140017cd0     libucrt:lcidtoname_downlevel.obj
 0002:00002ce0       ??_C@_1M@FHLBGMPP@?$AAk?$AAk?$AA?9?$AAK?$AAZ?$AA?$AA@ 0000000140017ce0     libucrt:lcidtoname_downlevel.obj
 0002:00002cf0       ??_C@_1M@NGJJLCGI@?$AAk?$AAy?$AA?9?$AAK?$AAG?$AA?$AA@ 0000000140017cf0     libucrt:lcidtoname_downlevel.obj
 0002:00002d00       ??_C@_1M@GIENNBFC@?$AAs?$AAw?$AA?9?$AAK?$AAE?$AA?$AA@ 0000000140017d00     libucrt:lcidtoname_downlevel.obj
 0002:00002d10       ??_C@_1BG@NDGMJIMJ@?$AAu?$AAz?$AA?9?$AAU?$AAZ?$AA?9?$AAL?$AAa?$AAt?$AAn?$AA?$AA@ 0000000140017d10     libucrt:lcidtoname_downlevel.obj
 0002:00002d28       ??_C@_1M@IDCCIHBC@?$AAt?$AAt?$AA?9?$AAR?$AAU?$AA?$AA@ 0000000140017d28     libucrt:lcidtoname_downlevel.obj
 0002:00002d38       ??_C@_1M@LOICPMOJ@?$AAb?$AAn?$AA?9?$AAI?$AAN?$AA?$AA@ 0000000140017d38     libucrt:lcidtoname_downlevel.obj
 0002:00002d48       ??_C@_1M@KPKKNEAH@?$AAp?$AAa?$AA?9?$AAI?$AAN?$AA?$AA@ 0000000140017d48     libucrt:lcidtoname_downlevel.obj
 0002:00002d58       ??_C@_1M@PJGPPBOG@?$AAg?$AAu?$AA?9?$AAI?$AAN?$AA?$AA@ 0000000140017d58     libucrt:lcidtoname_downlevel.obj
 0002:00002d68       ??_C@_1M@KMKMOPHI@?$AAt?$AAa?$AA?9?$AAI?$AAN?$AA?$AA@ 0000000140017d68     libucrt:lcidtoname_downlevel.obj
 0002:00002d78       ??_C@_1M@KFEHEPAC@?$AAt?$AAe?$AA?9?$AAI?$AAN?$AA?$AA@ 0000000140017d78     libucrt:lcidtoname_downlevel.obj
 0002:00002d88       ??_C@_1M@CDCLMGHI@?$AAk?$AAn?$AA?9?$AAI?$AAN?$AA?$AA@ 0000000140017d88     libucrt:lcidtoname_downlevel.obj
 0002:00002d98       ??_C@_1M@MIODLDKF@?$AAm?$AAl?$AA?9?$AAI?$AAN?$AA?$AA@ 0000000140017d98     libucrt:lcidtoname_downlevel.obj
 0002:00002da8       ??_C@_1M@PBIEACPO@?$AAm?$AAr?$AA?9?$AAI?$AAN?$AA?$AA@ 0000000140017da8     libucrt:lcidtoname_downlevel.obj
 0002:00002db8       ??_C@_1M@NIDEAGPH@?$AAs?$AAa?$AA?9?$AAI?$AAN?$AA?$AA@ 0000000140017db8     libucrt:lcidtoname_downlevel.obj
 0002:00002dc8       ??_C@_1M@FHIHCBIO@?$AAm?$AAn?$AA?9?$AAM?$AAN?$AA?$AA@ 0000000140017dc8     libucrt:lcidtoname_downlevel.obj
 0002:00002dd8       ??_C@_1M@JAIJPENP@?$AAc?$AAy?$AA?9?$AAG?$AAB?$AA?$AA@ 0000000140017dd8     libucrt:lcidtoname_downlevel.obj
 0002:00002de8       ??_C@_1M@PHGFBEPN@?$AAg?$AAl?$AA?9?$AAE?$AAS?$AA?$AA@ 0000000140017de8     libucrt:lcidtoname_downlevel.obj
 0002:00002df8       ??_C@_1O@KPIPDNCP@?$AAk?$AAo?$AAk?$AA?9?$AAI?$AAN?$AA?$AA@ 0000000140017df8     libucrt:lcidtoname_downlevel.obj
 0002:00002e08       ??_C@_1O@KNHJLDJA@?$AAs?$AAy?$AAr?$AA?9?$AAS?$AAY?$AA?$AA@ 0000000140017e08     libucrt:lcidtoname_downlevel.obj
 0002:00002e18       ??_C@_1O@MKEKBLAH@?$AAd?$AAi?$AAv?$AA?9?$AAM?$AAV?$AA?$AA@ 0000000140017e18     libucrt:lcidtoname_downlevel.obj
 0002:00002e28       ??_C@_1O@OHDCKDDF@?$AAq?$AAu?$AAz?$AA?9?$AAB?$AAO?$AA?$AA@ 0000000140017e28     libucrt:lcidtoname_downlevel.obj
 0002:00002e38       ??_C@_1M@LEPJNLFD@?$AAn?$AAs?$AA?9?$AAZ?$AAA?$AA?$AA@ 0000000140017e38     libucrt:lcidtoname_downlevel.obj
 0002:00002e48       ??_C@_1M@OMLEIIJB@?$AAm?$AAi?$AA?9?$AAN?$AAZ?$AA?$AA@ 0000000140017e48     libucrt:lcidtoname_downlevel.obj
 0002:00002e58       ??_C@_1M@PMPEAILG@?$AAa?$AAr?$AA?9?$AAI?$AAQ?$AA?$AA@ 0000000140017e58     libucrt:lcidtoname_downlevel.obj
 0002:00002e68       ??_C@_1M@CNKPNOEE@?$AAd?$AAe?$AA?9?$AAC?$AAH?$AA?$AA@ 0000000140017e68     libucrt:lcidtoname_downlevel.obj
 0002:00002e78       ??_C@_1M@LKMGMLKO@?$AAe?$AAn?$AA?9?$AAG?$AAB?$AA?$AA@ 0000000140017e78     libucrt:lcidtoname_downlevel.obj
 0002:00002e88       ??_C@_1M@PGKJFFGL@?$AAe?$AAs?$AA?9?$AAM?$AAX?$AA?$AA@ 0000000140017e88     libucrt:lcidtoname_downlevel.obj
 0002:00002e98       ??_C@_1M@DNNANBDC@?$AAf?$AAr?$AA?9?$AAB?$AAE?$AA?$AA@ 0000000140017e98     libucrt:lcidtoname_downlevel.obj
 0002:00002ea8       ??_C@_1M@HLGMDFHM@?$AAi?$AAt?$AA?9?$AAC?$AAH?$AA?$AA@ 0000000140017ea8     libucrt:lcidtoname_downlevel.obj
 0002:00002eb8       ??_C@_1M@CLLBGJH@?$AAn?$AAl?$AA?9?$AAB?$AAE?$AA?$AA@ 0000000140017eb8     libucrt:lcidtoname_downlevel.obj
 0002:00002ec8       ??_C@_1M@BODBOGLF@?$AAn?$AAn?$AA?9?$AAN?$AAO?$AA?$AA@ 0000000140017ec8     libucrt:lcidtoname_downlevel.obj
 0002:00002ed8       ??_C@_1M@HFFAHKAD@?$AAp?$AAt?$AA?9?$AAP?$AAT?$AA?$AA@ 0000000140017ed8     libucrt:lcidtoname_downlevel.obj
 0002:00002ee8       ??_C@_1BG@LNOAKHIE@?$AAs?$AAr?$AA?9?$AAS?$AAP?$AA?9?$AAL?$AAa?$AAt?$AAn?$AA?$AA@ 0000000140017ee8     libucrt:lcidtoname_downlevel.obj
 0002:00002f00       ??_C@_1M@HBMHBGAK@?$AAs?$AAv?$AA?9?$AAF?$AAI?$AA?$AA@ 0000000140017f00     libucrt:lcidtoname_downlevel.obj
 0002:00002f10       ??_C@_1BG@DGCJGJBE@?$AAa?$AAz?$AA?9?$AAA?$AAZ?$AA?9?$AAC?$AAy?$AAr?$AAl?$AA?$AA@ 0000000140017f10     libucrt:lcidtoname_downlevel.obj
 0002:00002f28       ??_C@_1M@KEJDAAHB@?$AAs?$AAe?$AA?9?$AAS?$AAE?$AA?$AA@ 0000000140017f28     libucrt:lcidtoname_downlevel.obj
 0002:00002f38       ??_C@_1M@HEIBJJAD@?$AAm?$AAs?$AA?9?$AAB?$AAN?$AA?$AA@ 0000000140017f38     libucrt:lcidtoname_downlevel.obj
 0002:00002f48       ??_C@_1BG@PBGJMCEM@?$AAu?$AAz?$AA?9?$AAU?$AAZ?$AA?9?$AAC?$AAy?$AAr?$AAl?$AA?$AA@ 0000000140017f48     libucrt:lcidtoname_downlevel.obj
 0002:00002f60       ??_C@_1O@LAOBCMDF@?$AAq?$AAu?$AAz?$AA?9?$AAE?$AAC?$AA?$AA@ 0000000140017f60     libucrt:lcidtoname_downlevel.obj
 0002:00002f70       ??_C@_1M@POEEMAIO@?$AAa?$AAr?$AA?9?$AAE?$AAG?$AA?$AA@ 0000000140017f70     libucrt:lcidtoname_downlevel.obj
 0002:00002f80       ??_C@_1M@EFAKDEDL@?$AAz?$AAh?$AA?9?$AAH?$AAK?$AA?$AA@ 0000000140017f80     libucrt:lcidtoname_downlevel.obj
 0002:00002f90       ??_C@_1M@HKKIJHGI@?$AAd?$AAe?$AA?9?$AAA?$AAT?$AA?$AA@ 0000000140017f90     libucrt:lcidtoname_downlevel.obj
 0002:00002fa0       ??_C@_1M@KBFBEHJF@?$AAe?$AAn?$AA?9?$AAA?$AAU?$AA?$AA@ 0000000140017fa0     libucrt:lcidtoname_downlevel.obj
 0002:00002fb0       ??_C@_1M@MNPLFAAH@?$AAe?$AAs?$AA?9?$AAE?$AAS?$AA?$AA@ 0000000140017fb0     libucrt:lcidtoname_downlevel.obj
 0002:00002fc0       ??_C@_1M@HJOOJFMA@?$AAf?$AAr?$AA?9?$AAC?$AAA?$AA?$AA@ 0000000140017fc0     libucrt:lcidtoname_downlevel.obj
 0002:00002fd0       ??_C@_1BG@JPOFPNAB@?$AAs?$AAr?$AA?9?$AAS?$AAP?$AA?9?$AAC?$AAy?$AAr?$AAl?$AA?$AA@ 0000000140017fd0     libucrt:lcidtoname_downlevel.obj
 0002:00002fe8       ??_C@_1M@LNFOCMOB@?$AAs?$AAe?$AA?9?$AAF?$AAI?$AA?$AA@ 0000000140017fe8     libucrt:lcidtoname_downlevel.obj
 0002:00002ff8       ??_C@_1O@MGJBOAMB@?$AAq?$AAu?$AAz?$AA?9?$AAP?$AAE?$AA?$AA@ 0000000140017ff8     libucrt:lcidtoname_downlevel.obj
 0002:00003008       ??_C@_1M@GJINLBOK@?$AAa?$AAr?$AA?9?$AAL?$AAY?$AA?$AA@ 0000000140018008     libucrt:lcidtoname_downlevel.obj
 0002:00003018       ??_C@_1M@GGMNHJNL@?$AAz?$AAh?$AA?9?$AAS?$AAG?$AA?$AA@ 0000000140018018     libucrt:lcidtoname_downlevel.obj
 0002:00003028       ??_C@_1M@HOIKODND@?$AAd?$AAe?$AA?9?$AAL?$AAU?$AA?$AA@ 0000000140018028     libucrt:lcidtoname_downlevel.obj
 0002:00003038       ??_C@_1M@DDOCCGFG@?$AAe?$AAn?$AA?9?$AAC?$AAA?$AA?$AA@ 0000000140018038     libucrt:lcidtoname_downlevel.obj
 0002:00003048       ??_C@_1M@BNOEMJLF@?$AAe?$AAs?$AA?9?$AAG?$AAT?$AA?$AA@ 0000000140018048     libucrt:lcidtoname_downlevel.obj
 0002:00003058       ??_C@_1M@EOGNKEK@?$AAf?$AAr?$AA?9?$AAC?$AAH?$AA?$AA@ 0000000140018058     libucrt:lcidtoname_downlevel.obj
 0002:00003068       ??_C@_1M@FLIDJFHL@?$AAh?$AAr?$AA?9?$AAB?$AAA?$AA?$AA@ 0000000140018068     libucrt:lcidtoname_downlevel.obj
 0002:00003078       ??_C@_1O@FMCELNAJ@?$AAs?$AAm?$AAj?$AA?9?$AAN?$AAO?$AA?$AA@ 0000000140018078     libucrt:lcidtoname_downlevel.obj
 0002:00003088       ??_C@_1M@JHGLJMGJ@?$AAa?$AAr?$AA?9?$AAD?$AAZ?$AA?$AA@ 0000000140018088     libucrt:lcidtoname_downlevel.obj
 0002:00003098       ??_C@_1M@JKKFDCNP@?$AAz?$AAh?$AA?9?$AAM?$AAO?$AA?$AA@ 0000000140018098     libucrt:lcidtoname_downlevel.obj
 0002:000030a8       ??_C@_1M@GEEFALPE@?$AAd?$AAe?$AA?9?$AAL?$AAI?$AA?$AA@ 00000001400180a8     libucrt:lcidtoname_downlevel.obj
 0002:000030b8       ??_C@_1M@IGEOFBG@?$AAe?$AAn?$AA?9?$AAN?$AAZ?$AA?$AA@ 00000001400180b8     libucrt:lcidtoname_downlevel.obj
 0002:000030c8       ??_C@_1M@KDBONEHP@?$AAe?$AAs?$AA?9?$AAC?$AAR?$AA?$AA@ 00000001400180c8     libucrt:lcidtoname_downlevel.obj
 0002:000030d8       ??_C@_1M@FHMDOHNN@?$AAf?$AAr?$AA?9?$AAL?$AAU?$AA?$AA@ 00000001400180d8     libucrt:lcidtoname_downlevel.obj
 0002:000030e8       ??_C@_1BG@NFKKMAFG@?$AAb?$AAs?$AA?9?$AAB?$AAA?$AA?9?$AAL?$AAa?$AAt?$AAn?$AA?$AA@ 00000001400180e8     libucrt:lcidtoname_downlevel.obj
 0002:00003100       ??_C@_1O@IMNBEMCI@?$AAs?$AAm?$AAj?$AA?9?$AAS?$AAE?$AA?$AA@ 0000000140018100     libucrt:lcidtoname_downlevel.obj
 0002:00003110       ??_C@_1M@DHHMBNDP@?$AAa?$AAr?$AA?9?$AAM?$AAA?$AA?$AA@ 0000000140018110     libucrt:lcidtoname_downlevel.obj
 0002:00003120       ??_C@_1M@BNBLJCGH@?$AAe?$AAn?$AA?9?$AAI?$AAE?$AA?$AA@ 0000000140018120     libucrt:lcidtoname_downlevel.obj
 0002:00003130       ??_C@_1M@GEPAFMDL@?$AAe?$AAs?$AA?9?$AAP?$AAA?$AA?$AA@ 0000000140018130     libucrt:lcidtoname_downlevel.obj
 0002:00003140       ??_C@_1M@OJONDMDL@?$AAf?$AAr?$AA?9?$AAM?$AAC?$AA?$AA@ 0000000140018140     libucrt:lcidtoname_downlevel.obj
 0002:00003150       ??_C@_1BG@OBCNFJB@?$AAs?$AAr?$AA?9?$AAB?$AAA?$AA?9?$AAL?$AAa?$AAt?$AAn?$AA?$AA@ 0000000140018150     libucrt:lcidtoname_downlevel.obj
 0002:00003168       ??_C@_1O@KEMEEGPO@?$AAs?$AAm?$AAa?$AA?9?$AAN?$AAO?$AA?$AA@ 0000000140018168     libucrt:lcidtoname_downlevel.obj
 0002:00003178       ??_C@_1M@ELMGFODK@?$AAa?$AAr?$AA?9?$AAT?$AAN?$AA?$AA@ 0000000140018178     libucrt:lcidtoname_downlevel.obj
 0002:00003188       ??_C@_1M@BHDLHFAF@?$AAe?$AAn?$AA?9?$AAZ?$AAA?$AA?$AA@ 0000000140018188     libucrt:lcidtoname_downlevel.obj
 0002:00003198       ??_C@_1M@BMGIGLIF@?$AAe?$AAs?$AA?9?$AAD?$AAO?$AA?$AA@ 0000000140018198     libucrt:lcidtoname_downlevel.obj
 0002:000031a8       ??_C@_1BG@CMBHIPBE@?$AAs?$AAr?$AA?9?$AAB?$AAA?$AA?9?$AAC?$AAy?$AAr?$AAl?$AA?$AA@ 00000001400181a8     libucrt:lcidtoname_downlevel.obj
 0002:000031c0       ??_C@_1O@HEDBLHNP@?$AAs?$AAm?$AAa?$AA?9?$AAS?$AAE?$AA?$AA@ 00000001400181c0     libucrt:lcidtoname_downlevel.obj
 0002:000031d0       ??_C@_1M@DAGCADIM@?$AAa?$AAr?$AA?9?$AAO?$AAM?$AA?$AA@ 00000001400181d0     libucrt:lcidtoname_downlevel.obj
 0002:000031e0       ??_C@_1M@FODLMICG@?$AAe?$AAn?$AA?9?$AAJ?$AAM?$AA?$AA@ 00000001400181e0     libucrt:lcidtoname_downlevel.obj
 0002:000031f0       ??_C@_1M@DNMLCIHB@?$AAe?$AAs?$AA?9?$AAV?$AAE?$AA?$AA@ 00000001400181f0     libucrt:lcidtoname_downlevel.obj
 0002:00003200       ??_C@_1O@EOKHMKJK@?$AAs?$AAm?$AAs?$AA?9?$AAF?$AAI?$AA?$AA@ 0000000140018200     libucrt:lcidtoname_downlevel.obj
 0002:00003210       ??_C@_1M@CAFJMKOF@?$AAa?$AAr?$AA?9?$AAY?$AAE?$AA?$AA@ 0000000140018210     libucrt:lcidtoname_downlevel.obj
 0002:00003220       ??_C@_1M@CBFHIJLI@?$AAe?$AAn?$AA?9?$AAC?$AAB?$AA?$AA@ 0000000140018220     libucrt:lcidtoname_downlevel.obj
 0002:00003230       ??_C@_1M@BGNFLDN@?$AAe?$AAs?$AA?9?$AAC?$AAO?$AA?$AA@ 0000000140018230     libucrt:lcidtoname_downlevel.obj
 0002:00003240       ??_C@_1O@JMPHMAMC@?$AAs?$AAm?$AAn?$AA?9?$AAF?$AAI?$AA?$AA@ 0000000140018240     libucrt:lcidtoname_downlevel.obj
 0002:00003250       ??_C@_1M@JLANABKE@?$AAa?$AAr?$AA?9?$AAS?$AAY?$AA?$AA@ 0000000140018250     libucrt:lcidtoname_downlevel.obj
 0002:00003260       ??_C@_1M@HPKGCFGN@?$AAe?$AAn?$AA?9?$AAB?$AAZ?$AA?$AA@ 0000000140018260     libucrt:lcidtoname_downlevel.obj
 0002:00003270       ??_C@_1M@OLJCMLGM@?$AAe?$AAs?$AA?9?$AAP?$AAE?$AA?$AA@ 0000000140018270     libucrt:lcidtoname_downlevel.obj
 0002:00003280       ??_C@_1M@MKKGFKLE@?$AAa?$AAr?$AA?9?$AAJ?$AAO?$AA?$AA@ 0000000140018280     libucrt:lcidtoname_downlevel.obj
 0002:00003290       ??_C@_1M@EKPGLDNI@?$AAe?$AAn?$AA?9?$AAT?$AAT?$AA?$AA@ 0000000140018290     libucrt:lcidtoname_downlevel.obj
 0002:000032a0       ??_C@_1M@OONGHFHE@?$AAe?$AAs?$AA?9?$AAA?$AAR?$AA?$AA@ 00000001400182a0     libucrt:lcidtoname_downlevel.obj
 0002:000032b0       ??_C@_1M@OOJFGBHE@?$AAa?$AAr?$AA?9?$AAL?$AAB?$AA?$AA@ 00000001400182b0     libucrt:lcidtoname_downlevel.obj
 0002:000032c0       ??_C@_1M@GCEJHNEG@?$AAe?$AAn?$AA?9?$AAZ?$AAW?$AA?$AA@ 00000001400182c0     libucrt:lcidtoname_downlevel.obj
 0002:000032d0       ??_C@_1M@JNOCAHJI@?$AAe?$AAs?$AA?9?$AAE?$AAC?$AA?$AA@ 00000001400182d0     libucrt:lcidtoname_downlevel.obj
 0002:000032e0       ??_C@_1M@JEFHPGGB@?$AAa?$AAr?$AA?9?$AAK?$AAW?$AA?$AA@ 00000001400182e0     libucrt:lcidtoname_downlevel.obj
 0002:000032f0       ??_C@_1M@MLKIBJOJ@?$AAe?$AAn?$AA?9?$AAP?$AAH?$AA?$AA@ 00000001400182f0     libucrt:lcidtoname_downlevel.obj
 0002:00003300       ??_C@_1M@BDNIPEND@?$AAe?$AAs?$AA?9?$AAC?$AAL?$AA?$AA@ 0000000140018300     libucrt:lcidtoname_downlevel.obj
 0002:00003310       ??_C@_1M@MPNMEKBD@?$AAa?$AAr?$AA?9?$AAA?$AAE?$AA?$AA@ 0000000140018310     libucrt:lcidtoname_downlevel.obj
 0002:00003320       ??_C@_1M@KBJALCPI@?$AAe?$AAs?$AA?9?$AAU?$AAY?$AA?$AA@ 0000000140018320     libucrt:lcidtoname_downlevel.obj
 0002:00003330       ??_C@_1M@LLCCOAGA@?$AAa?$AAr?$AA?9?$AAB?$AAH?$AA?$AA@ 0000000140018330     libucrt:lcidtoname_downlevel.obj
 0002:00003340       ??_C@_1M@PBFNCDEL@?$AAe?$AAs?$AA?9?$AAP?$AAY?$AA?$AA@ 0000000140018340     libucrt:lcidtoname_downlevel.obj
 0002:00003350       ??_C@_1M@EDGINPNP@?$AAa?$AAr?$AA?9?$AAQ?$AAA?$AA?$AA@ 0000000140018350     libucrt:lcidtoname_downlevel.obj
 0002:00003360       ??_C@_1M@MKDBIIJI@?$AAe?$AAs?$AA?9?$AAB?$AAO?$AA?$AA@ 0000000140018360     libucrt:lcidtoname_downlevel.obj
 0002:00003370       ??_C@_1M@CPKKEBLD@?$AAe?$AAs?$AA?9?$AAS?$AAV?$AA?$AA@ 0000000140018370     libucrt:lcidtoname_downlevel.obj
 0002:00003380       ??_C@_1M@NDBGMMJL@?$AAe?$AAs?$AA?9?$AAH?$AAN?$AA?$AA@ 0000000140018380     libucrt:lcidtoname_downlevel.obj
 0002:00003390       ??_C@_1M@JIJIBHDP@?$AAe?$AAs?$AA?9?$AAN?$AAI?$AA?$AA@ 0000000140018390     libucrt:lcidtoname_downlevel.obj
 0002:000033a0       ??_C@_1M@CGFMKEEK@?$AAe?$AAs?$AA?9?$AAP?$AAR?$AA?$AA@ 00000001400183a0     libucrt:lcidtoname_downlevel.obj
 0002:000033b0       ??_C@_1O@ICJHKIIK@?$AAz?$AAh?$AA?9?$AAC?$AAH?$AAT?$AA?$AA@ 00000001400183b0     libucrt:lcidtoname_downlevel.obj
 0002:000033c0       ??_C@_15CLNEJCE@?$AAs?$AAr?$AA?$AA@ 00000001400183c0     libucrt:lcidtoname_downlevel.obj
 0002:00004210       ??_C@_1M@KAHEKEIG@?$AAa?$AAf?$AA?9?$AAz?$AAa?$AA?$AA@ 0000000140019210     libucrt:lcidtoname_downlevel.obj
 0002:00004220       ??_C@_1M@GIECOABL@?$AAa?$AAr?$AA?9?$AAa?$AAe?$AA?$AA@ 0000000140019220     libucrt:lcidtoname_downlevel.obj
 0002:00004230       ??_C@_1M@BMLMEKGI@?$AAa?$AAr?$AA?9?$AAb?$AAh?$AA?$AA@ 0000000140019230     libucrt:lcidtoname_downlevel.obj
 0002:00004240       ??_C@_1M@DAPFDGGB@?$AAa?$AAr?$AA?9?$AAd?$AAz?$AA?$AA@ 0000000140019240     libucrt:lcidtoname_downlevel.obj
 0002:00004250       ??_C@_1M@FJNKGKIG@?$AAa?$AAr?$AA?9?$AAe?$AAg?$AA?$AA@ 0000000140019250     libucrt:lcidtoname_downlevel.obj
 0002:00004260       ??_C@_1M@FLGKKCLO@?$AAa?$AAr?$AA?9?$AAi?$AAq?$AA?$AA@ 0000000140019260     libucrt:lcidtoname_downlevel.obj
 0002:00004270       ??_C@_1M@GNDIPALM@?$AAa?$AAr?$AA?9?$AAj?$AAo?$AA?$AA@ 0000000140019270     libucrt:lcidtoname_downlevel.obj
 0002:00004280       ??_C@_1M@DDMJFMGJ@?$AAa?$AAr?$AA?9?$AAk?$AAw?$AA?$AA@ 0000000140019280     libucrt:lcidtoname_downlevel.obj
 0002:00004290       ??_C@_1M@EJALMLHM@?$AAa?$AAr?$AA?9?$AAl?$AAb?$AA?$AA@ 0000000140019290     libucrt:lcidtoname_downlevel.obj
 0002:000042a0       ??_C@_1M@MOBDBLOC@?$AAa?$AAr?$AA?9?$AAl?$AAy?$AA?$AA@ 00000001400192a0     libucrt:lcidtoname_downlevel.obj
 0002:000042b0       ??_C@_1M@JAOCLHDH@?$AAa?$AAr?$AA?9?$AAm?$AAa?$AA?$AA@ 00000001400192b0     libucrt:lcidtoname_downlevel.obj
 0002:000042c0       ??_C@_1M@JHPMKJIE@?$AAa?$AAr?$AA?9?$AAo?$AAm?$AA?$AA@ 00000001400192c0     libucrt:lcidtoname_downlevel.obj
 0002:000042d0       ??_C@_1M@OEPGHFNH@?$AAa?$AAr?$AA?9?$AAq?$AAa?$AA?$AA@ 00000001400192d0     libucrt:lcidtoname_downlevel.obj
 0002:000042e0       ??_C@_1M@KJDONENM@?$AAa?$AAr?$AA?9?$AAs?$AAa?$AA?$AA@ 00000001400192e0     libucrt:lcidtoname_downlevel.obj
 0002:000042f0       ??_C@_1M@DMJDKLKM@?$AAa?$AAr?$AA?9?$AAs?$AAy?$AA?$AA@ 00000001400192f0     libucrt:lcidtoname_downlevel.obj
 0002:00004300       ??_C@_1M@OMFIPEDC@?$AAa?$AAr?$AA?9?$AAt?$AAn?$AA?$AA@ 0000000140019300     libucrt:lcidtoname_downlevel.obj
 0002:00004310       ??_C@_1M@IHMHGAON@?$AAa?$AAr?$AA?9?$AAy?$AAe?$AA?$AA@ 0000000140019310     libucrt:lcidtoname_downlevel.obj
 0002:00004320       ??_C@_1BG@KDCPGJGB@?$AAa?$AAz?$AA?9?$AAa?$AAz?$AA?9?$AAc?$AAy?$AAr?$AAl?$AA?$AA@ 0000000140019320     libucrt:lcidtoname_downlevel.obj
 0002:00004338       ??_C@_1BG@IBCKDDOE@?$AAa?$AAz?$AA?9?$AAa?$AAz?$AA?9?$AAl?$AAa?$AAt?$AAn?$AA?$AA@ 0000000140019338     libucrt:lcidtoname_downlevel.obj
 0002:00004350       ??_C@_1M@EGPFDCPD@?$AAb?$AAe?$AA?9?$AAb?$AAy?$AA?$AA@ 0000000140019350     libucrt:lcidtoname_downlevel.obj
 0002:00004360       ??_C@_1M@PCMGMCGC@?$AAb?$AAg?$AA?9?$AAb?$AAg?$AA?$AA@ 0000000140019360     libucrt:lcidtoname_downlevel.obj
 0002:00004370       ??_C@_1M@BJBMFGOB@?$AAb?$AAn?$AA?9?$AAi?$AAn?$AA?$AA@ 0000000140019370     libucrt:lcidtoname_downlevel.obj
 0002:00004380       ??_C@_1BG@EAKMMACD@?$AAb?$AAs?$AA?9?$AAb?$AAa?$AA?9?$AAl?$AAa?$AAt?$AAn?$AA?$AA@ 0000000140019380     libucrt:lcidtoname_downlevel.obj
 0002:00004398       ??_C@_1M@KGADAODK@?$AAc?$AAa?$AA?9?$AAe?$AAs?$AA?$AA@ 0000000140019398     libucrt:lcidtoname_downlevel.obj
 0002:000043a8       ??_C@_1M@COAJPDHI@?$AAc?$AAs?$AA?9?$AAc?$AAz?$AA?$AA@ 00000001400193a8     libucrt:lcidtoname_downlevel.obj
 0002:000043b8       ??_C@_1M@DHBHFONH@?$AAc?$AAy?$AA?9?$AAg?$AAb?$AA?$AA@ 00000001400193b8     libucrt:lcidtoname_downlevel.obj
 0002:000043c8       ??_C@_1M@IMGKELGA@?$AAd?$AAa?$AA?9?$AAd?$AAk?$AA?$AA@ 00000001400193c8     libucrt:lcidtoname_downlevel.obj
 0002:000043d8       ??_C@_1M@NNDGDNGA@?$AAd?$AAe?$AA?9?$AAa?$AAt?$AA?$AA@ 00000001400193d8     libucrt:lcidtoname_downlevel.obj
 0002:000043e8       ??_C@_1M@IKDBHEEM@?$AAd?$AAe?$AA?9?$AAc?$AAh?$AA?$AA@ 00000001400193e8     libucrt:lcidtoname_downlevel.obj
 0002:000043f8       ??_C@_1M@GFFOJMCJ@?$AAd?$AAe?$AA?9?$AAd?$AAe?$AA?$AA@ 00000001400193f8     libucrt:lcidtoname_downlevel.obj
 0002:00004408       ??_C@_1M@MDNLKBPM@?$AAd?$AAe?$AA?9?$AAl?$AAi?$AA?$AA@ 0000000140019408     libucrt:lcidtoname_downlevel.obj
 0002:00004418       ??_C@_1M@NJBEEJNL@?$AAd?$AAe?$AA?9?$AAl?$AAu?$AA?$AA@ 0000000140019418     libucrt:lcidtoname_downlevel.obj
 0002:00004428       ??_C@_1O@GNNELBAP@?$AAd?$AAi?$AAv?$AA?9?$AAm?$AAv?$AA?$AA@ 0000000140019428     libucrt:lcidtoname_downlevel.obj
 0002:00004438       ??_C@_1M@EJLEOGAE@?$AAe?$AAl?$AA?9?$AAg?$AAr?$AA?$AA@ 0000000140019438     libucrt:lcidtoname_downlevel.obj
 0002:00004448       ??_C@_1M@GMPONJN@?$AAe?$AAn?$AA?9?$AAa?$AAu?$AA?$AA@ 0000000140019448     libucrt:lcidtoname_downlevel.obj
 0002:00004458       ??_C@_1M@NIDIIPGF@?$AAe?$AAn?$AA?9?$AAb?$AAz?$AA?$AA@ 0000000140019458     libucrt:lcidtoname_downlevel.obj
 0002:00004468       ??_C@_1M@JEHMIMFO@?$AAe?$AAn?$AA?9?$AAc?$AAa?$AA?$AA@ 0000000140019468     libucrt:lcidtoname_downlevel.obj
 0002:00004478       ??_C@_1M@IGMJCDLA@?$AAe?$AAn?$AA?9?$AAc?$AAb?$AA?$AA@ 0000000140019478     libucrt:lcidtoname_downlevel.obj
 0002:00004488       ??_C@_1M@BNFIGBKG@?$AAe?$AAn?$AA?9?$AAg?$AAb?$AA?$AA@ 0000000140019488     libucrt:lcidtoname_downlevel.obj
 0002:00004498       ??_C@_1M@LKIFDIGP@?$AAe?$AAn?$AA?9?$AAi?$AAe?$AA?$AA@ 0000000140019498     libucrt:lcidtoname_downlevel.obj
 0002:000044a8       ??_C@_1M@PJKFGCCO@?$AAe?$AAn?$AA?9?$AAj?$AAm?$AA?$AA@ 00000001400194a8     libucrt:lcidtoname_downlevel.obj
 0002:000044b8       ??_C@_1M@KPPKEPBO@?$AAe?$AAn?$AA?9?$AAn?$AAz?$AA?$AA@ 00000001400194b8     libucrt:lcidtoname_downlevel.obj
 0002:000044c8       ??_C@_1M@GMDGLDOB@?$AAe?$AAn?$AA?9?$AAp?$AAh?$AA?$AA@ 00000001400194c8     libucrt:lcidtoname_downlevel.obj
 0002:000044d8       ??_C@_1M@ONGIBJNA@?$AAe?$AAn?$AA?9?$AAt?$AAt?$AA?$AA@ 00000001400194d8     libucrt:lcidtoname_downlevel.obj
 0002:000044e8       ??_C@_1M@LLODPCMM@?$AAe?$AAn?$AA?9?$AAu?$AAs?$AA?$AA@ 00000001400194e8     libucrt:lcidtoname_downlevel.obj
 0002:000044f8       ??_C@_1M@LAKFNPAN@?$AAe?$AAn?$AA?9?$AAz?$AAa?$AA?$AA@ 00000001400194f8     libucrt:lcidtoname_downlevel.obj
 0002:00004508       ??_C@_1M@MFNHNHEO@?$AAe?$AAn?$AA?9?$AAz?$AAw?$AA?$AA@ 0000000140019508     libucrt:lcidtoname_downlevel.obj
 0002:00004518       ??_C@_1M@EJEINPHM@?$AAe?$AAs?$AA?9?$AAa?$AAr?$AA?$AA@ 0000000140019518     libucrt:lcidtoname_downlevel.obj
 0002:00004528       ??_C@_1M@GNKPCCJA@?$AAe?$AAs?$AA?9?$AAb?$AAo?$AA?$AA@ 0000000140019528     libucrt:lcidtoname_downlevel.obj
 0002:00004538       ??_C@_1M@LEEGFONL@?$AAe?$AAs?$AA?9?$AAc?$AAl?$AA?$AA@ 0000000140019538     libucrt:lcidtoname_downlevel.obj
 0002:00004548       ??_C@_1M@KGPDPBDF@?$AAe?$AAs?$AA?9?$AAc?$AAo?$AA?$AA@ 0000000140019548     libucrt:lcidtoname_downlevel.obj
 0002:00004558       ??_C@_1M@EIAHOHH@?$AAe?$AAs?$AA?9?$AAc?$AAr?$AA?$AA@ 0000000140019558     libucrt:lcidtoname_downlevel.obj
 0002:00004568       ??_C@_1M@LLPGMBIN@?$AAe?$AAs?$AA?9?$AAd?$AAo?$AA?$AA@ 0000000140019568     libucrt:lcidtoname_downlevel.obj
 0002:00004578       ??_C@_1M@DKHMKNJA@?$AAe?$AAs?$AA?9?$AAe?$AAc?$AA?$AA@ 0000000140019578     libucrt:lcidtoname_downlevel.obj
 0002:00004588       ??_C@_1M@GKGFPKAP@?$AAe?$AAs?$AA?9?$AAe?$AAs?$AA?$AA@ 0000000140019588     libucrt:lcidtoname_downlevel.obj
 0002:00004598       ??_C@_1M@LKHKGDLN@?$AAe?$AAs?$AA?9?$AAg?$AAt?$AA?$AA@ 0000000140019598     libucrt:lcidtoname_downlevel.obj
 0002:000045a8       ??_C@_1M@HEIIGGJD@?$AAe?$AAs?$AA?9?$AAh?$AAn?$AA?$AA@ 00000001400195a8     libucrt:lcidtoname_downlevel.obj
 0002:000045b8       ??_C@_1M@FBDHPPGD@?$AAe?$AAs?$AA?9?$AAm?$AAx?$AA?$AA@ 00000001400195b8     libucrt:lcidtoname_downlevel.obj
 0002:000045c8       ??_C@_1M@DPAGLNDH@?$AAe?$AAs?$AA?9?$AAn?$AAi?$AA?$AA@ 00000001400195c8     libucrt:lcidtoname_downlevel.obj
 0002:000045d8       ??_C@_1M@MDGOPGDD@?$AAe?$AAs?$AA?9?$AAp?$AAa?$AA?$AA@ 00000001400195d8     libucrt:lcidtoname_downlevel.obj
 0002:000045e8       ??_C@_1M@EMAMGBGE@?$AAe?$AAs?$AA?9?$AAp?$AAe?$AA?$AA@ 00000001400195e8     libucrt:lcidtoname_downlevel.obj
 0002:000045f8       ??_C@_1M@IBMCAOEC@?$AAe?$AAs?$AA?9?$AAp?$AAr?$AA?$AA@ 00000001400195f8     libucrt:lcidtoname_downlevel.obj
 0002:00004608       ??_C@_1M@FGMDIJED@?$AAe?$AAs?$AA?9?$AAp?$AAy?$AA?$AA@ 0000000140019608     libucrt:lcidtoname_downlevel.obj
 0002:00004618       ??_C@_1M@IIDEOLLL@?$AAe?$AAs?$AA?9?$AAs?$AAv?$AA?$AA@ 0000000140019618     libucrt:lcidtoname_downlevel.obj
 0002:00004628       ??_C@_1M@GAOBIPA@?$AAe?$AAs?$AA?9?$AAu?$AAy?$AA?$AA@ 0000000140019628     libucrt:lcidtoname_downlevel.obj
 0002:00004638       ??_C@_1M@JKFFICHJ@?$AAe?$AAs?$AA?9?$AAv?$AAe?$AA?$AA@ 0000000140019638     libucrt:lcidtoname_downlevel.obj
 0002:00004648       ??_C@_1M@PNMLOJDF@?$AAe?$AAt?$AA?9?$AAe?$AAe?$AA?$AA@ 0000000140019648     libucrt:lcidtoname_downlevel.obj
 0002:00004658       ??_C@_1M@GHHLIKEI@?$AAe?$AAu?$AA?9?$AAe?$AAs?$AA?$AA@ 0000000140019658     libucrt:lcidtoname_downlevel.obj
 0002:00004668       ??_C@_1M@PBNONODE@?$AAf?$AAa?$AA?9?$AAi?$AAr?$AA?$AA@ 0000000140019668     libucrt:lcidtoname_downlevel.obj
 0002:00004678       ??_C@_1M@JEEHPMIL@?$AAf?$AAi?$AA?9?$AAf?$AAi?$AA?$AA@ 0000000140019678     libucrt:lcidtoname_downlevel.obj
 0002:00004688       ??_C@_1M@LMDCNDBA@?$AAf?$AAo?$AA?9?$AAf?$AAo?$AA?$AA@ 0000000140019688     libucrt:lcidtoname_downlevel.obj
 0002:00004698       ??_C@_1M@JKEOHLDK@?$AAf?$AAr?$AA?9?$AAb?$AAe?$AA?$AA@ 0000000140019698     libucrt:lcidtoname_downlevel.obj
 0002:000046a8       ??_C@_1M@NOHADPMI@?$AAf?$AAr?$AA?9?$AAc?$AAa?$AA?$AA@ 00000001400196a8     libucrt:lcidtoname_downlevel.obj
 0002:000046b8       ??_C@_1M@KDHIHAEC@?$AAf?$AAr?$AA?9?$AAc?$AAh?$AA?$AA@ 00000001400196b8     libucrt:lcidtoname_downlevel.obj
 0002:000046c8       ??_C@_1M@MMBBFGAK@?$AAf?$AAr?$AA?9?$AAf?$AAr?$AA?$AA@ 00000001400196c8     libucrt:lcidtoname_downlevel.obj
 0002:000046d8       ??_C@_1M@PAFNENNF@?$AAf?$AAr?$AA?9?$AAl?$AAu?$AA?$AA@ 00000001400196d8     libucrt:lcidtoname_downlevel.obj
 0002:000046e8       ??_C@_1M@EOHDJGDD@?$AAf?$AAr?$AA?9?$AAm?$AAc?$AA?$AA@ 00000001400196e8     libucrt:lcidtoname_downlevel.obj
 0002:000046f8       ??_C@_1M@FAPLLOPF@?$AAg?$AAl?$AA?9?$AAe?$AAs?$AA?$AA@ 00000001400196f8     libucrt:lcidtoname_downlevel.obj
 0002:00004708       ??_C@_1M@FOPBFLOO@?$AAg?$AAu?$AA?9?$AAi?$AAn?$AA?$AA@ 0000000140019708     libucrt:lcidtoname_downlevel.obj
 0002:00004718       ??_C@_1M@KBMCINPM@?$AAh?$AAe?$AA?9?$AAi?$AAl?$AA?$AA@ 0000000140019718     libucrt:lcidtoname_downlevel.obj
 0002:00004728       ??_C@_1M@BBPHKFPJ@?$AAh?$AAi?$AA?9?$AAi?$AAn?$AA?$AA@ 0000000140019728     libucrt:lcidtoname_downlevel.obj
 0002:00004738       ??_C@_1M@PMBNDPHD@?$AAh?$AAr?$AA?9?$AAb?$AAa?$AA?$AA@ 0000000140019738     libucrt:lcidtoname_downlevel.obj
 0002:00004748       ??_C@_1M@BPCKOEGE@?$AAh?$AAr?$AA?9?$AAh?$AAr?$AA?$AA@ 0000000140019748     libucrt:lcidtoname_downlevel.obj
 0002:00004758       ??_C@_1M@GACBMHKE@?$AAh?$AAu?$AA?9?$AAh?$AAu?$AA?$AA@ 0000000140019758     libucrt:lcidtoname_downlevel.obj
 0002:00004768       ??_C@_1M@MILPAJJC@?$AAh?$AAy?$AA?9?$AAa?$AAm?$AA?$AA@ 0000000140019768     libucrt:lcidtoname_downlevel.obj
 0002:00004778       ??_C@_1M@BABBICEC@?$AAi?$AAd?$AA?9?$AAi?$AAd?$AA?$AA@ 0000000140019778     libucrt:lcidtoname_downlevel.obj
 0002:00004788       ??_C@_1M@BIKNHHPF@?$AAi?$AAs?$AA?9?$AAi?$AAs?$AA?$AA@ 0000000140019788     libucrt:lcidtoname_downlevel.obj
 0002:00004798       ??_C@_1M@NMPCJPHE@?$AAi?$AAt?$AA?9?$AAc?$AAh?$AA?$AA@ 0000000140019798     libucrt:lcidtoname_downlevel.obj
 0002:000047a8       ??_C@_1M@GHKGFEDF@?$AAi?$AAt?$AA?9?$AAi?$AAt?$AA?$AA@ 00000001400197a8     libucrt:lcidtoname_downlevel.obj
 0002:000047b8       ??_C@_1M@NIEJCJJA@?$AAj?$AAa?$AA?9?$AAj?$AAp?$AA?$AA@ 00000001400197b8     libucrt:lcidtoname_downlevel.obj
 0002:000047c8       ??_C@_1M@JILFNBIM@?$AAk?$AAa?$AA?9?$AAg?$AAe?$AA?$AA@ 00000001400197c8     libucrt:lcidtoname_downlevel.obj
 0002:000047d8       ??_C@_1M@PACPMGPH@?$AAk?$AAk?$AA?9?$AAk?$AAz?$AA?$AA@ 00000001400197d8     libucrt:lcidtoname_downlevel.obj
 0002:000047e8       ??_C@_1M@IELFGMHA@?$AAk?$AAn?$AA?9?$AAi?$AAn?$AA?$AA@ 00000001400197e8     libucrt:lcidtoname_downlevel.obj
 0002:000047f8       ??_C@_1O@IBBJHCH@?$AAk?$AAo?$AAk?$AA?9?$AAi?$AAn?$AA?$AA@ 00000001400197f8     libucrt:lcidtoname_downlevel.obj
 0002:00004808       ??_C@_1M@DMHAEOGC@?$AAk?$AAo?$AA?9?$AAk?$AAr?$AA?$AA@ 0000000140019808     libucrt:lcidtoname_downlevel.obj
 0002:00004818       ??_C@_1M@HBAHBIGA@?$AAk?$AAy?$AA?9?$AAk?$AAg?$AA?$AA@ 0000000140019818     libucrt:lcidtoname_downlevel.obj
 0002:00004828       ??_C@_1M@KPMILCJG@?$AAl?$AAt?$AA?9?$AAl?$AAt?$AA?$AA@ 0000000140019828     libucrt:lcidtoname_downlevel.obj
 0002:00004838       ??_C@_1M@BDEKKCA@?$AAl?$AAv?$AA?9?$AAl?$AAv?$AA?$AA@ 0000000140019838     libucrt:lcidtoname_downlevel.obj
 0002:00004848       ??_C@_1M@ELCKCCJJ@?$AAm?$AAi?$AA?9?$AAn?$AAz?$AA?$AA@ 0000000140019848     libucrt:lcidtoname_downlevel.obj
 0002:00004858       ??_C@_1M@CBOOLAPA@?$AAm?$AAk?$AA?9?$AAm?$AAk?$AA?$AA@ 0000000140019858     libucrt:lcidtoname_downlevel.obj
 0002:00004868       ??_C@_1M@GPHNBJKN@?$AAm?$AAl?$AA?9?$AAi?$AAn?$AA?$AA@ 0000000140019868     libucrt:lcidtoname_downlevel.obj
 0002:00004878       ??_C@_1M@PABJILIG@?$AAm?$AAn?$AA?9?$AAm?$AAn?$AA?$AA@ 0000000140019878     libucrt:lcidtoname_downlevel.obj
 0002:00004888       ??_C@_1M@FGBKKIPG@?$AAm?$AAr?$AA?9?$AAi?$AAn?$AA?$AA@ 0000000140019888     libucrt:lcidtoname_downlevel.obj
 0002:00004898       ??_C@_1M@NDBPDDAL@?$AAm?$AAs?$AA?9?$AAb?$AAn?$AA?$AA@ 0000000140019898     libucrt:lcidtoname_downlevel.obj
 0002:000048a8       ??_C@_1M@OPIHOOPI@?$AAm?$AAs?$AA?9?$AAm?$AAy?$AA?$AA@ 00000001400198a8     libucrt:lcidtoname_downlevel.obj
 0002:000048b8       ??_C@_1M@PPDBCNFM@?$AAm?$AAt?$AA?9?$AAm?$AAt?$AA?$AA@ 00000001400198b8     libucrt:lcidtoname_downlevel.obj
 0002:000048c8       ??_C@_1M@KDJDKMDD@?$AAn?$AAb?$AA?9?$AAn?$AAo?$AA?$AA@ 00000001400198c8     libucrt:lcidtoname_downlevel.obj
 0002:000048d8       ??_C@_1M@KFCFLMJP@?$AAn?$AAl?$AA?9?$AAb?$AAe?$AA?$AA@ 00000001400198d8     libucrt:lcidtoname_downlevel.obj
 0002:000048e8       ??_C@_1M@KPOPDDGO@?$AAn?$AAl?$AA?9?$AAn?$AAl?$AA?$AA@ 00000001400198e8     libucrt:lcidtoname_downlevel.obj
 0002:000048f8       ??_C@_1M@LJKPEMLN@?$AAn?$AAn?$AA?9?$AAn?$AAo?$AA?$AA@ 00000001400198f8     libucrt:lcidtoname_downlevel.obj
 0002:00004908       ??_C@_1M@BDGHHBFL@?$AAn?$AAs?$AA?9?$AAz?$AAa?$AA?$AA@ 0000000140019908     libucrt:lcidtoname_downlevel.obj
 0002:00004918       ??_C@_1M@IDEHOAP@?$AAp?$AAa?$AA?9?$AAi?$AAn?$AA?$AA@ 0000000140019918     libucrt:lcidtoname_downlevel.obj
 0002:00004928       ??_C@_1M@HDBKGOGH@?$AAp?$AAl?$AA?9?$AAp?$AAl?$AA?$AA@ 0000000140019928     libucrt:lcidtoname_downlevel.obj
 0002:00004938       ??_C@_1M@LJLLCMEH@?$AAp?$AAt?$AA?9?$AAb?$AAr?$AA?$AA@ 0000000140019938     libucrt:lcidtoname_downlevel.obj
 0002:00004948       ??_C@_1M@NCMONAAL@?$AAp?$AAt?$AA?9?$AAp?$AAt?$AA?$AA@ 0000000140019948     libucrt:lcidtoname_downlevel.obj
 0002:00004958       ??_C@_1O@EAKMAJDN@?$AAq?$AAu?$AAz?$AA?9?$AAb?$AAo?$AA?$AA@ 0000000140019958     libucrt:lcidtoname_downlevel.obj
 0002:00004968       ??_C@_1O@BHHPIGDN@?$AAq?$AAu?$AAz?$AA?9?$AAe?$AAc?$AA?$AA@ 0000000140019968     libucrt:lcidtoname_downlevel.obj
 0002:00004978       ??_C@_1O@GBAPEKMJ@?$AAq?$AAu?$AAz?$AA?9?$AAp?$AAe?$AA?$AA@ 0000000140019978     libucrt:lcidtoname_downlevel.obj
 0002:00004988       ??_C@_1M@CLGLEFBO@?$AAr?$AAo?$AA?9?$AAr?$AAo?$AA?$AA@ 0000000140019988     libucrt:lcidtoname_downlevel.obj
 0002:00004998       ??_C@_1M@CEEDODME@?$AAr?$AAu?$AA?9?$AAr?$AAu?$AA?$AA@ 0000000140019998     libucrt:lcidtoname_downlevel.obj
 0002:000049a8       ??_C@_1M@HPKKKMPP@?$AAs?$AAa?$AA?9?$AAi?$AAn?$AA?$AA@ 00000001400199a8     libucrt:lcidtoname_downlevel.obj
 0002:000049b8       ??_C@_1M@BKMAIGOJ@?$AAs?$AAe?$AA?9?$AAf?$AAi?$AA?$AA@ 00000001400199b8     libucrt:lcidtoname_downlevel.obj
 0002:000049c8       ??_C@_1M@NDPIFLFI@?$AAs?$AAe?$AA?9?$AAn?$AAo?$AA?$AA@ 00000001400199c8     libucrt:lcidtoname_downlevel.obj
 0002:000049d8       ??_C@_1M@DANKKHJ@?$AAs?$AAe?$AA?9?$AAs?$AAe?$AA?$AA@ 00000001400199d8     libucrt:lcidtoname_downlevel.obj
 0002:000049e8       ??_C@_1M@PNBLONPJ@?$AAs?$AAk?$AA?9?$AAs?$AAk?$AA?$AA@ 00000001400199e8     libucrt:lcidtoname_downlevel.obj
 0002:000049f8       ??_C@_1M@LFMODOAL@?$AAs?$AAl?$AA?9?$AAs?$AAi?$AA?$AA@ 00000001400199f8     libucrt:lcidtoname_downlevel.obj
 0002:00004a08       ??_C@_1O@DFKOMPG@?$AAs?$AAm?$AAa?$AA?9?$AAn?$AAo?$AA?$AA@ 0000000140019a08     libucrt:lcidtoname_downlevel.obj
 0002:00004a18       ??_C@_1O@NDKPBNNH@?$AAs?$AAm?$AAa?$AA?9?$AAs?$AAe?$AA?$AA@ 0000000140019a18     libucrt:lcidtoname_downlevel.obj
 0002:00004a28       ??_C@_1O@PLLKBHAB@?$AAs?$AAm?$AAj?$AA?9?$AAn?$AAo?$AA?$AA@ 0000000140019a28     libucrt:lcidtoname_downlevel.obj
 0002:00004a38       ??_C@_1O@CLEPOGCA@?$AAs?$AAm?$AAj?$AA?9?$AAs?$AAe?$AA?$AA@ 0000000140019a38     libucrt:lcidtoname_downlevel.obj
 0002:00004a48       ??_C@_1O@DLGJGKMK@?$AAs?$AAm?$AAn?$AA?9?$AAf?$AAi?$AA?$AA@ 0000000140019a48     libucrt:lcidtoname_downlevel.obj
 0002:00004a58       ??_C@_1O@OJDJGAJC@?$AAs?$AAm?$AAs?$AA?9?$AAf?$AAi?$AA?$AA@ 0000000140019a58     libucrt:lcidtoname_downlevel.obj
 0002:00004a68       ??_C@_1M@BOFOGHPB@?$AAs?$AAq?$AA?9?$AAa?$AAl?$AA?$AA@ 0000000140019a68     libucrt:lcidtoname_downlevel.obj
 0002:00004a78       ??_C@_1BG@LJBBIPGB@?$AAs?$AAr?$AA?9?$AAb?$AAa?$AA?9?$AAc?$AAy?$AAr?$AAl?$AA?$AA@ 0000000140019a78     libucrt:lcidtoname_downlevel.obj
 0002:00004a90       ??_C@_1BG@JLBENFOE@?$AAs?$AAr?$AA?9?$AAb?$AAa?$AA?9?$AAl?$AAa?$AAt?$AAn?$AA?$AA@ 0000000140019a90     libucrt:lcidtoname_downlevel.obj
 0002:00004aa8       ??_C@_1BG@KODPNHE@?$AAs?$AAr?$AA?9?$AAs?$AAp?$AA?9?$AAc?$AAy?$AAr?$AAl?$AA?$AA@ 0000000140019aa8     libucrt:lcidtoname_downlevel.obj
 0002:00004ac0       ??_C@_1BG@CIOGKHPB@?$AAs?$AAr?$AA?9?$AAs?$AAp?$AA?9?$AAl?$AAa?$AAt?$AAn?$AA?$AA@ 0000000140019ac0     libucrt:lcidtoname_downlevel.obj
 0002:00004ad8       ??_C@_1M@NGFJLMAC@?$AAs?$AAv?$AA?9?$AAf?$AAi?$AA?$AA@ 0000000140019ad8     libucrt:lcidtoname_downlevel.obj
 0002:00004ae8       ??_C@_1M@MPJEJAJC@?$AAs?$AAv?$AA?9?$AAs?$AAe?$AA?$AA@ 0000000140019ae8     libucrt:lcidtoname_downlevel.obj
 0002:00004af8       ??_C@_1M@MPNDHLFK@?$AAs?$AAw?$AA?9?$AAk?$AAe?$AA?$AA@ 0000000140019af8     libucrt:lcidtoname_downlevel.obj
 0002:00004b08       ??_C@_1O@KOHBJJI@?$AAs?$AAy?$AAr?$AA?9?$AAs?$AAy?$AA?$AA@ 0000000140019b08     libucrt:lcidtoname_downlevel.obj
 0002:00004b18       ??_C@_1M@LDCEFHA@?$AAt?$AAa?$AA?9?$AAi?$AAn?$AA?$AA@ 0000000140019b18     libucrt:lcidtoname_downlevel.obj
 0002:00004b28       ??_C@_1M@CNJOFAK@?$AAt?$AAe?$AA?9?$AAi?$AAn?$AA?$AA@ 0000000140019b28     libucrt:lcidtoname_downlevel.obj
 0002:00004b38       ??_C@_1M@GNAECACD@?$AAt?$AAh?$AA?9?$AAt?$AAh?$AA?$AA@ 0000000140019b38     libucrt:lcidtoname_downlevel.obj
 0002:00004b48       ??_C@_1M@CHBIHOJO@?$AAt?$AAn?$AA?9?$AAz?$AAa?$AA?$AA@ 0000000140019b48     libucrt:lcidtoname_downlevel.obj
 0002:00004b58       ??_C@_1M@GCCMIGPJ@?$AAt?$AAr?$AA?9?$AAt?$AAr?$AA?$AA@ 0000000140019b58     libucrt:lcidtoname_downlevel.obj
 0002:00004b68       ??_C@_1M@CELMCNBK@?$AAt?$AAt?$AA?9?$AAr?$AAu?$AA?$AA@ 0000000140019b68     libucrt:lcidtoname_downlevel.obj
 0002:00004b78       ??_C@_1M@KLMCELGA@?$AAu?$AAk?$AA?9?$AAu?$AAa?$AA?$AA@ 0000000140019b78     libucrt:lcidtoname_downlevel.obj
 0002:00004b88       ??_C@_1M@EPAJJAJF@?$AAu?$AAr?$AA?9?$AAp?$AAk?$AA?$AA@ 0000000140019b88     libucrt:lcidtoname_downlevel.obj
 0002:00004b98       ??_C@_1BG@GEGPMCDJ@?$AAu?$AAz?$AA?9?$AAu?$AAz?$AA?9?$AAc?$AAy?$AAr?$AAl?$AA?$AA@ 0000000140019b98     libucrt:lcidtoname_downlevel.obj
 0002:00004bb0       ??_C@_1BG@EGGKJILM@?$AAu?$AAz?$AA?9?$AAu?$AAz?$AA?9?$AAl?$AAa?$AAt?$AAn?$AA?$AA@ 0000000140019bb0     libucrt:lcidtoname_downlevel.obj
 0002:00004bc8       ??_C@_1M@GFOCLFF@?$AAv?$AAi?$AA?9?$AAv?$AAn?$AA?$AA@ 0000000140019bc8     libucrt:lcidtoname_downlevel.obj
 0002:00004bd8       ??_C@_1M@CPAMEDFI@?$AAx?$AAh?$AA?9?$AAz?$AAa?$AA?$AA@ 0000000140019bd8     libucrt:lcidtoname_downlevel.obj
 0002:00004be8       ??_C@_1O@EBKIFIGN@?$AAz?$AAh?$AA?9?$AAc?$AAh?$AAs?$AA?$AA@ 0000000140019be8     libucrt:lcidtoname_downlevel.obj
 0002:00004bf8       ??_C@_1O@NMHPGANE@?$AAz?$AAh?$AA?9?$AAc?$AAh?$AAt?$AA?$AA@ 0000000140019bf8     libucrt:lcidtoname_downlevel.obj
 0002:00004c08       ??_C@_1M@LPINJOMC@?$AAz?$AAh?$AA?9?$AAc?$AAn?$AA?$AA@ 0000000140019c08     libucrt:lcidtoname_downlevel.obj
 0002:00004c18       ??_C@_1M@OCJEJODD@?$AAz?$AAh?$AA?9?$AAh?$AAk?$AA?$AA@ 0000000140019c18     libucrt:lcidtoname_downlevel.obj
 0002:00004c28       ??_C@_1M@DNDLJINH@?$AAz?$AAh?$AA?9?$AAm?$AAo?$AA?$AA@ 0000000140019c28     libucrt:lcidtoname_downlevel.obj
 0002:00004c38       ??_C@_1M@MBFDNDND@?$AAz?$AAh?$AA?9?$AAs?$AAg?$AA?$AA@ 0000000140019c38     libucrt:lcidtoname_downlevel.obj
 0002:00004c48       ??_C@_1M@IMEPLEPE@?$AAz?$AAh?$AA?9?$AAt?$AAw?$AA?$AA@ 0000000140019c48     libucrt:lcidtoname_downlevel.obj
 0002:00004c58       ??_C@_1M@BBGHNHJP@?$AAz?$AAu?$AA?9?$AAz?$AAa?$AA?$AA@ 0000000140019c58     libucrt:lcidtoname_downlevel.obj
 0002:00005ab0       ??_C@_15EMKDOKLE@?$AAa?$AAr?$AA?$AA@ 000000014001aab0     libucrt:lcidtoname_downlevel.obj
 0002:00005ab8       ??_C@_15KNPADPLH@?$AAb?$AAg?$AA?$AA@ 000000014001aab8     libucrt:lcidtoname_downlevel.obj
 0002:00005ac0       ??_C@_15EDMHLDMO@?$AAc?$AAa?$AA?$AA@ 000000014001aac0     libucrt:lcidtoname_downlevel.obj
 0002:00005ac8       ??_C@_1O@BPEAJADD@?$AAz?$AAh?$AA?9?$AAC?$AAH?$AAS?$AA?$AA@ 000000014001aac8     libucrt:lcidtoname_downlevel.obj
 0002:00005ad8       ??_C@_15LJNHCMNK@?$AAc?$AAs?$AA?$AA@ 000000014001aad8     libucrt:lcidtoname_downlevel.obj
 0002:00005ae0       ??_C@_15FOMCIDHG@?$AAd?$AAa?$AA?$AA@ 000000014001aae0     libucrt:lcidtoname_downlevel.obj
 0002:00005ae8       ??_C@_15NBKABECB@?$AAd?$AAe?$AA?$AA@ 000000014001aae8     libucrt:lcidtoname_downlevel.obj
 0002:00005af0       ??_C@_15GHPEIIAO@?$AAe?$AAl?$AA?$AA@ 000000014001aaf0     libucrt:lcidtoname_downlevel.obj
 0002:00005af8       ??_C@_15MNPNEAIF@?$AAe?$AAn?$AA?$AA@ 000000014001aaf8     libucrt:lcidtoname_downlevel.obj
 0002:00005b00       ??_C@_15GPIOMPMH@?$AAe?$AAs?$AA?$AA@ 000000014001ab00     libucrt:lcidtoname_downlevel.obj
 0002:00005b08       ??_C@_15NGLOAKJC@?$AAf?$AAi?$AA?$AA@ 000000014001ab08     libucrt:lcidtoname_downlevel.obj
 0002:00005b10       ??_C@_15FBKGNKAM@?$AAf?$AAr?$AA?$AA@ 000000014001ab10     libucrt:lcidtoname_downlevel.obj
 0002:00005b18       ??_C@_15KGGCNEFK@?$AAh?$AAe?$AA?$AA@ 000000014001ab18     libucrt:lcidtoname_downlevel.obj
 0002:00005b20       ??_C@_15PGHLIDMF@?$AAh?$AAu?$AA?$AA@ 000000014001ab20     libucrt:lcidtoname_downlevel.obj
 0002:00005b28       ??_C@_15BIEMAPLM@?$AAi?$AAs?$AA?$AA@ 000000014001ab28     libucrt:lcidtoname_downlevel.obj
 0002:00005b30       ??_C@_15IFJLDHAF@?$AAi?$AAt?$AA?$AA@ 000000014001ab30     libucrt:lcidtoname_downlevel.obj
 0002:00005b38       ??_C@_15GEMIOCAG@?$AAj?$AAa?$AA?$AA@ 000000014001ab38     libucrt:lcidtoname_downlevel.obj
 0002:00005b40       ??_C@_15EPELEGJA@?$AAk?$AAo?$AA?$AA@ 000000014001ab40     libucrt:lcidtoname_downlevel.obj
 0002:00005b48       ??_C@_15NDDHIMN@?$AAn?$AAl?$AA?$AA@ 000000014001ab48     libucrt:lcidtoname_downlevel.obj
 0002:00005b50       ??_C@_15BPIGNHCD@?$AAn?$AAo?$AA?$AA@ 000000014001ab50     libucrt:lcidtoname_downlevel.obj
 0002:00005b58       ??_C@_15DEOPBLCG@?$AAp?$AAl?$AA?$AA@ 000000014001ab58     libucrt:lcidtoname_downlevel.obj
 0002:00005b60       ??_C@_15KBECGEFG@?$AAp?$AAt?$AA?$AA@ 000000014001ab60     libucrt:lcidtoname_downlevel.obj
 0002:00005b68       ??_C@_15GLJCBFMD@?$AAr?$AAo?$AA?$AA@ 000000014001ab68     libucrt:lcidtoname_downlevel.obj
 0002:00005b70       ??_C@_15FEDGKCDI@?$AAr?$AAu?$AA?$AA@ 000000014001ab70     libucrt:lcidtoname_downlevel.obj
 0002:00005b78       ??_C@_15GLKMLLHM@?$AAh?$AAr?$AA?$AA@ 000000014001ab78     libucrt:lcidtoname_downlevel.obj
 0002:00005b80       ??_C@_15CPKMFBDB@?$AAs?$AAk?$AA?$AA@ 000000014001ab80     libucrt:lcidtoname_downlevel.obj
 0002:00005b88       ??_C@_15BAAIOGMK@?$AAs?$AAq?$AA?$AA@ 000000014001ab88     libucrt:lcidtoname_downlevel.obj
 0002:00005b90       ??_C@_15INNPNOHD@?$AAs?$AAv?$AA?$AA@ 000000014001ab90     libucrt:lcidtoname_downlevel.obj
 0002:00005b98       ??_C@_15CABMMOGH@?$AAt?$AAh?$AA?$AA@ 000000014001ab98     libucrt:lcidtoname_downlevel.obj
 0002:00005ba0       ??_C@_15BPLIHJJM@?$AAt?$AAr?$AA?$AA@ 000000014001aba0     libucrt:lcidtoname_downlevel.obj
 0002:00005ba8       ??_C@_15NEOEKKDJ@?$AAu?$AAr?$AA?$AA@ 000000014001aba8     libucrt:lcidtoname_downlevel.obj
 0002:00005bb0       ??_C@_15NFICGAJK@?$AAi?$AAd?$AA?$AA@ 000000014001abb0     libucrt:lcidtoname_downlevel.obj
 0002:00005bb8       ??_C@_15HPJPHDM@?$AAb?$AAe?$AA?$AA@ 000000014001abb8     libucrt:lcidtoname_downlevel.obj
 0002:00005bc0       ??_C@_15LCHLGJII@?$AAs?$AAl?$AA?$AA@ 000000014001abc0     libucrt:lcidtoname_downlevel.obj
 0002:00005bc8       ??_C@_15PCFJPHHO@?$AAe?$AAt?$AA?$AA@ 000000014001abc8     libucrt:lcidtoname_downlevel.obj
 0002:00005bd0       ??_C@_15HPFPGODN@?$AAl?$AAv?$AA?$AA@ 000000014001abd0     libucrt:lcidtoname_downlevel.obj
 0002:00005bd8       ??_C@_15NFFGKGLG@?$AAl?$AAt?$AA?$AA@ 000000014001abd8     libucrt:lcidtoname_downlevel.obj
 0002:00005be0       ??_C@_15BDAKCCHN@?$AAf?$AAa?$AA?$AA@ 000000014001abe0     libucrt:lcidtoname_downlevel.obj
 0002:00005be8       ??_C@_15NFGIAIAJ@?$AAv?$AAi?$AA?$AA@ 000000014001abe8     libucrt:lcidtoname_downlevel.obj
 0002:00005bf0       ??_C@_15LMKNDMHN@?$AAh?$AAy?$AA?$AA@ 000000014001abf0     libucrt:lcidtoname_downlevel.obj
 0002:00005bf8       ??_C@_15IJBHMCFL@?$AAa?$AAz?$AA?$AA@ 000000014001abf8     libucrt:lcidtoname_downlevel.obj
 0002:00005c00       ??_C@_15EKOFJABL@?$AAe?$AAu?$AA?$AA@ 000000014001ac00     libucrt:lcidtoname_downlevel.obj
 0002:00005c08       ??_C@_15BGHADCNK@?$AAm?$AAk?$AA?$AA@ 000000014001ac08     libucrt:lcidtoname_downlevel.obj
 0002:00005c10       ??_C@_15JDNICKHM@?$AAa?$AAf?$AA?$AA@ 000000014001ac10     libucrt:lcidtoname_downlevel.obj
 0002:00005c18       ??_C@_15KPJEDBKD@?$AAk?$AAa?$AA?$AA@ 000000014001ac18     libucrt:lcidtoname_downlevel.obj
 0002:00005c20       ??_C@_15PDNFFFEO@?$AAf?$AAo?$AA?$AA@ 000000014001ac20     libucrt:lcidtoname_downlevel.obj
 0002:00005c28       ??_C@_15OMLEGLOC@?$AAh?$AAi?$AA?$AA@ 000000014001ac28     libucrt:lcidtoname_downlevel.obj
 0002:00005c30       ??_C@_15IDNNENKK@?$AAm?$AAs?$AA?$AA@ 000000014001ac30     libucrt:lcidtoname_downlevel.obj
 0002:00005c38       ??_C@_15MACJNBMH@?$AAk?$AAk?$AA?$AA@ 000000014001ac38     libucrt:lcidtoname_downlevel.obj
 0002:00005c40       ??_C@_15DKDJEOND@?$AAk?$AAy?$AA?$AA@ 000000014001ac40     libucrt:lcidtoname_downlevel.obj
 0002:00005c48       ??_C@_15DFGDLJBG@?$AAs?$AAw?$AA?$AA@ 000000014001ac48     libucrt:lcidtoname_downlevel.obj
 0002:00005c50       ??_C@_15BBFAICNG@?$AAu?$AAz?$AA?$AA@ 000000014001ac50     libucrt:lcidtoname_downlevel.obj
 0002:00005c58       ??_C@_15DKNDCGEA@?$AAt?$AAt?$AA?$AA@ 000000014001ac58     libucrt:lcidtoname_downlevel.obj
 0002:00005c60       ??_C@_15MGIFMDPL@?$AAp?$AAa?$AA?$AA@ 000000014001ac60     libucrt:lcidtoname_downlevel.obj
 0002:00005c68       ??_C@_15HCNDBBA@?$AAg?$AAu?$AA?$AA@ 000000014001ac68     libucrt:lcidtoname_downlevel.obj
 0002:00005c70       ??_C@_15FNBEIBON@?$AAt?$AAa?$AA?$AA@ 000000014001ac70     libucrt:lcidtoname_downlevel.obj
 0002:00005c78       ??_C@_15NCHGBGLK@?$AAt?$AAe?$AA?$AA@ 000000014001ac78     libucrt:lcidtoname_downlevel.obj
 0002:00005c80       ??_C@_15PHPHCBPF@?$AAk?$AAn?$AA?$AA@ 000000014001ac80     libucrt:lcidtoname_downlevel.obj
 0002:00005c88       ??_C@_15DLGBCKMP@?$AAm?$AAr?$AA?$AA@ 000000014001ac88     libucrt:lcidtoname_downlevel.obj
 0002:00005c90       ??_C@_15EABBLBFF@?$AAs?$AAa?$AA?$AA@ 000000014001ac90     libucrt:lcidtoname_downlevel.obj
 0002:00005c98       ??_C@_15CBKOMCOI@?$AAm?$AAn?$AA?$AA@ 000000014001ac98     libucrt:lcidtoname_downlevel.obj
 0002:00005ca0       ??_C@_15CKDMCJAF@?$AAg?$AAl?$AA?$AA@ 000000014001aca0     libucrt:lcidtoname_downlevel.obj
 0002:00005ca8       ??_C@_17CNJFBPG@?$AAk?$AAo?$AAk?$AA?$AA@ 000000014001aca8     libucrt:lcidtoname_downlevel.obj
 0002:00005cb0       ??_C@_17FFBJICPL@?$AAs?$AAy?$AAr?$AA?$AA@ 000000014001acb0     libucrt:lcidtoname_downlevel.obj
 0002:00005cb8       ??_C@_17KPNDCPAF@?$AAd?$AAi?$AAv?$AA?$AA@ 000000014001acb8     libucrt:lcidtoname_downlevel.obj
 0002:00005cc0       ??_C@_11LOCGONAA@?$AA?$AA@ 000000014001acc0     libucrt:lcidtoname_downlevel.obj
 0002:00005cc8       ??_C@_1M@OKAHONE@?$AAa?$AAr?$AA?9?$AAS?$AAA?$AA?$AA@ 000000014001acc8     libucrt:lcidtoname_downlevel.obj
 0002:00005cd8       ??_C@_1M@FFFIGIGK@?$AAb?$AAg?$AA?9?$AAB?$AAG?$AA?$AA@ 000000014001acd8     libucrt:lcidtoname_downlevel.obj
 0002:00005cf0       ?large_power_data@?1??multiply_by_power_of_ten@__crt_strtox@@YA_NAEAUbig_integer@2@I@Z@4QBIB 000000014001acf0     libucrt:cfout.obj
 0002:00006600       ?large_power_indices@?1??multiply_by_power_of_ten@__crt_strtox@@YA_NAEAUbig_integer@2@I@Z@4QBUunpack_index@?1??12@YA_N0I@Z@B 000000014001b600     libucrt:cfout.obj
 0002:00006698       ?small_powers_of_ten@?1??multiply_by_power_of_ten@__crt_strtox@@YA_NAEAUbig_integer@2@I@Z@4QBIB 000000014001b698     libucrt:cfout.obj
 0002:000066bc       ??_C@_01GBGANLPD@0?$AA@    000000014001b6bc     libucrt:cfout.obj
 0002:000066c0       ??_C@_05DNEBIAHO@1?$CDINF?$AA@ 000000014001b6c0     libucrt:cfout.obj
 0002:000066c8       ??_C@_06IMKFLFPG@1?$CDQNAN?$AA@ 000000014001b6c8     libucrt:cfout.obj
 0002:000066d0       ??_C@_06PGGFOGJG@1?$CDSNAN?$AA@ 000000014001b6d0     libucrt:cfout.obj
 0002:000066d8       ??_C@_05PHHOCPM@1?$CDIND?$AA@ 000000014001b6d8     libucrt:cfout.obj
 0002:000066e0       __real@3ff0000000000000    000000014001b6e0     libucrt:ceil.obj
 0002:00006940       ??_C@_1BA@BALFACEM@?$AAC?$AAO?$AAN?$AAO?$AAU?$AAT?$AA$?$AA?$AA@ 000000014001b940     libucrt:initcon.obj
 0002:00006950       __log10_256_lead           000000014001b950     libucrt:log10_256_lead_tail_table.obj
 0002:00007160       __log10_256_tail           000000014001c160     libucrt:log10_256_lead_tail_table.obj
 0002:00007970       __log_F_inv_qword          000000014001c970     libucrt:log_f_inv_qword_table.obj
 0002:00008180       ??_C@_05HGHHAHAP@log10?$AA@ 000000014001d180     libucrt:log_special.obj
 0002:000081a0       ??_C@_0M@HFFOIJBL@Fatal?5Error?$AA@ 000000014001d1a0     SDL2main:SDL_windows_main.obj
 0002:000081b0       ??_C@_0BJ@HFNMHALN@Out?5of?5memory?5?9?5aborting?$AA@ 000000014001d1b0     SDL2main:SDL_windows_main.obj
 0002:000081cc       ??_C@_05EGJIMALK@UTF?98?$AA@ 000000014001d1cc     SDL2main:SDL_windows_main.obj
 0002:000081d8       ??_C@_08NBDJLNFA@UTF?916LE?$AA@ 000000014001d1d8     SDL2main:SDL_windows_main.obj
 0002:00008250       _load_config_used          000000014001d250     LIBCMT:loadcfg.obj
 0002:00008350       ??_R4exception@std@@6B@    000000014001d350     libcpmt:xthrow.obj
 0002:00008378       ??_R3exception@std@@8      000000014001d378     libcpmt:xthrow.obj
 0002:00008390       ??_R2exception@std@@8      000000014001d390     libcpmt:xthrow.obj
 0002:000083a0       ??_R1A@?0A@EA@exception@std@@8 000000014001d3a0     libcpmt:xthrow.obj
 0002:000083c8       ??_R4bad_alloc@std@@6B@    000000014001d3c8     libcpmt:xthrow.obj
 0002:000083f0       ??_R3bad_alloc@std@@8      000000014001d3f0     libcpmt:xthrow.obj
 0002:00008408       ??_R2bad_alloc@std@@8      000000014001d408     libcpmt:xthrow.obj
 0002:00008420       ??_R1A@?0A@EA@bad_alloc@std@@8 000000014001d420     libcpmt:xthrow.obj
 0002:00008448       ??_R4logic_error@std@@6B@  000000014001d448     libcpmt:xthrow.obj
 0002:00008470       ??_R3logic_error@std@@8    000000014001d470     libcpmt:xthrow.obj
 0002:00008488       ??_R2logic_error@std@@8    000000014001d488     libcpmt:xthrow.obj
 0002:000084a0       ??_R1A@?0A@EA@logic_error@std@@8 000000014001d4a0     libcpmt:xthrow.obj
 0002:000084c8       ??_R4length_error@std@@6B@ 000000014001d4c8     libcpmt:xthrow.obj
 0002:000084f0       ??_R3length_error@std@@8   000000014001d4f0     libcpmt:xthrow.obj
 0002:00008508       ??_R2length_error@std@@8   000000014001d508     libcpmt:xthrow.obj
 0002:00008528       ??_R1A@?0A@EA@length_error@std@@8 000000014001d528     libcpmt:xthrow.obj
 0002:00008550       ??_R4type_info@@6B@        000000014001d550     LIBCMT:std_type_info_static.obj
 0002:00008578       ??_R3type_info@@8          000000014001d578     LIBCMT:std_type_info_static.obj
 0002:00008590       ??_R2type_info@@8          000000014001d590     LIBCMT:std_type_info_static.obj
 0002:000085a0       ??_R1A@?0A@EA@type_info@@8 000000014001d5a0     LIBCMT:std_type_info_static.obj
 0002:000085c8       ??_R4bad_array_new_length@std@@6B@ 000000014001d5c8     LIBCMT:throw_bad_alloc.obj
 0002:000085f0       ??_R3bad_array_new_length@std@@8 000000014001d5f0     LIBCMT:throw_bad_alloc.obj
 0002:00008608       ??_R2bad_array_new_length@std@@8 000000014001d608     LIBCMT:throw_bad_alloc.obj
 0002:00008628       ??_R1A@?0A@EA@bad_array_new_length@std@@8 000000014001d628     LIBCMT:throw_bad_alloc.obj
 0002:00008650       ??_R4bad_exception@std@@6B@ 000000014001d650     libvcruntime:frame.obj
 0002:00008678       ??_R3bad_exception@std@@8  000000014001d678     libvcruntime:frame.obj
 0002:00008690       ??_R2bad_exception@std@@8  000000014001d690     libvcruntime:frame.obj
 0002:000086a8       ??_R1A@?0A@EA@bad_exception@std@@8 000000014001d6a8     libvcruntime:frame.obj
 0002:00008a18       __rtc_iaa                  000000014001da18     LIBCMT:_initsect_.obj
 0002:00008a20       __rtc_izz                  000000014001da20     LIBCMT:_initsect_.obj
 0002:00008a28       __rtc_taa                  000000014001da28     LIBCMT:_initsect_.obj
 0002:00008a30       __rtc_tzz                  000000014001da30     LIBCMT:_initsect_.obj
 0002:00009ad8       _TI2?AVbad_alloc@std@@     000000014001ead8     libcpmt:xthrow.obj
 0002:00009af8       _CTA2?AVbad_alloc@std@@    000000014001eaf8     libcpmt:xthrow.obj
 0002:00009b10       _CT??_R0?AVbad_alloc@std@@@8??0bad_alloc@std@@QEAA@AEBV01@@Z24 000000014001eb10     libcpmt:xthrow.obj
 0002:00009b38       _CT??_R0?AVexception@std@@@8??0exception@std@@QEAA@AEBV01@@Z24 000000014001eb38     libcpmt:xthrow.obj
 0002:00009b60       _CT??_R0?AVlogic_error@std@@@8??0logic_error@std@@QEAA@AEBV01@@Z24 000000014001eb60     libcpmt:xthrow.obj
 0002:00009b88       _TI3?AVlength_error@std@@  000000014001eb88     libcpmt:xthrow.obj
 0002:00009ba8       _CTA3?AVlength_error@std@@ 000000014001eba8     libcpmt:xthrow.obj
 0002:00009bc8       _CT??_R0?AVlength_error@std@@@8??0length_error@std@@QEAA@AEBV01@@Z24 000000014001ebc8     libcpmt:xthrow.obj
 0002:00009bf0       _TI3?AVbad_array_new_length@std@@ 000000014001ebf0     LIBCMT:throw_bad_alloc.obj
 0002:00009c10       _CTA3?AVbad_array_new_length@std@@ 000000014001ec10     LIBCMT:throw_bad_alloc.obj
 0002:00009c30       _CT??_R0?AVbad_array_new_length@std@@@8??0bad_array_new_length@std@@QEAA@AEBV01@@Z24 000000014001ec30     LIBCMT:throw_bad_alloc.obj
 0002:00009c58       _TI2?AVbad_exception@std@@ 000000014001ec58     libvcruntime:frame.obj
 0002:00009c78       _CTA2?AVbad_exception@std@@ 000000014001ec78     libvcruntime:frame.obj
 0002:00009c90       _CT??_R0?AVbad_exception@std@@@8??0bad_exception@std@@QEAA@AEBV01@@Z24 000000014001ec90     libvcruntime:frame.obj
 0002:00009cb4       __IMPORT_DESCRIPTOR_SDL2   000000014001ecb4     SDL2:SDL2.dll
 0002:00009cc8       __IMPORT_DESCRIPTOR_SDL2_image 000000014001ecc8     SDL2_image:SDL2_image.dll
 0002:00009cdc       __IMPORT_DESCRIPTOR_KERNEL32 000000014001ecdc     kernel32:KERNEL32.dll
 0002:00009cf0       __NULL_IMPORT_DESCRIPTOR   000000014001ecf0     SDL2:SDL2.dll
 0003:00000000       __scrt_native_dllmain_reason 0000000140020000     LIBCMT:utility.obj
 0003:00000010       __security_cookie          0000000140020010     LIBCMT:gs_cookie.obj
 0003:00000018       __security_cookie_complement 0000000140020018     LIBCMT:gs_cookie.obj
 0003:00000020       __isa_available            0000000140020020     LIBCMT:_cpu_disp_.obj
 0003:00000024       __isa_enabled              0000000140020024     LIBCMT:_cpu_disp_.obj
 0003:00000028       __memcpy_nt_iters          0000000140020028     LIBCMT:_cpu_disp_.obj
 0003:00000030       __scrt_default_matherr     0000000140020030     LIBCMT:matherr.obj
 0003:00000050       _iob                       0000000140020050     libucrt:_file.obj
 0003:00000158       __abort_behavior           0000000140020158     libucrt:abort.obj
 0003:00000170       __badioinfo                0000000140020170     libucrt:ioinit.obj
 0003:000001b0       __acrt_initial_locale_data 00000001400201b0     libucrt:nlsdata.obj
 0003:00000308       __acrt_initial_locale_pointers 0000000140020308     libucrt:nlsdata.obj
 0003:00000318       __acrt_wide_c_locale_string 0000000140020318     libucrt:nlsdata.obj
 0003:00000320       __acrt_initial_multibyte_data 0000000140020320     libucrt:mbctype.obj
 0003:00000860       __acrt_lconv_c             0000000140020860     libucrt:localeconv.obj
 0003:000008f8       __acrt_lconv_static_decimal 00000001400208f8     libucrt:localeconv.obj
 0003:000008fc       __acrt_lconv_static_W_decimal 00000001400208fc     libucrt:localeconv.obj
 0003:00000900       __globallocalestatus       0000000140020900     libucrt:glstatus.obj
 0003:00000930       _fltused                   0000000140020930     LIBCMT:fltused.obj
 0003:00000940       ??_R0?AVbad_alloc@std@@@8  0000000140020940     libcpmt:xthrow.obj
 0003:00000968       ??_R0?AVexception@std@@@8  0000000140020968     libcpmt:xthrow.obj
 0003:00000990       ??_R0?AVlogic_error@std@@@8 0000000140020990     libcpmt:xthrow.obj
 0003:000009b8       ??_R0?AVlength_error@std@@@8 00000001400209b8     libcpmt:xthrow.obj
 0003:000009e0       ??_R0?AVtype_info@@@8      00000001400209e0     LIBCMT:std_type_info_static.obj
 0003:00000a00       ??_R0?AVbad_array_new_length@std@@@8 0000000140020a00     LIBCMT:throw_bad_alloc.obj
 0003:00000a30       ??_R0?AVbad_exception@std@@@8 0000000140020a30     libvcruntime:frame.obj
 0003:00000a60       ?screen@@3PEAUSDL_Window@@EA 0000000140020a60     main.obj
 0003:00000a68       ?sdlRenderer@@3PEAUSDL_Renderer@@EA 0000000140020a68     main.obj
 0003:00000a70       ?gSpriteClips@@3PAUSDL_Rect@@A 0000000140020a70     main.obj
 0003:00000ab0       ?gBackgroundTexture@@3VLTexture@@A 0000000140020ab0     main.obj
 0003:00000ac0       ?gTexture@@3VLTexture@@A   0000000140020ac0     main.obj
 0003:00000ad0       ?_OptionsStorage@?1??__local_stdio_printf_options@@9@4_KA 0000000140020ad0     main.obj
 0003:00000b0c       __scrt_current_native_startup_state 0000000140020b0c     LIBCMT:utility.obj
 0003:00000b10       __scrt_native_startup_lock 0000000140020b10     LIBCMT:utility.obj
 0003:00000b1c       __favor                    0000000140020b1c     LIBCMT:_cpu_disp_.obj
 0003:00000b20       __scrt_debugger_hook_flag  0000000140020b20     LIBCMT:utility_desktop.obj
 0003:000010a0       ?__type_info_root_node@@3U__type_info_node@@A 00000001400210a0     LIBCMT:tncleanup.obj
 0003:000010b0       ?_OptionsStorage@?1??__local_stdio_scanf_options@@9@4_KA 00000001400210b0     LIBCMT:default_local_stdio_options.obj
 0003:000011a8       __pPurecall                00000001400211a8     libvcruntime:purevirt_data.obj
 0003:000011b0       ?pArgList@UnDecorator@@0PEAVReplicator@@EA 00000001400211b0     libvcruntime:undname.obj
 0003:000011b8       ?pZNameList@UnDecorator@@0PEAVReplicator@@EA 00000001400211b8     libvcruntime:undname.obj
 0003:000011c0       ?pTemplateArgList@UnDecorator@@0PEAVReplicator@@EA 00000001400211c0     libvcruntime:undname.obj
 0003:000011c8       ?gName@UnDecorator@@0PEBDEB 00000001400211c8     libvcruntime:undname.obj
 0003:000011d0       ?name@UnDecorator@@0PEBDEB 00000001400211d0     libvcruntime:undname.obj
 0003:000011d8       ?disableFlags@UnDecorator@@0KA 00000001400211d8     libvcruntime:undname.obj
 0003:000011dc       ?fExplicitTemplateParams@UnDecorator@@0_NA 00000001400211dc     libvcruntime:undname.obj
 0003:000011dd       ?fGetTemplateArgumentList@UnDecorator@@0_NA 00000001400211dd     libvcruntime:undname.obj
 0003:000011e0       ?m_pGetParameter@UnDecorator@@0P6APEADJ@ZEA 00000001400211e0     libvcruntime:undname.obj
 0003:000011e8       ?m_CHPENameOffset@UnDecorator@@0KA 00000001400211e8     libvcruntime:undname.obj
 0003:000011ec       ?m_recursionLevel@UnDecorator@@0KA 00000001400211ec     libvcruntime:undname.obj
 0003:00001218       ?__WinRTOutOfMemoryExceptionCallback@@3P6APEAXXZEA 0000000140021218     libvcruntime:ehhelpers.obj
 0003:00001228       _nstream                   0000000140021228     libucrt:_file.obj
 0003:00001230       __piob                     0000000140021230     libucrt:_file.obj
 0003:00001238       _cflush                    0000000140021238     libucrt:_file.obj
 0003:00001258       ?c_exit_complete@?1???R<lambda_6e4b09c48022b2350581041d5f6b0c4c>@@QEBA@XZ@4_NA 0000000140021258     libucrt:exit.obj
 0003:00001368       _environ_table             0000000140021368     libucrt:environment_initialization.obj
 0003:00001370       _wenviron_table            0000000140021370     libucrt:environment_initialization.obj
 0003:00001378       __dcrt_initial_wide_environment 0000000140021378     libucrt:environment_initialization.obj
 0003:00001380       __dcrt_initial_narrow_environment 0000000140021380     libucrt:environment_initialization.obj
 0003:00001388       __acrt_atexit_table        0000000140021388     libucrt:onexit.obj
 0003:000013a0       __acrt_at_quick_exit_table 00000001400213a0     libucrt:onexit.obj
 0003:000013c8       __argc                     00000001400213c8     libucrt:argv_data.obj
 0003:000013d0       __argv                     00000001400213d0     libucrt:argv_data.obj
 0003:000013d8       __wargv                    00000001400213d8     libucrt:argv_data.obj
 0003:000013e0       _acmdln                    00000001400213e0     libucrt:argv_data.obj
 0003:000013e8       _wcmdln                    00000001400213e8     libucrt:argv_data.obj
 0003:000013f0       _pgmptr                    00000001400213f0     libucrt:argv_data.obj
 0003:000013f8       __acrt_locale_changed_data 00000001400213f8     libucrt:wsetlocale.obj
 0003:00001400       _commode                   0000000140021400     libucrt:ncommode.obj
 0003:000015c0       __pioinfo                  00000001400215c0     libucrt:ioinit.obj
 0003:000019c0       _nhandle                   00000001400219c0     libucrt:ioinit.obj
 0003:000019d0       __acrt_stdout_buffer       00000001400219d0     libucrt:_sftbuf.obj
 0003:000019d8       __acrt_stderr_buffer       00000001400219d8     libucrt:_sftbuf.obj
 0003:000019e0       __acrt_current_locale_data 00000001400219e0     libucrt:nlsdata.obj
 0003:00001c28       __acrt_current_multibyte_data 0000000140021c28     libucrt:mbctype.obj
 0003:00001c30       _mbctype                   0000000140021c30     libucrt:mbctype.obj
 0003:00001c38       _mbcasemap                 0000000140021c38     libucrt:mbctype.obj
 0003:00001c48       __acrt_heap                0000000140021c48     libucrt:heap_handle.obj
 0003:00001c70       _fmode                     0000000140021c70     libucrt:txtmode.obj
 0003:00001c74       __acrt_lconv_static_null   0000000140021c74     libucrt:localeconv.obj
 0003:00001c78       __acrt_lconv_static_W_null 0000000140021c78     libucrt:localeconv.obj
 0003:00001c7c       __fma3_is_available        0000000140021c7c     libucrt:fma3_available.obj
 0003:00001c80       __use_fma3_lib             0000000140021c80     libucrt:fma3_available.obj
 0003:00001c88       __dyn_tls_dtor_callback    0000000140021c88     <common>
 0003:00001c90       __dyn_tls_init_callback    0000000140021c90     <common>
 0003:00001c98       __scrt_ucrt_dll_is_in_use  0000000140021c98     <common>

 entry point at        0001:0000210c

 Static symbols

 0000:fffdb000       .debug$S                   0000000140000000     SDL2:SDL2.dll
 0000:fffdb000       .debug$S                   0000000140000000     SDL2:SDL2.dll
 0000:fffdb000       .debug$S                   0000000140000000     SDL2:SDL2.dll
 0000:fffdb000       .debug$S                   0000000140000000     SDL2:SDL2.dll
 0000:fffdb000       .debug$S                   0000000140000000     SDL2:SDL2.dll
 0000:fffdb000       .debug$S                   0000000140000000     SDL2:SDL2.dll
 0000:fffdb000       .debug$S                   0000000140000000     kernel32:KERNEL32.dll
 0000:fffdb000       .debug$S                   0000000140000000     kernel32:KERNEL32.dll
 0000:fffdb000       .debug$S                   0000000140000000     kernel32:KERNEL32.dll
 0000:fffdb000       .debug$S                   0000000140000000     kernel32:KERNEL32.dll
 0000:fffdb000       .debug$S                   0000000140000000     kernel32:KERNEL32.dll
 0000:fffdb000       .debug$S                   0000000140000000     kernel32:KERNEL32.dll
 0000:fffdb000       .debug$S                   0000000140000000     kernel32:KERNEL32.dll
 0000:fffdb000       .debug$S                   0000000140000000     kernel32:KERNEL32.dll
 0000:fffdb000       .debug$S                   0000000140000000     kernel32:KERNEL32.dll
 0000:fffdb000       .debug$S                   0000000140000000     kernel32:KERNEL32.dll
 0000:fffdb000       .debug$S                   0000000140000000     kernel32:KERNEL32.dll
 0000:fffdb000       .debug$S                   0000000140000000     kernel32:KERNEL32.dll
 0000:fffdb000       .debug$S                   0000000140000000     kernel32:KERNEL32.dll
 0000:fffdb000       .debug$S                   0000000140000000     kernel32:KERNEL32.dll
 0000:fffdb000       .debug$S                   0000000140000000     kernel32:KERNEL32.dll
 0000:fffdb000       .debug$S                   0000000140000000     kernel32:KERNEL32.dll
 0000:fffdb000       .debug$S                   0000000140000000     kernel32:KERNEL32.dll
 0000:fffdb000       .debug$S                   0000000140000000     kernel32:KERNEL32.dll
 0000:fffdb000       .debug$S                   0000000140000000     kernel32:KERNEL32.dll
 0000:fffdb000       .debug$S                   0000000140000000     kernel32:KERNEL32.dll
 0000:fffdb000       .debug$S                   0000000140000000     kernel32:KERNEL32.dll
 0000:fffdb000       .debug$S                   0000000140000000     kernel32:KERNEL32.dll
 0000:fffdb000       .debug$S                   0000000140000000     kernel32:KERNEL32.dll
 0000:fffdb000       .debug$S                   0000000140000000     kernel32:KERNEL32.dll
 0000:fffdb000       .debug$S                   0000000140000000     kernel32:KERNEL32.dll
 0000:fffdb000       .debug$S                   0000000140000000     kernel32:KERNEL32.dll
 0000:fffdb000       .debug$S                   0000000140000000     kernel32:KERNEL32.dll
 0000:fffdb000       .debug$S                   0000000140000000     kernel32:KERNEL32.dll
 0000:fffdb000       .debug$S                   0000000140000000     kernel32:KERNEL32.dll
 0000:fffdb000       .debug$S                   0000000140000000     kernel32:KERNEL32.dll
 0000:fffdb000       .debug$S                   0000000140000000     kernel32:KERNEL32.dll
 0000:fffdb000       .debug$S                   0000000140000000     kernel32:KERNEL32.dll
 0000:fffdb000       .debug$S                   0000000140000000     kernel32:KERNEL32.dll
 0000:fffdb000       .debug$S                   0000000140000000     kernel32:KERNEL32.dll
 0000:fffdb000       .debug$S                   0000000140000000     kernel32:KERNEL32.dll
 0000:fffdb000       .debug$S                   0000000140000000     kernel32:KERNEL32.dll
 0000:fffdb000       .debug$S                   0000000140000000     kernel32:KERNEL32.dll
 0000:fffdb000       .debug$S                   0000000140000000     kernel32:KERNEL32.dll
 0000:fffdb000       .debug$S                   0000000140000000     kernel32:KERNEL32.dll
 0000:fffdb000       .debug$S                   0000000140000000     kernel32:KERNEL32.dll
 0000:fffdb000       .debug$S                   0000000140000000     kernel32:KERNEL32.dll
 0000:fffdb000       .debug$S                   0000000140000000     kernel32:KERNEL32.dll
 0000:fffdb000       .debug$S                   0000000140000000     kernel32:KERNEL32.dll
 0000:fffdb000       .debug$S                   0000000140000000     kernel32:KERNEL32.dll
 0000:fffdb000       .debug$S                   0000000140000000     kernel32:KERNEL32.dll
 0000:fffdb000       .debug$S                   0000000140000000     kernel32:KERNEL32.dll
 0000:fffdb000       .debug$S                   0000000140000000     kernel32:KERNEL32.dll
 0000:fffdb000       .debug$S                   0000000140000000     kernel32:KERNEL32.dll
 0000:fffdb000       .debug$S                   0000000140000000     kernel32:KERNEL32.dll
 0000:fffdb000       .debug$S                   0000000140000000     kernel32:KERNEL32.dll
 0000:fffdb000       .debug$S                   0000000140000000     kernel32:KERNEL32.dll
 0000:fffdb000       .debug$S                   0000000140000000     kernel32:KERNEL32.dll
 0000:fffdb000       .debug$S                   0000000140000000     kernel32:KERNEL32.dll
 0000:fffdb000       .debug$S                   0000000140000000     kernel32:KERNEL32.dll
 0000:fffdb000       .debug$S                   0000000140000000     kernel32:KERNEL32.dll
 0000:fffdb000       .debug$S                   0000000140000000     kernel32:KERNEL32.dll
 0000:fffdb000       .debug$S                   0000000140000000     kernel32:KERNEL32.dll
 0000:fffdb000       .debug$S                   0000000140000000     kernel32:KERNEL32.dll
 0000:fffdb000       .debug$S                   0000000140000000     kernel32:KERNEL32.dll
 0000:fffdb000       .debug$S                   0000000140000000     kernel32:KERNEL32.dll
 0000:fffdb000       .debug$S                   0000000140000000     kernel32:KERNEL32.dll
 0000:fffdb000       .debug$S                   0000000140000000     kernel32:KERNEL32.dll
 0000:fffdb000       .debug$S                   0000000140000000     kernel32:KERNEL32.dll
 0000:fffdb000       .debug$S                   0000000140000000     kernel32:KERNEL32.dll
 0000:fffdb000       .debug$S                   0000000140000000     kernel32:KERNEL32.dll
 0000:fffdb000       .debug$S                   0000000140000000     kernel32:KERNEL32.dll
 0000:fffdb000       .debug$S                   0000000140000000     kernel32:KERNEL32.dll
 0000:fffdb000       .debug$S                   0000000140000000     kernel32:KERNEL32.dll
 0000:fffdb000       .debug$S                   0000000140000000     kernel32:KERNEL32.dll
 0000:fffdb000       .debug$S                   0000000140000000     kernel32:KERNEL32.dll
 0000:fffdb000       .debug$S                   0000000140000000     kernel32:KERNEL32.dll
 0000:fffdb000       .debug$S                   0000000140000000     kernel32:KERNEL32.dll
 0000:fffdb000       .debug$S                   0000000140000000     kernel32:KERNEL32.dll
 0000:fffdb000       .debug$S                   0000000140000000     kernel32:KERNEL32.dll
 0000:fffdb000       .debug$S                   0000000140000000     kernel32:KERNEL32.dll
 0000:fffdb000       .debug$S                   0000000140000000     kernel32:KERNEL32.dll
 0000:fffdb000       .debug$S                   0000000140000000     kernel32:KERNEL32.dll
 0000:fffdb000       .debug$S                   0000000140000000     kernel32:KERNEL32.dll
 0000:fffdb000       .debug$S                   0000000140000000     kernel32:KERNEL32.dll
 0000:fffdb000       .debug$S                   0000000140000000     kernel32:KERNEL32.dll
 0000:fffdb000       .debug$S                   0000000140000000     kernel32:KERNEL32.dll
 0000:fffdb000       .debug$S                   0000000140000000     kernel32:KERNEL32.dll
 0000:fffdb000       .debug$S                   0000000140000000     SDL2:SDL2.dll
 0000:fffdb000       .debug$S                   0000000140000000     SDL2:SDL2.dll
 0000:fffdb000       .debug$S                   0000000140000000     SDL2:SDL2.dll
 0000:fffdb000       .debug$S                   0000000140000000     SDL2:SDL2.dll
 0000:fffdb000       .debug$S                   0000000140000000     SDL2:SDL2.dll
 0000:fffdb000       .debug$S                   0000000140000000     SDL2:SDL2.dll
 0000:fffdb000       .debug$S                   0000000140000000     kernel32:KERNEL32.dll
 0000:fffdb000       .debug$S                   0000000140000000     SDL2:SDL2.dll
 0000:fffdb000       .debug$S                   0000000140000000     SDL2:SDL2.dll
 0000:fffdb000       .debug$S                   0000000140000000     kernel32:KERNEL32.dll
 0000:fffdb000       .debug$S                   0000000140000000     SDL2:SDL2.dll
 0000:fffdb000       .debug$S                   0000000140000000     SDL2:SDL2.dll
 0000:fffdb000       .debug$S                   0000000140000000     SDL2:SDL2.dll
 0000:fffdb000       .debug$S                   0000000140000000     SDL2:SDL2.dll
 0000:fffdb000       .debug$S                   0000000140000000     SDL2:SDL2.dll
 0000:fffdb000       .debug$S                   0000000140000000     SDL2:SDL2.dll
 0000:fffdb000       .debug$S                   0000000140000000     SDL2:SDL2.dll
 0000:fffdb000       .debug$S                   0000000140000000     SDL2:SDL2.dll
 0000:fffdb000       .debug$S                   0000000140000000     SDL2:SDL2.dll
 0000:fffdb000       .debug$S                   0000000140000000     SDL2:SDL2.dll
 0000:fffdb000       .debug$S                   0000000140000000     kernel32:KERNEL32.dll
 0000:fffdb000       .debug$S                   0000000140000000     SDL2:SDL2.dll
 0000:fffdb000       .debug$S                   0000000140000000     SDL2:SDL2.dll
 0000:fffdb000       .debug$S                   0000000140000000     SDL2_image:SDL2_image.dll
 0000:fffdb000       .debug$S                   0000000140000000     SDL2_image:SDL2_image.dll
 0000:fffdb000       .debug$S                   0000000140000000     SDL2_image:SDL2_image.dll
 0000:fffdb000       .debug$S                   0000000140000000     SDL2_image:SDL2_image.dll
 0001:00000000       ParseCommandLine           0000000140001000 f   SDL2main:SDL_windows_main.obj
 0001:00000140       main_getcmdline            0000000140001140 f   SDL2main:SDL_windows_main.obj
 0001:000002c0       ??__EgBackgroundTexture@@YAXXZ 00000001400012c0 f   main.obj
 0001:000002f0       ??__EgTexture@@YAXXZ       00000001400012f0 f   main.obj
 0001:00000df0       ??$_Reallocate_for@V<lambda_66f57f934f28d61049862f64df852ff0>@@PEBD@?$basic_string@DU?$char_traits@D@std@@V?$allocator@D@2@@std@@QEAAAEAV01@_KV<lambda_66f57f934f28d61049862f64df852ff0>@@PEBD@Z 0000000140001df0 f   main.obj
 0001:00001100       ??R<lambda_66f57f934f28d61049862f64df852ff0>@@QEBAXQEAD_KQEBD@Z 0000000140002100 f   main.obj
 0001:00001e70       $$000000                   0000000140002e70     LIBCMT:_amdsecgs_.obj
 0001:00001ea4       ?pre_c_initialization@@YAHXZ 0000000140002ea4 f   LIBCMT:exe_main.obj
 0001:00001f60       ?post_pgo_initialization@@YAHXZ 0000000140002f60 f   LIBCMT:exe_main.obj
 0001:00001f70       ?pre_cpp_initialization@@YAXXZ 0000000140002f70 f   LIBCMT:exe_main.obj
 0001:00001f8c       ?__scrt_common_main_seh@@YAHXZ 0000000140002f8c f   LIBCMT:exe_main.obj
 0001:00002778       capture_current_context    0000000140003778 f   LIBCMT:gs_report.obj
 0001:000027e8       capture_previous_context   00000001400037e8 f   LIBCMT:gs_report.obj
 0001:00002924       uninitialize_global_state_isolation 0000000140003924 f   libucrt:initialization.obj
 0001:00002924       report_memory_leaks        0000000140003924 f   libucrt:initialization.obj
 0001:00002924       uninitialize_c             0000000140003924 f   libucrt:initialization.obj
 0001:00002924       initialize_global_state_isolation 0000000140003924 f   libucrt:initialization.obj
 0001:00002924       initialize_environment     0000000140003924 f   libucrt:initialization.obj
 0001:00002a10       $$000000                   0000000140003a10     libvcruntime:memcpy.obj
 0001:00002ab7       MoveSmall                  0000000140003ab7     libvcruntime:memcpy.obj
 0001:00003850       $$000000                   0000000140004850     libvcruntime:memset.obj
 0001:0000394c       MsetTab                    000000014000494c     libvcruntime:memset.obj
 0001:00003d14       ?CatchIt@@YAXPEAUEHExceptionRecord@@PEA_KPEAU_CONTEXT@@PEAU_xDISPATCHER_CONTEXT@@PEBU_s_FuncInfo@@PEBU_s_HandlerType@@PEBU_s_CatchableType@@PEBU_s_TryBlockMapEntry@@H1EE@Z 0000000140004d14 f   libvcruntime:frame.obj
 0001:00003dd8       ?ExFilterRethrow@@YAHPEAU_EXCEPTION_POINTERS@@PEAUEHExceptionRecord@@PEAH@Z 0000000140004dd8 f   libvcruntime:frame.obj
 0001:00003e60       ?FindHandler@@YAXPEAUEHExceptionRecord@@PEA_KPEAU_CONTEXT@@PEAU_xDISPATCHER_CONTEXT@@PEBU_s_FuncInfo@@EH1@Z 0000000140004e60 f   libvcruntime:frame.obj
 0001:00004330       ?FindHandlerForForeignException@@YAXPEAUEHExceptionRecord@@PEA_KPEAU_CONTEXT@@PEAU_xDISPATCHER_CONTEXT@@PEBU_s_FuncInfo@@HH1@Z 0000000140005330 f   libvcruntime:frame.obj
 0001:00004588       ?IsInExceptionSpec@@YAEPEAUEHExceptionRecord@@PEBU_s_ESTypeList@@@Z 0000000140005588 f   libvcruntime:frame.obj
 0001:000050d4       ?try_get_function@@YAPEAXW4function_id@?A0xbfbae6a7@@QEBDQEBW4module_id@2@2@Z 00000001400060d4 f   libvcruntime:winapi_downlevel.obj
 0001:00005530       $$000000                   0000000140006530     libvcruntime:_jmpuwind_.obj
 0001:000055e0       $$000000                   00000001400065e0     libvcruntime:handlers.obj
 0001:00005bac       ??$?RV<lambda_74b93660f2d9eb3fb15c5de9eff9db7b>@@AEAV<lambda_32f117a32e8f8eb613cbf2ca819ed45e>@@V<lambda_7322894ee7c8a2d41153fedefeab09e3>@@@?$__crt_seh_guarded_call@H@@QEAAH$$QEAV<lambda_74b93660f2d9eb3fb15c5de9eff9db7b>@@AEAV<lambda_32f117a32e8f8eb613cbf2ca819ed45e>@@$$QEAV<lambda_7322894ee7c8a2d41153fedefeab09e3>@@@Z 0000000140006bac f   libucrt:output.obj
 0001:00005ec0       ??R<lambda_32f117a32e8f8eb613cbf2ca819ed45e>@@QEBAHXZ 0000000140006ec0 f   libucrt:output.obj
 0001:00007424       ??$?RV<lambda_d80eeec6fff315bfe5c115232f3240e3>@@AEAV<lambda_6e4b09c48022b2350581041d5f6b0c4c>@@V<lambda_2358e3775559c9db80273638284d5e45>@@@?$__crt_seh_guarded_call@X@@QEAAX$$QEAV<lambda_d80eeec6fff315bfe5c115232f3240e3>@@AEAV<lambda_6e4b09c48022b2350581041d5f6b0c4c>@@$$QEAV<lambda_2358e3775559c9db80273638284d5e45>@@@Z 0000000140008424 f   libucrt:exit.obj
 0001:0000745c       ??R<lambda_6e4b09c48022b2350581041d5f6b0c4c>@@QEBA@XZ 000000014000845c f   libucrt:exit.obj
 0001:00007534       ?atexit_exception_filter@@YAHK@Z 0000000140008534 f   libucrt:exit.obj
 0001:00007540       ?common_exit@@YAXHW4_crt_exit_cleanup_mode@@W4_crt_exit_return_mode@@@Z 0000000140008540 f   libucrt:exit.obj
 0001:000075fc       ?exit_or_terminate_process@@YAXI@Z 00000001400085fc f   libucrt:exit.obj
 0001:00007648       ?try_cor_exit_process@@YAXI@Z 0000000140008648 f   libucrt:exit.obj
 0001:00007728       ??$parse_command_line@D@@YAXPEADPEAPEAD0PEA_K2@Z 0000000140008728 f   libucrt:argv_parsing.obj
 0001:00007acc       ??$common_initialize_environment_nolock@D@@YAHXZ 0000000140008acc f   libucrt:environment_initialization.obj
 0001:00007b38       ??$create_environment@D@@YAQEAPEADQEAD@Z 0000000140008b38 f   libucrt:environment_initialization.obj
 0001:00007c44       ??$free_environment@_W@@YAXQEAPEA_W@Z 0000000140008c44 f   libucrt:environment_initialization.obj
 0001:00007c44       ??$free_environment@D@@YAXQEAPEAD@Z 0000000140008c44 f   libucrt:environment_initialization.obj
 0001:00007c88       ??$initialize_environment_by_cloning_nolock@D@@YAHXZ 0000000140008c88 f   libucrt:environment_initialization.obj
 0001:00007d5c       ??$uninitialize_environment_internal@D@@YAXAEAPEAPEAD@Z 0000000140008d5c f   libucrt:environment_initialization.obj
 0001:00007d78       ??$uninitialize_environment_internal@_W@@YAXAEAPEAPEA_W@Z 0000000140008d78 f   libucrt:environment_initialization.obj
 0001:00007e60       ??$?RV<lambda_7777bce6b2f8c936911f934f8298dc43>@@AEAV<lambda_f03950bc5685219e0bcd2087efbe011e>@@V<lambda_3883c3dff614d5e0c5f61bb1ac94921c>@@@?$__crt_seh_guarded_call@H@@QEAAH$$QEAV<lambda_7777bce6b2f8c936911f934f8298dc43>@@AEAV<lambda_f03950bc5685219e0bcd2087efbe011e>@@$$QEAV<lambda_3883c3dff614d5e0c5f61bb1ac94921c>@@@Z 0000000140008e60 f   libucrt:onexit.obj
 0001:00007e9c       ??$?RV<lambda_8369fcb7c4df1e85de37618bd2b85f07>@@AEAV<lambda_a10e4b102d4a2c3aac6f4f48bbdf488f>@@V<lambda_5b7707bd6d7a0c4713179f36c7fd995d>@@@?$__crt_seh_guarded_call@H@@QEAAH$$QEAV<lambda_8369fcb7c4df1e85de37618bd2b85f07>@@AEAV<lambda_a10e4b102d4a2c3aac6f4f48bbdf488f>@@$$QEAV<lambda_5b7707bd6d7a0c4713179f36c7fd995d>@@@Z 0000000140008e9c f   libucrt:onexit.obj
 0001:00007ed8       ??R<lambda_a10e4b102d4a2c3aac6f4f48bbdf488f>@@QEBAHXZ 0000000140008ed8 f   libucrt:onexit.obj
 0001:0000809c       ??R<lambda_f03950bc5685219e0bcd2087efbe011e>@@QEBAHXZ 000000014000909c f   libucrt:onexit.obj
 0001:000082bc       initialize_global_variables 00000001400092bc f   libucrt:initialization.obj
 0001:000082d0       initialize_c               00000001400092d0 f   libucrt:initialization.obj
 0001:000082f4       uninitialize_environment   00000001400092f4 f   libucrt:initialization.obj
 0001:00008304       initialize_pointers        0000000140009304 f   libucrt:initialization.obj
 0001:00008358       uninitialize_vcruntime     0000000140009358 f   libucrt:initialization.obj
 0001:00008360       uninitialize_allocated_memory 0000000140009360 f   libucrt:initialization.obj
 0001:000083a0       uninitialize_allocated_io_buffers 00000001400093a0 f   libucrt:initialization.obj
 0001:000085f4       ??$?RV<lambda_410d79af7f07d98d83a3f525b3859a53>@@AEAV<lambda_3e16ef9562a7dcce91392c22ab16ea36>@@V<lambda_38119f0e861e05405d8a144b9b982f0a>@@@?$__crt_seh_guarded_call@X@@QEAAX$$QEAV<lambda_410d79af7f07d98d83a3f525b3859a53>@@AEAV<lambda_3e16ef9562a7dcce91392c22ab16ea36>@@$$QEAV<lambda_38119f0e861e05405d8a144b9b982f0a>@@@Z 00000001400095f4 f   libucrt:wsetlocale.obj
 0001:00008ca0       $$000000                   0000000140009ca0     libucrt:strncmp.obj
 0001:00008d30       ??$?RV<lambda_0ae27a3a962d80f24befdcbee591983d>@@AEAV<lambda_8d0ee55de4b1038c4002e0adecdf1839>@@V<lambda_dc504788e8f1664fe9b84e20bfb512f2>@@@?$__crt_seh_guarded_call@X@@QEAAX$$QEAV<lambda_0ae27a3a962d80f24befdcbee591983d>@@AEAV<lambda_8d0ee55de4b1038c4002e0adecdf1839>@@$$QEAV<lambda_dc504788e8f1664fe9b84e20bfb512f2>@@@Z 0000000140009d30 f   libucrt:per_thread_data.obj
 0001:00008d70       ??$?RV<lambda_2d41944a1d46af3157314b8a01080d33>@@AEAV<lambda_8f455de75cd7d7f24b4096f044d8b9e6>@@V<lambda_aa500f224e6afead328df44964fe2772>@@@?$__crt_seh_guarded_call@X@@QEAAX$$QEAV<lambda_2d41944a1d46af3157314b8a01080d33>@@AEAV<lambda_8f455de75cd7d7f24b4096f044d8b9e6>@@$$QEAV<lambda_aa500f224e6afead328df44964fe2772>@@@Z 0000000140009d70 f   libucrt:per_thread_data.obj
 0001:00008db0       ??$?RV<lambda_aa87e3671a710a21b5dc78c0bdf72e11>@@AEAV<lambda_92619d2358a28f41a33ba319515a20b9>@@V<lambda_6992ecaafeb10aed2b74cb1fae11a551>@@@?$__crt_seh_guarded_call@X@@QEAAX$$QEAV<lambda_aa87e3671a710a21b5dc78c0bdf72e11>@@AEAV<lambda_92619d2358a28f41a33ba319515a20b9>@@$$QEAV<lambda_6992ecaafeb10aed2b74cb1fae11a551>@@@Z 0000000140009db0 f   libucrt:per_thread_data.obj
 0001:00008df8       ??$?RV<lambda_f2e299630e499de9f9a165e60fcd3db5>@@AEAV<lambda_2ae9d31cdba2644fcbeaf08da7c24588>@@V<lambda_40d01ff24d0e7b3814fdbdcee8eab3c7>@@@?$__crt_seh_guarded_call@X@@QEAAX$$QEAV<lambda_f2e299630e499de9f9a165e60fcd3db5>@@AEAV<lambda_2ae9d31cdba2644fcbeaf08da7c24588>@@$$QEAV<lambda_40d01ff24d0e7b3814fdbdcee8eab3c7>@@@Z 0000000140009df8 f   libucrt:per_thread_data.obj
 0001:00008e58       ?construct_ptd_array@@YAXQEAU__acrt_ptd@@@Z 0000000140009e58 f   libucrt:per_thread_data.obj
 0001:00008f28       ?destroy_fls@@YAXPEAX@Z    0000000140009f28 f   libucrt:per_thread_data.obj
 0001:00008f48       ?destroy_ptd_array@@YAXQEAU__acrt_ptd@@@Z 0000000140009f48 f   libucrt:per_thread_data.obj
 0001:00009040       ?replace_current_thread_locale_nolock@@YAXQEAU__acrt_ptd@@QEAU__crt_locale_data@@@Z 000000014000a040 f   libucrt:per_thread_data.obj
 0001:00009424       ?try_get_function@@YAPEAXW4function_id@?A0x391cf84c@@QEBDQEBW4module_id@2@2@Z 000000014000a424 f   libucrt:winapi_thunks.obj
 0001:00009b24       ??$?RV<lambda_842d9ff0dc9ef11c61343bbaebe7f885>@@AEAV<lambda_c5860995281e5c4ce005b3de8f5874ee>@@V<lambda_d90129c13df834fdcbf8d2b88dafcf2d>@@@?$__crt_seh_guarded_call@X@@QEAAX$$QEAV<lambda_842d9ff0dc9ef11c61343bbaebe7f885>@@AEAV<lambda_c5860995281e5c4ce005b3de8f5874ee>@@$$QEAV<lambda_d90129c13df834fdcbf8d2b88dafcf2d>@@@Z 000000014000ab24 f   libucrt:fflush.obj
 0001:00009bc0       ??$?RV<lambda_886d6c58226a84441f68b9f2b8217b83>@@AEAV<lambda_ab61a845afdef5b7c387490eaf3616ee>@@V<lambda_f7f22ab5edc0698d5f6905b0d3f44752>@@@?$__crt_seh_guarded_call@X@@QEAAX$$QEAV<lambda_886d6c58226a84441f68b9f2b8217b83>@@AEAV<lambda_ab61a845afdef5b7c387490eaf3616ee>@@$$QEAV<lambda_f7f22ab5edc0698d5f6905b0d3f44752>@@@Z 000000014000abc0 f   libucrt:fflush.obj
 0001:00009ca8       ?common_flush_all@@YAH_N@Z 000000014000aca8 f   libucrt:fflush.obj
 0001:00009e18       ?initialize_inherited_file_handles_nolock@@YAXXZ 000000014000ae18 f   libucrt:ioinit.obj
 0001:00009f04       ?initialize_stdio_handles_nolock@@YAXXZ 000000014000af04 f   libucrt:ioinit.obj
 0001:0000a0f0       ?internal_isupper_l@@YA_NHQEAU__crt_locale_pointers@@@Z 000000014000b0f0 f   libucrt:tolower_toupper.obj
 0001:0000a928       ?fp_format_a@@YAHQEBNPEAD_KQEAD2H_NIQEAU__crt_locale_pointers@@@Z 000000014000b928 f   libucrt:cvt.obj
 0001:0000ac7c       ?fp_format_e@@YAHQEBNQEAD_K12H_NIQEAU__crt_locale_pointers@@@Z 000000014000bc7c f   libucrt:cvt.obj
 0001:0000ad58       ?fp_format_e_internal@@YAHQEAD_KH_NIQEAU_strflt@@2QEAU__crt_locale_pointers@@@Z 000000014000bd58 f   libucrt:cvt.obj
 0001:0000af2c       ?fp_format_f_internal@@YAHQEAD_KHQEAU_strflt@@_NQEAU__crt_locale_pointers@@@Z 000000014000bf2c f   libucrt:cvt.obj
 0001:0000b074       ?fp_format_g@@YAHQEBNQEAD_K12H_NIQEAU__crt_locale_pointers@@@Z 000000014000c074 f   libucrt:cvt.obj
 0001:0000b1a8       ?fp_format_nan_or_infinity@@YAHW4__acrt_fp_class@@_NPEAD_K1@Z 000000014000c1a8 f   libucrt:cvt.obj
 0001:0000b7c4       ?<lambda_invoker_cdecl>@<lambda_c2303d2482d7c3675ea2e24c4cfb6115>@@CAHPEBX0@Z 000000014000c7c4 f   libucrt:argv_wildcards.obj
 0001:0000b7d8       ??$common_expand_argv_wildcards@D@@YAHQEAPEADQEAPEAPEAD@Z 000000014000c7d8 f   libucrt:argv_wildcards.obj
 0001:0000b9e4       ??$copy_and_add_argument_to_buffer@D@@YAHQEBD0_KAEAV?$argument_list@D@?A0x5f5c8891@@@Z 000000014000c9e4 f   libucrt:argv_wildcards.obj
 0001:0000bb7c       ??$expand_argument_wildcards@D@@YAHQEAD0AEAV?$argument_list@D@?A0x5f5c8891@@@Z 000000014000cb7c f   libucrt:argv_wildcards.obj
 0001:0000bd30       ??$?RV<lambda_efdfa57d1f175319df784efa44bb7b81>@@AEAV<lambda_5f0a4c1567f8adc6734073e5d1e1b35c>@@V<lambda_2e8a7d3640ea6ccb4c2413664c2db6fd>@@@?$__crt_seh_guarded_call@X@@QEAAX$$QEAV<lambda_efdfa57d1f175319df784efa44bb7b81>@@AEAV<lambda_5f0a4c1567f8adc6734073e5d1e1b35c>@@$$QEAV<lambda_2e8a7d3640ea6ccb4c2413664c2db6fd>@@@Z 000000014000cd30 f   libucrt:mbctype.obj
 0001:0000bf04       ?getSystemCP@@YAHH@Z       000000014000cf04 f   libucrt:mbctype.obj
 0001:0000bf84       ?setSBCS@@YAXPEAU__crt_multibyte_data@@@Z 000000014000cf84 f   libucrt:mbctype.obj
 0001:0000c014       ?setSBUpLow@@YAXPEAU__crt_multibyte_data@@@Z 000000014000d014 f   libucrt:mbctype.obj
 0001:0000c1f4       ?setmbcp_internal@@YAHH_NQEAU__acrt_ptd@@QEAPEAU__crt_multibyte_data@@@Z 000000014000d1f4 f   libucrt:mbctype.obj
 0001:0000c3b8       ?update_thread_multibyte_data_internal@@YAPEAU__crt_multibyte_data@@QEAU__acrt_ptd@@QEAPEAU1@@Z 000000014000d3b8 f   libucrt:mbctype.obj
 0001:0000c7ac       ?x_ismbbtype_l@@YAHPEAU__crt_locale_pointers@@IHH@Z 000000014000d7ac f   libucrt:ismbbyte.obj
 0001:0000c93c       ??$common_set_variable_in_environment_nolock@D@@YAHQEADH@Z 000000014000d93c f   libucrt:setenv.obj
 0001:0000cc5c       ??$copy_environment@D@@YAPEAPEADQEAPEAD@Z 000000014000dc5c f   libucrt:setenv.obj
 0001:0000ced4       ??$?RV<lambda_450d765d439847d4c735a33c368b5fc0>@@AEAV<lambda_44731a7d0e6d81c3e6aa82d741081786>@@V<lambda_601a2a7da3b7a96e9554ac7215c4b07c>@@@?$__crt_seh_guarded_call@P6AXH@Z@@QEAAP6AXH@Z$$QEAV<lambda_450d765d439847d4c735a33c368b5fc0>@@AEAV<lambda_44731a7d0e6d81c3e6aa82d741081786>@@$$QEAV<lambda_601a2a7da3b7a96e9554ac7215c4b07c>@@@Z 000000014000ded4 f   libucrt:signal.obj
 0001:0000d664       ?free_crt_array_internal@@YAXQEAPEBX_K@Z 000000014000e664 f   libucrt:inittime.obj
 0001:0000de9c       ?GetTableIndexFromLocaleName@@YAHPEB_W@Z 000000014000ee9c f   libucrt:lcidtoname_downlevel.obj
 0001:0000e084       ??$?RV<lambda_a37b2b86f63e897a80ea819b0eb08c01>@@AEAV<lambda_38ce7e780aa69e748d6df282ebc68efe>@@V<lambda_99fb1378e971ab6e7edea83e3a7a83a2>@@@?$__crt_seh_guarded_call@H@@QEAAH$$QEAV<lambda_a37b2b86f63e897a80ea819b0eb08c01>@@AEAV<lambda_38ce7e780aa69e748d6df282ebc68efe>@@$$QEAV<lambda_99fb1378e971ab6e7edea83e3a7a83a2>@@@Z 000000014000f084 f   libucrt:commit.obj
 0001:0000e1a4       ?write_double_translated_ansi_nolock@@YA?AUwrite_result@?A0x17268360@@HQEBDI@Z 000000014000f1a4 f   libucrt:write.obj
 0001:0000e3c8       ?write_text_ansi_nolock@@YA?AUwrite_result@?A0x17268360@@HQEBDI@Z 000000014000f3c8 f   libucrt:write.obj
 0001:0000e4cc       ?write_text_utf16le_nolock@@YA?AUwrite_result@?A0x17268360@@HQEBDI@Z 000000014000f4cc f   libucrt:write.obj
 0001:0000e5e8       ?write_text_utf8_nolock@@YA?AUwrite_result@?A0x17268360@@HQEBDI@Z 000000014000f5e8 f   libucrt:write.obj
 0001:0000ebcc       ?__acrt_LCMapStringA_stat@@YAHPEAU__crt_locale_pointers@@PEB_WKPEBDHPEADHHH@Z 000000014000fbcc f   libucrt:lcmapstringa.obj
 0001:00010838       memcpy_s                   0000000140011838 f   libucrt:cfout.obj
 0001:000108c0       ??$write_buffer_nolock@D@@YA_NDV__crt_stdio_stream@@@Z 00000001400118c0 f   libucrt:_flsbuf.obj
 0001:00010f74       fallbackMethod             0000000140011f74 f   libucrt:strpbrk.obj
 0001:00011344       $LN78                      0000000140012344     libucrt:strpbrk.obj
 0001:00011380       $LN77                      0000000140012380     libucrt:strpbrk.obj
 0001:000113c0       $LN76                      00000001400123c0     libucrt:strpbrk.obj
 0001:00011498       ?initialize_multibyte@@YAHXZ 0000000140012498 f   libucrt:multibyte_initializer.obj
 0001:00011688       ??$?RV<lambda_751a882b2c74d4b022dec766aa51a29a>@@AEAV<lambda_628dfdc04ba53c8bfc02c9951375f3f5>@@V<lambda_f6c7be5f7998530c34de24c7437d6b54>@@@?$__crt_seh_guarded_call@H@@QEAAH$$QEAV<lambda_751a882b2c74d4b022dec766aa51a29a>@@AEAV<lambda_628dfdc04ba53c8bfc02c9951375f3f5>@@$$QEAV<lambda_f6c7be5f7998530c34de24c7437d6b54>@@@Z 0000000140012688 f   libucrt:close.obj
 0001:00011878       ??$common_lseek@_J@@YA_JH_JH@Z 0000000140012878 f   libucrt:lseek.obj
 0001:00011968       ??$common_lseek_nolock@_J@@YA_JH_JH@Z 0000000140012968 f   libucrt:lseek.obj
 0001:00011bf0       $$000000                   0000000140012bf0     libucrt:log10.obj
 0001:00012388       ?InternalCompareStringA@@YAHPEAU__crt_locale_pointers@@PEB_WKPEBDH2HH@Z 0000000140013388 f   libucrt:comparestringa.obj
 0001:00012c28       _call_matherr              0000000140013c28 f   libucrt:libm_error.obj
 0001:00012c90       _exception_enabled         0000000140013c90 f   libucrt:libm_error.obj
 0001:00012f20       _log_special_common        0000000140013f20 f   libucrt:log_special.obj
 0001:00012fc0       $$000000                   0000000140013fc0     libucrt:fpsr.obj
 0001:00013520       $$000000                   0000000140014520     LIBCMT:_chkstk_.obj
 0001:00013590       $$000000                   0000000140014590     libvcruntime:memcmp.obj
 0001:00013870       $$000000                   0000000140014870     LIBCMT:_guard_dispatch_.obj
 0001:00013890       $$000000                   0000000140014890     LIBCMT:_rfgfailure_.obj
 0001:00013950       ?dtor$0@?0??loadFromFile@LTexture@@QEAA_NV?$basic_string@DU?$char_traits@D@std@@V?$allocator@D@2@@std@@@Z@4HA 0000000140014950 f   main.obj
 0001:00013970       ?dtor$0@?0???0?$basic_string@DU?$char_traits@D@std@@V?$allocator@D@2@@std@@QEAA@QEBD@Z@4HA 0000000140014970 f   main.obj
 0001:00013988       __scrt_is_nonwritable_in_current_image$filt$0 0000000140014988 f   LIBCMT:utility.obj
 0001:000139a0       ?filt$0@?0??__scrt_common_main_seh@@YAHXZ@4HA 00000001400149a0 f   LIBCMT:exe_main.obj
 0001:000139be       _CallSETranslator$filt$0   00000001400149be f   libvcruntime:risctrnsctrl.obj
 0001:00013a4f       __CxxCallCatchBlock$filt$0 0000000140014a4f f   libvcruntime:frame.obj
 0001:00013a74       __CxxCallCatchBlock$fin$1  0000000140014a74 f   libvcruntime:frame.obj
 0001:00013aec       __FrameUnwindToState$filt$0 0000000140014aec f   libvcruntime:frame.obj
 0001:00013b02       __FrameUnwindToState$fin$1 0000000140014b02 f   libvcruntime:frame.obj
 0001:00013b25       __DestructExceptionObject$filt$0 0000000140014b25 f   libvcruntime:ehhelpers.obj
 0001:00013b3d       ?fin$0@?0???$?RV<lambda_842d9ff0dc9ef11c61343bbaebe7f885>@@AEAV<lambda_c5860995281e5c4ce005b3de8f5874ee>@@V<lambda_d90129c13df834fdcbf8d2b88dafcf2d>@@@?$__crt_seh_guarded_call@X@@QEAAX$$QEAV<lambda_842d9ff0dc9ef11c61343bbaebe7f885>@@AEAV<lambda_c5860995281e5c4ce005b3de8f5874ee>@@$$QEAV<lambda_d90129c13df834fdcbf8d2b88dafcf2d>@@@Z@4HA 0000000140014b3d f   libucrt:fflush.obj
 0001:00013b3d       ?fin$0@?0???$?RV<lambda_74b93660f2d9eb3fb15c5de9eff9db7b>@@AEAV<lambda_32f117a32e8f8eb613cbf2ca819ed45e>@@V<lambda_7322894ee7c8a2d41153fedefeab09e3>@@@?$__crt_seh_guarded_call@H@@QEAAH$$QEAV<lambda_74b93660f2d9eb3fb15c5de9eff9db7b>@@AEAV<lambda_32f117a32e8f8eb613cbf2ca819ed45e>@@$$QEAV<lambda_7322894ee7c8a2d41153fedefeab09e3>@@@Z@4HA 0000000140014b3d f   libucrt:output.obj
 0001:00013b58       _query_new_handler$fin$0   0000000140014b58 f   libucrt:new_handler.obj
 0001:00013b6e       ?fin$0@?0???$?RV<lambda_2d41944a1d46af3157314b8a01080d33>@@AEAV<lambda_8f455de75cd7d7f24b4096f044d8b9e6>@@V<lambda_aa500f224e6afead328df44964fe2772>@@@?$__crt_seh_guarded_call@X@@QEAAX$$QEAV<lambda_2d41944a1d46af3157314b8a01080d33>@@AEAV<lambda_8f455de75cd7d7f24b4096f044d8b9e6>@@$$QEAV<lambda_aa500f224e6afead328df44964fe2772>@@@Z@4HA 0000000140014b6e f   libucrt:per_thread_data.obj
 0001:00013b6e       ?fin$0@?0???$?RV<lambda_8369fcb7c4df1e85de37618bd2b85f07>@@AEAV<lambda_a10e4b102d4a2c3aac6f4f48bbdf488f>@@V<lambda_5b7707bd6d7a0c4713179f36c7fd995d>@@@?$__crt_seh_guarded_call@H@@QEAAH$$QEAV<lambda_8369fcb7c4df1e85de37618bd2b85f07>@@AEAV<lambda_a10e4b102d4a2c3aac6f4f48bbdf488f>@@$$QEAV<lambda_5b7707bd6d7a0c4713179f36c7fd995d>@@@Z@4HA 0000000140014b6e f   libucrt:onexit.obj
 0001:00013b6e       ?fin$0@?0???$?RV<lambda_7777bce6b2f8c936911f934f8298dc43>@@AEAV<lambda_f03950bc5685219e0bcd2087efbe011e>@@V<lambda_3883c3dff614d5e0c5f61bb1ac94921c>@@@?$__crt_seh_guarded_call@H@@QEAAH$$QEAV<lambda_7777bce6b2f8c936911f934f8298dc43>@@AEAV<lambda_f03950bc5685219e0bcd2087efbe011e>@@$$QEAV<lambda_3883c3dff614d5e0c5f61bb1ac94921c>@@@Z@4HA 0000000140014b6e f   libucrt:onexit.obj
 0001:00013b6e       ?fin$0@?0???$?RV<lambda_d80eeec6fff315bfe5c115232f3240e3>@@AEAV<lambda_6e4b09c48022b2350581041d5f6b0c4c>@@V<lambda_2358e3775559c9db80273638284d5e45>@@@?$__crt_seh_guarded_call@X@@QEAAX$$QEAV<lambda_d80eeec6fff315bfe5c115232f3240e3>@@AEAV<lambda_6e4b09c48022b2350581041d5f6b0c4c>@@$$QEAV<lambda_2358e3775559c9db80273638284d5e45>@@@Z@4HA 0000000140014b6e f   libucrt:exit.obj
 0001:00013b6e       ?fin$0@?0???$?RV<lambda_aa87e3671a710a21b5dc78c0bdf72e11>@@AEAV<lambda_92619d2358a28f41a33ba319515a20b9>@@V<lambda_6992ecaafeb10aed2b74cb1fae11a551>@@@?$__crt_seh_guarded_call@X@@QEAAX$$QEAV<lambda_aa87e3671a710a21b5dc78c0bdf72e11>@@AEAV<lambda_92619d2358a28f41a33ba319515a20b9>@@$$QEAV<lambda_6992ecaafeb10aed2b74cb1fae11a551>@@@Z@4HA 0000000140014b6e f   libucrt:per_thread_data.obj
 0001:00013b6e       ?fin$0@?0???$?RV<lambda_450d765d439847d4c735a33c368b5fc0>@@AEAV<lambda_44731a7d0e6d81c3e6aa82d741081786>@@V<lambda_601a2a7da3b7a96e9554ac7215c4b07c>@@@?$__crt_seh_guarded_call@P6AXH@Z@@QEAAP6AXH@Z$$QEAV<lambda_450d765d439847d4c735a33c368b5fc0>@@AEAV<lambda_44731a7d0e6d81c3e6aa82d741081786>@@$$QEAV<lambda_601a2a7da3b7a96e9554ac7215c4b07c>@@@Z@4HA 0000000140014b6e f   libucrt:signal.obj
 0001:00013b6e       ?fin$0@?0???$?RV<lambda_0ae27a3a962d80f24befdcbee591983d>@@AEAV<lambda_8d0ee55de4b1038c4002e0adecdf1839>@@V<lambda_dc504788e8f1664fe9b84e20bfb512f2>@@@?$__crt_seh_guarded_call@X@@QEAAX$$QEAV<lambda_0ae27a3a962d80f24befdcbee591983d>@@AEAV<lambda_8d0ee55de4b1038c4002e0adecdf1839>@@$$QEAV<lambda_dc504788e8f1664fe9b84e20bfb512f2>@@@Z@4HA 0000000140014b6e f   libucrt:per_thread_data.obj
 0001:00013b6e       ?fin$0@?0???$?RV<lambda_f2e299630e499de9f9a165e60fcd3db5>@@AEAV<lambda_2ae9d31cdba2644fcbeaf08da7c24588>@@V<lambda_40d01ff24d0e7b3814fdbdcee8eab3c7>@@@?$__crt_seh_guarded_call@X@@QEAAX$$QEAV<lambda_f2e299630e499de9f9a165e60fcd3db5>@@AEAV<lambda_2ae9d31cdba2644fcbeaf08da7c24588>@@$$QEAV<lambda_40d01ff24d0e7b3814fdbdcee8eab3c7>@@@Z@4HA 0000000140014b6e f   libucrt:per_thread_data.obj
 0001:00013b6e       ?fin$0@?0???$?RV<lambda_efdfa57d1f175319df784efa44bb7b81>@@AEAV<lambda_5f0a4c1567f8adc6734073e5d1e1b35c>@@V<lambda_2e8a7d3640ea6ccb4c2413664c2db6fd>@@@?$__crt_seh_guarded_call@X@@QEAAX$$QEAV<lambda_efdfa57d1f175319df784efa44bb7b81>@@AEAV<lambda_5f0a4c1567f8adc6734073e5d1e1b35c>@@$$QEAV<lambda_2e8a7d3640ea6ccb4c2413664c2db6fd>@@@Z@4HA 0000000140014b6e f   libucrt:mbctype.obj
 0001:00013b88       ?filt$0@?0???R<lambda_6e4b09c48022b2350581041d5f6b0c4c>@@QEBA@XZ@4HA 0000000140014b88 f   libucrt:exit.obj
 0001:00013ba3       ?fin$0@?0???$?RV<lambda_410d79af7f07d98d83a3f525b3859a53>@@AEAV<lambda_3e16ef9562a7dcce91392c22ab16ea36>@@V<lambda_38119f0e861e05405d8a144b9b982f0a>@@@?$__crt_seh_guarded_call@X@@QEAAX$$QEAV<lambda_410d79af7f07d98d83a3f525b3859a53>@@AEAV<lambda_3e16ef9562a7dcce91392c22ab16ea36>@@$$QEAV<lambda_38119f0e861e05405d8a144b9b982f0a>@@@Z@4HA 0000000140014ba3 f   libucrt:wsetlocale.obj
 0001:00013bbd       _fcloseall$fin$0           0000000140014bbd f   libucrt:closeall.obj
 0001:00013bd6       ?fin$0@?0???$?RV<lambda_886d6c58226a84441f68b9f2b8217b83>@@AEAV<lambda_ab61a845afdef5b7c387490eaf3616ee>@@V<lambda_f7f22ab5edc0698d5f6905b0d3f44752>@@@?$__crt_seh_guarded_call@X@@QEAAX$$QEAV<lambda_886d6c58226a84441f68b9f2b8217b83>@@AEAV<lambda_ab61a845afdef5b7c387490eaf3616ee>@@$$QEAV<lambda_f7f22ab5edc0698d5f6905b0d3f44752>@@@Z@4HA 0000000140014bd6 f   libucrt:fflush.obj
 0001:00013bf3       __acrt_initialize_lowio$fin$0 0000000140014bf3 f   libucrt:ioinit.obj
 0001:00013bf3       __acrt_lowio_ensure_fh_exists$fin$0 0000000140014bf3 f   libucrt:osfinfo.obj
 0001:00013c0c       ?fin$0@?0??update_thread_multibyte_data_internal@@YAPEAU__crt_multibyte_data@@QEAU__acrt_ptd@@QEAPEAU1@@Z@4HA 0000000140014c0c f   libucrt:mbctype.obj
 0001:00013c25       raise$fin$0                0000000140014c25 f   libucrt:signal.obj
 0001:00013c46       __acrt_update_thread_locale_data$fin$0 0000000140014c46 f   libucrt:locale_refcounting.obj
 0001:00013c5f       fclose$fin$0               0000000140014c5f f   libucrt:fclose.obj
 0001:00013c77       ?fin$0@?0???$?RV<lambda_751a882b2c74d4b022dec766aa51a29a>@@AEAV<lambda_628dfdc04ba53c8bfc02c9951375f3f5>@@V<lambda_f6c7be5f7998530c34de24c7437d6b54>@@@?$__crt_seh_guarded_call@H@@QEAAH$$QEAV<lambda_751a882b2c74d4b022dec766aa51a29a>@@AEAV<lambda_628dfdc04ba53c8bfc02c9951375f3f5>@@$$QEAV<lambda_f6c7be5f7998530c34de24c7437d6b54>@@@Z@4HA 0000000140014c77 f   libucrt:close.obj
 0001:00013c77       ?fin$0@?0???$?RV<lambda_a37b2b86f63e897a80ea819b0eb08c01>@@AEAV<lambda_38ce7e780aa69e748d6df282ebc68efe>@@V<lambda_99fb1378e971ab6e7edea83e3a7a83a2>@@@?$__crt_seh_guarded_call@H@@QEAAH$$QEAV<lambda_a37b2b86f63e897a80ea819b0eb08c01>@@AEAV<lambda_38ce7e780aa69e748d6df282ebc68efe>@@$$QEAV<lambda_99fb1378e971ab6e7edea83e3a7a83a2>@@@Z@4HA 0000000140014c77 f   libucrt:commit.obj
 0001:00013c91       ?fin$0@?0???$common_lseek@_J@@YA_JH_JH@Z@4HA 0000000140014c91 f   libucrt:lseek.obj
 0001:00013c91       _write$fin$0               0000000140014c91 f   libucrt:write.obj
 0001:00013ca8       _ctrlfp$filt$0             0000000140014ca8 f   libucrt:fpctrl.obj
 0001:00013ce0       _IsNonwritableInCurrentImage$filt$0 0000000140014ce0 f   LIBCMT:pesect.obj
 0001:00013d00       ??__FgBackgroundTexture@@YAXXZ 0000000140014d00 f   main.obj
 0001:00013d20       ??__FgTexture@@YAXXZ       0000000140014d20 f   main.obj
 0002:00000358       ?pre_cpp_initializer@@3P6AXXZEA 0000000140015358     LIBCMT:exe_main.obj
 0002:00000360       ?gTexture$initializer$@@3P6AXXZEA 0000000140015360     main.obj
 0002:00000368       ?gBackgroundTexture$initializer$@@3P6AXXZEA 0000000140015368     main.obj
 0002:00000380       ?pre_c_initializer@@3P6AHXZEA 0000000140015380     LIBCMT:exe_main.obj
 0002:00000388       ?post_pgo_initializer@@3P6AHXZEA 0000000140015388     LIBCMT:exe_main.obj
 0002:000003f0       $SG52202                   00000001400153f0     main.obj
 0002:00000418       $SG52205                   0000000140015418     main.obj
 0002:00000448       $SG52281                   0000000140015448     main.obj
 0002:00000458       $SG52283                   0000000140015458     main.obj
 0002:00000480       $SG52285                   0000000140015480     main.obj
 0002:000004b0       $SG52287                   00000001400154b0     main.obj
 0002:000004e0       $SG52294                   00000001400154e0     main.obj
 0002:000004f0       $SG52295                   00000001400154f0     main.obj
 0002:00000508       $SG52314                   0000000140015508     main.obj
 0002:00000520       $SG52315                   0000000140015520     main.obj
 0002:00000548       $SG52318                   0000000140015548     main.obj
 0002:00000558       $SG52319                   0000000140015558     main.obj
 0002:00000578       $cppxdata$??1LTexture@@QEAA@XZ 0000000140015578     main.obj
 0002:000005a0       $cppxdata$?loadFromFile@LTexture@@QEAA_NV?$basic_string@DU?$char_traits@D@std@@V?$allocator@D@2@@std@@@Z 00000001400155a0     main.obj
 0002:000005c8       $cppxdata$??0?$basic_string@DU?$char_traits@D@std@@V?$allocator@D@2@@std@@QEAA@QEBD@Z 00000001400155c8     main.obj
 0002:000005f0       $cppxdata$??1?$basic_string@DU?$char_traits@D@std@@V?$allocator@D@2@@std@@QEAA@XZ 00000001400155f0     main.obj
 0002:00000618       $cppxdata$?c_str@?$basic_string@DU?$char_traits@D@std@@V?$allocator@D@2@@std@@QEBAPEBDXZ 0000000140015618     main.obj
 0002:00000718       GS_ExceptionPointers       0000000140015718     LIBCMT:gs_report.obj
 0002:00000730       ?ExceptionTemplate@?1??_UnwindNestedFrames@@9@4U_EXCEPTION_RECORD@@B 0000000140015730     libvcruntime:risctrnsctrl.obj
 0002:000007d0       ?ExceptionTemplate@?1??_CxxThrowException@@9@4UEHExceptionRecord@@B 00000001400157d0     libvcruntime:throw.obj
 0002:00000838       ?module_names@?A0xbfbae6a7@@3QBQEB_WB 0000000140015838     libvcruntime:winapi_downlevel.obj
 0002:00000908       ?candidate_modules@?1??try_get_FlsAlloc@@YAP6AKP6AXPEAX@Z@ZXZ@4QBW4module_id@?A0xbfbae6a7@@B 0000000140015908     libvcruntime:winapi_downlevel.obj
 0002:00000920       ?candidate_modules@?1??try_get_FlsFree@@YAP6AHK@ZXZ@4QBW4module_id@?A0xbfbae6a7@@B 0000000140015920     libvcruntime:winapi_downlevel.obj
 0002:00000930       ?candidate_modules@?1??try_get_FlsGetValue@@YAP6APEAXK@ZXZ@4QBW4module_id@?A0xbfbae6a7@@B 0000000140015930     libvcruntime:winapi_downlevel.obj
 0002:00000948       ?candidate_modules@?1??try_get_FlsSetValue@@YAP6AHKPEAX@ZXZ@4QBW4module_id@?A0xbfbae6a7@@B 0000000140015948     libvcruntime:winapi_downlevel.obj
 0002:00000960       ?candidate_modules@?1??try_get_InitializeCriticalSectionEx@@YAP6AHPEAU_RTL_CRITICAL_SECTION@@KK@ZXZ@4QBW4module_id@?A0xbfbae6a7@@B 0000000140015960     libvcruntime:winapi_downlevel.obj
 0002:00000990       ?tokenTable@@3QBQEBDB      0000000140015990     libvcruntime:undname.obj
 0002:00000a00       ?nameTable@@3QBQEBDB       0000000140015a00     libvcruntime:undname.obj
 0002:00000c90       ?rttiTable@@3QBQEBDB       0000000140015c90     libvcruntime:undname.obj
 0002:000014b0       __acrt_initializers        00000001400164b0     libucrt:initialization.obj
 0002:000015b0       ?errtable@@3QBUerrentry@?A0x31fdb9ec@@B 00000001400165b0     libucrt:errno.obj
 0002:00001710       ?module_names@?A0x391cf84c@@3QBQEB_WB 0000000140016710     libucrt:winapi_thunks.obj
 0002:00001c08       ?candidate_modules@?1??try_get_CompareStringEx@@YAP6AHPEB_WK0H0HPEAU_nlsversioninfo@@PEAX_J@ZXZ@4QBW4module_id@?A0x391cf84c@@B 0000000140016c08     libucrt:winapi_thunks.obj
 0002:00001c20       ?candidate_modules@?1??try_get_FlsAlloc@@YAP6AKP6AXPEAX@Z@ZXZ@4QBW4module_id@?A0x391cf84c@@B 0000000140016c20     libucrt:winapi_thunks.obj
 0002:00001c28       ?candidate_modules@?1??try_get_FlsFree@@YAP6AHK@ZXZ@4QBW4module_id@?A0x391cf84c@@B 0000000140016c28     libucrt:winapi_thunks.obj
 0002:00001c30       ?candidate_modules@?1??try_get_FlsGetValue@@YAP6APEAXK@ZXZ@4QBW4module_id@?A0x391cf84c@@B 0000000140016c30     libucrt:winapi_thunks.obj
 0002:00001c38       ?candidate_modules@?1??try_get_FlsSetValue@@YAP6AHKPEAX@ZXZ@4QBW4module_id@?A0x391cf84c@@B 0000000140016c38     libucrt:winapi_thunks.obj
 0002:00001c40       ?candidate_modules@?1??try_get_InitializeCriticalSectionEx@@YAP6AHPEAU_RTL_CRITICAL_SECTION@@KK@ZXZ@4QBW4module_id@?A0x391cf84c@@B 0000000140016c40     libucrt:winapi_thunks.obj
 0002:00001c48       ?candidate_modules@?1??try_get_LCMapStringEx@@YAP6AHPEB_WK0HPEA_WHPEAU_nlsversioninfo@@PEAX_J@ZXZ@4QBW4module_id@?A0x391cf84c@@B 0000000140016c48     libucrt:winapi_thunks.obj
 0002:00001c60       ?candidate_modules@?1??try_get_LocaleNameToLCID@@YAP6AKPEB_WK@ZXZ@4QBW4module_id@?A0x391cf84c@@B 0000000140016c60     libucrt:winapi_thunks.obj
 0002:00001c7c       ?candidate_modules@?1??try_get_AppPolicyGetProcessTerminationMethod@@YAP6AJPEAXPEAW4AppPolicyProcessTerminationMethod@@@ZXZ@4QBW4module_id@?A0x391cf84c@@B 0000000140016c7c     libucrt:winapi_thunks.obj
 0002:00002380       ?_mb_locale_names@@3QBQEB_WB 0000000140017380     libucrt:mbctype.obj
 0002:000033d0       ?LocaleNameToIndexTable@?A0x881e4c05@@3QBULocaleNameIndex@1@B 00000001400183d0     libucrt:lcidtoname_downlevel.obj
 0002:00004c70       ?LcidToLocaleNameTable@?A0x881e4c05@@3QBULcidToLocaleName@1@B 0000000140019c70     libucrt:lcidtoname_downlevel.obj
 0002:000066f0       __real_ninf                000000014001b6f0     libucrt:log10.obj
 0002:00006700       __real_inf                 000000014001b700     libucrt:log10.obj
 0002:00006710       __real_neg_qnan            000000014001b710     libucrt:log10.obj
 0002:00006720       __real_qnanbit             000000014001b720     libucrt:log10.obj
 0002:00006730       __int_1023                 000000014001b730     libucrt:log10.obj
 0002:00006740       __mask_001                 000000014001b740     libucrt:log10.obj
 0002:00006750       __mask_mant                000000014001b750     libucrt:log10.obj
 0002:00006760       __mask_mant_top8           000000014001b760     libucrt:log10.obj
 0002:00006770       __mask_mant9               000000014001b770     libucrt:log10.obj
 0002:00006780       __real_log10_e             000000014001b780     libucrt:log10.obj
 0002:00006790       __real_log10_e_lead        000000014001b790     libucrt:log10.obj
 0002:000067a0       __real_log10_e_tail        000000014001b7a0     libucrt:log10.obj
 0002:000067b0       __real_log10_2_lead        000000014001b7b0     libucrt:log10.obj
 0002:000067c0       __real_log10_2_tail        000000014001b7c0     libucrt:log10.obj
 0002:000067d0       __real_two                 000000014001b7d0     libucrt:log10.obj
 0002:000067e0       __real_one                 000000014001b7e0     libucrt:log10.obj
 0002:000067f0       __real_half                000000014001b7f0     libucrt:log10.obj
 0002:00006800       __mask_100                 000000014001b800     libucrt:log10.obj
 0002:00006810       __real_1_over_512          000000014001b810     libucrt:log10.obj
 0002:00006820       __real_1_over_2            000000014001b820     libucrt:log10.obj
 0002:00006830       __real_1_over_3            000000014001b830     libucrt:log10.obj
 0002:00006840       __real_1_over_4            000000014001b840     libucrt:log10.obj
 0002:00006850       __real_1_over_5            000000014001b850     libucrt:log10.obj
 0002:00006860       __real_1_over_6            000000014001b860     libucrt:log10.obj
 0002:00006870       __real_neg_1023            000000014001b870     libucrt:log10.obj
 0002:00006880       __mask_2045                000000014001b880     libucrt:log10.obj
 0002:00006890       __real_threshold           000000014001b890     libucrt:log10.obj
 0002:000068a0       __real_near_one_lt         000000014001b8a0     libucrt:log10.obj
 0002:000068b0       __real_near_one_gt         000000014001b8b0     libucrt:log10.obj
 0002:000068c0       __real_min_norm            000000014001b8c0     libucrt:log10.obj
 0002:000068d0       __real_notsign             000000014001b8d0     libucrt:log10.obj
 0002:000068e0       __real_ca1                 000000014001b8e0     libucrt:log10.obj
 0002:000068f0       __real_ca2                 000000014001b8f0     libucrt:log10.obj
 0002:00006900       __real_ca3                 000000014001b900     libucrt:log10.obj
 0002:00006910       __real_ca4                 000000014001b910     libucrt:log10.obj
 0002:00006920       __mask_lower               000000014001b920     libucrt:log10.obj
 0002:00006930       __flag_x_zero              000000014001b930     libucrt:log10.obj
 0002:00006934       __flag_x_neg               000000014001b934     libucrt:log10.obj
 0002:00006938       __flag_x_nan               000000014001b938     libucrt:log10.obj
 0002:00008190       __real@433fffffffffffff    000000014001d190     libucrt:fpsr.obj
 0002:00008198       __real@c33fffffffffffff    000000014001d198     libucrt:fpsr.obj
 0002:00008a38       $unwind$SDL_main           000000014001da38     main.obj
 0002:00008a48       $unwind$??1LTexture@@QEAA@XZ 000000014001da48     main.obj
 0002:00008a58       $ip2state$??1LTexture@@QEAA@XZ 000000014001da58     main.obj
 0002:00008a60       $unwind$?loadFromFile@LTexture@@QEAA_NV?$basic_string@DU?$char_traits@D@std@@V?$allocator@D@2@@std@@@Z 000000014001da60     main.obj
 0002:00008a70       $stateUnwindMap$?loadFromFile@LTexture@@QEAA_NV?$basic_string@DU?$char_traits@D@std@@V?$allocator@D@2@@std@@@Z 000000014001da70     main.obj
 0002:00008a78       $ip2state$?loadFromFile@LTexture@@QEAA_NV?$basic_string@DU?$char_traits@D@std@@V?$allocator@D@2@@std@@@Z 000000014001da78     main.obj
 0002:00008a90       $unwind$?dtor$0@?0??loadFromFile@LTexture@@QEAA_NV?$basic_string@DU?$char_traits@D@std@@V?$allocator@D@2@@std@@@Z@4HA 000000014001da90     main.obj
 0002:00008a98       $unwind$?free@LTexture@@QEAAXXZ 000000014001da98     main.obj
 0002:00008aa0       $unwind$?setColor@LTexture@@QEAAXEEE@Z 000000014001daa0     main.obj
 0002:00008aa8       $unwind$?setBlendMode@LTexture@@QEAAXW4SDL_BlendMode@@@Z 000000014001daa8     main.obj
 0002:00008ab0       $unwind$?setAlpha@LTexture@@QEAAXE@Z 000000014001dab0     main.obj
 0002:00008ab8       $unwind$?render@LTexture@@QEAAXHHPEAUSDL_Rect@@@Z 000000014001dab8     main.obj
 0002:00008ac8       $unwind$?init@@YA_NXZ      000000014001dac8     main.obj
 0002:00008ad0       $unwind$?loadMedia@@YA_NXZ 000000014001dad0     main.obj
 0002:00008ad8       $unwind$?close@@YAXXZ      000000014001dad8     main.obj
 0002:00008ae0       $unwind$?loadTexture@@YAPEAUSDL_Texture@@V?$basic_string@DU?$char_traits@D@std@@V?$allocator@D@2@@std@@@Z 000000014001dae0     main.obj
 0002:00008ae8       $unwind$_vfprintf_s_l      000000014001dae8     main.obj
 0002:00008ae8       $unwind$printf_s           000000014001dae8     main.obj
 0002:00008ae8       $unwind$??R<lambda_66f57f934f28d61049862f64df852ff0>@@QEBAXQEAD_KQEBD@Z 000000014001dae8     main.obj
 0002:00008af0       $unwind$?_Large_string_engaged@?$_String_val@U?$_Simple_types@D@std@@@std@@QEBA_NXZ 000000014001daf0     main.obj
 0002:00008af0       $unwind$?length@?$char_traits@D@std@@SA_KQEBD@Z 000000014001daf0     main.obj
 0002:00008af8       $unwind$?copy@?$char_traits@D@std@@SAPEADQEADQEBD_K@Z 000000014001daf8     main.obj
 0002:00008b00       $unwind$?deallocate@?$allocator@D@std@@QEAAXQEAD_K@Z 000000014001db00     main.obj
 0002:00008b00       $unwind$?move@?$char_traits@D@std@@SAPEADQEADQEBD_K@Z 000000014001db00     main.obj
 0002:00008b08       $unwind$??1?$_String_alloc@U?$_String_base_types@DV?$allocator@D@std@@@std@@@std@@QEAA@XZ 000000014001db08     main.obj
 0002:00008b08       $unwind$??0?$_String_val@U?$_Simple_types@D@std@@@std@@QEAA@XZ 000000014001db08     main.obj
 0002:00008b08       $unwind$??1?$_Compressed_pair@V?$allocator@D@std@@V?$_String_val@U?$_Simple_types@D@std@@@2@$00@std@@QEAA@XZ 000000014001db08     main.obj
 0002:00008b08       $unwind$?_Getal@?$_String_alloc@U?$_String_base_types@DV?$allocator@D@std@@@std@@@std@@QEAAAEAV?$allocator@D@2@XZ 000000014001db08     main.obj
 0002:00008b08       $unwind$?_Orphan_all@?$_String_alloc@U?$_String_base_types@DV?$allocator@D@std@@@std@@@std@@QEAAXXZ 000000014001db08     main.obj
 0002:00008b08       $unwind$??1?$_String_val@U?$_Simple_types@D@std@@@std@@QEAA@XZ 000000014001db08     main.obj
 0002:00008b08       $unwind$?_Get_data@?$_String_alloc@U?$_String_base_types@DV?$allocator@D@std@@@std@@@std@@QEBAAEBV?$_String_val@U?$_Simple_types@D@std@@@2@XZ 000000014001db08     main.obj
 0002:00008b08       $unwind$?_Getal@?$_String_alloc@U?$_String_base_types@DV?$allocator@D@std@@@std@@@std@@QEBAAEBV?$allocator@D@2@XZ 000000014001db08     main.obj
 0002:00008b08       $unwind$?_Allocate@_Default_allocate_traits@std@@SAPEAX_K@Z 000000014001db08     main.obj
 0002:00008b08       $unwind$_putwch_nolock     000000014001db08     libucrt:putwch.obj
 0002:00008b08       $unwind$?_Get_data@?$_String_alloc@U?$_String_base_types@DV?$allocator@D@std@@@std@@@std@@QEAAAEAV?$_String_val@U?$_Simple_types@D@std@@@2@XZ 000000014001db08     main.obj
 0002:00008b08       $unwind$??$_Allocate@$0BA@U_Default_allocate_traits@std@@$0A@@std@@YAPEAX_K@Z 000000014001db08     main.obj
 0002:00008b10       $unwind$?_Adjust_manually_vector_aligned@std@@YAXAEAPEAXAEA_K@Z 000000014001db10     main.obj
 0002:00008b18       $unwind$?allocate@?$allocator@D@std@@QEAAPEAD_K@Z 000000014001db18     main.obj
 0002:00008b18       $unwind$??$_Deallocate@$0BA@$0A@@std@@YAXPEAX_K@Z 000000014001db18     main.obj
 0002:00008b18       $unwind$?assign@?$basic_string@DU?$char_traits@D@std@@V?$allocator@D@2@@std@@QEAAAEAV12@QEBD@Z 000000014001db18     main.obj
 0002:00008b20       $unwind$?_Myptr@?$_String_val@U?$_Simple_types@D@std@@@std@@QEBAPEBDXZ 000000014001db20     main.obj
 0002:00008b20       $unwind$?_Myptr@?$_String_val@U?$_Simple_types@D@std@@@std@@QEAAPEADXZ 000000014001db20     main.obj
 0002:00008b20       $unwind$?_Tidy_init@?$basic_string@DU?$char_traits@D@std@@V?$allocator@D@2@@std@@QEAAXXZ 000000014001db20     main.obj
 0002:00008b20       $unwind$??0?$_String_alloc@U?$_String_base_types@DV?$allocator@D@std@@@std@@@std@@QEAA@XZ 000000014001db20     main.obj
 0002:00008b20       $unwind$__report_gsfailure 000000014001db20     LIBCMT:gs_report.obj
 0002:00008b28       $unwind$??0?$basic_string@DU?$char_traits@D@std@@V?$allocator@D@2@@std@@QEAA@QEBD@Z 000000014001db28     main.obj
 0002:00008b38       $stateUnwindMap$??0?$basic_string@DU?$char_traits@D@std@@V?$allocator@D@2@@std@@QEAA@QEBD@Z 000000014001db38     main.obj
 0002:00008b40       $ip2state$??0?$basic_string@DU?$char_traits@D@std@@V?$allocator@D@2@@std@@QEAA@QEBD@Z 000000014001db40     main.obj
 0002:00008b58       $unwind$?filt$0@?0???R<lambda_6e4b09c48022b2350581041d5f6b0c4c>@@QEBA@XZ@4HA 000000014001db58     libucrt:exit.obj
 0002:00008b58       $unwind$?fin$0@?0???$?RV<lambda_0ae27a3a962d80f24befdcbee591983d>@@AEAV<lambda_8d0ee55de4b1038c4002e0adecdf1839>@@V<lambda_dc504788e8f1664fe9b84e20bfb512f2>@@@?$__crt_seh_guarded_call@X@@QEAAX$$QEAV<lambda_0ae27a3a962d80f24befdcbee591983d>@@AEAV<lambda_8d0ee55de4b1038c4002e0adecdf1839>@@$$QEAV<lambda_dc504788e8f1664fe9b84e20bfb512f2>@@@Z@4HA 000000014001db58     libucrt:per_thread_data.obj
 0002:00008b58       $unwind$?fin$0@?0??update_thread_multibyte_data_internal@@YAPEAU__crt_multibyte_data@@QEAU__acrt_ptd@@QEAPEAU1@@Z@4HA 000000014001db58     libucrt:mbctype.obj
 0002:00008b58       $unwind$__FrameUnwindToState$filt$0 000000014001db58     libvcruntime:frame.obj
 0002:00008b58       $unwind$?fin$0@?0???$?RV<lambda_74b93660f2d9eb3fb15c5de9eff9db7b>@@AEAV<lambda_32f117a32e8f8eb613cbf2ca819ed45e>@@V<lambda_7322894ee7c8a2d41153fedefeab09e3>@@@?$__crt_seh_guarded_call@H@@QEAAH$$QEAV<lambda_74b93660f2d9eb3fb15c5de9eff9db7b>@@AEAV<lambda_32f117a32e8f8eb613cbf2ca819ed45e>@@$$QEAV<lambda_7322894ee7c8a2d41153fedefeab09e3>@@@Z@4HA 000000014001db58     libucrt:output.obj
 0002:00008b58       $unwind$_ctrlfp$filt$0     000000014001db58     libucrt:fpctrl.obj
 0002:00008b58       $unwind$__FrameUnwindToState$fin$1 000000014001db58     libvcruntime:frame.obj
 0002:00008b58       $unwind$?fin$0@?0???$?RV<lambda_410d79af7f07d98d83a3f525b3859a53>@@AEAV<lambda_3e16ef9562a7dcce91392c22ab16ea36>@@V<lambda_38119f0e861e05405d8a144b9b982f0a>@@@?$__crt_seh_guarded_call@X@@QEAAX$$QEAV<lambda_410d79af7f07d98d83a3f525b3859a53>@@AEAV<lambda_3e16ef9562a7dcce91392c22ab16ea36>@@$$QEAV<lambda_38119f0e861e05405d8a144b9b982f0a>@@@Z@4HA 000000014001db58     libucrt:wsetlocale.obj
 0002:00008b58       $unwind$?fin$0@?0???$?RV<lambda_f2e299630e499de9f9a165e60fcd3db5>@@AEAV<lambda_2ae9d31cdba2644fcbeaf08da7c24588>@@V<lambda_40d01ff24d0e7b3814fdbdcee8eab3c7>@@@?$__crt_seh_guarded_call@X@@QEAAX$$QEAV<lambda_f2e299630e499de9f9a165e60fcd3db5>@@AEAV<lambda_2ae9d31cdba2644fcbeaf08da7c24588>@@$$QEAV<lambda_40d01ff24d0e7b3814fdbdcee8eab3c7>@@@Z@4HA 000000014001db58     libucrt:per_thread_data.obj
 0002:00008b58       $unwind$__acrt_update_thread_locale_data$fin$0 000000014001db58     libucrt:locale_refcounting.obj
 0002:00008b58       $unwind$?filt$0@?0??__scrt_common_main_seh@@YAHXZ@4HA 000000014001db58     LIBCMT:exe_main.obj
 0002:00008b58       $unwind$?fin$0@?0???$?RV<lambda_842d9ff0dc9ef11c61343bbaebe7f885>@@AEAV<lambda_c5860995281e5c4ce005b3de8f5874ee>@@V<lambda_d90129c13df834fdcbf8d2b88dafcf2d>@@@?$__crt_seh_guarded_call@X@@QEAAX$$QEAV<lambda_842d9ff0dc9ef11c61343bbaebe7f885>@@AEAV<lambda_c5860995281e5c4ce005b3de8f5874ee>@@$$QEAV<lambda_d90129c13df834fdcbf8d2b88dafcf2d>@@@Z@4HA 000000014001db58     libucrt:fflush.obj
 0002:00008b58       $unwind$?fin$0@?0???$?RV<lambda_aa87e3671a710a21b5dc78c0bdf72e11>@@AEAV<lambda_92619d2358a28f41a33ba319515a20b9>@@V<lambda_6992ecaafeb10aed2b74cb1fae11a551>@@@?$__crt_seh_guarded_call@X@@QEAAX$$QEAV<lambda_aa87e3671a710a21b5dc78c0bdf72e11>@@AEAV<lambda_92619d2358a28f41a33ba319515a20b9>@@$$QEAV<lambda_6992ecaafeb10aed2b74cb1fae11a551>@@@Z@4HA 000000014001db58     libucrt:per_thread_data.obj
 0002:00008b58       $unwind$?fin$0@?0???$common_lseek@_J@@YA_JH_JH@Z@4HA 000000014001db58     libucrt:lseek.obj
 0002:00008b58       $unwind$?fin$0@?0???$?RV<lambda_2d41944a1d46af3157314b8a01080d33>@@AEAV<lambda_8f455de75cd7d7f24b4096f044d8b9e6>@@V<lambda_aa500f224e6afead328df44964fe2772>@@@?$__crt_seh_guarded_call@X@@QEAAX$$QEAV<lambda_2d41944a1d46af3157314b8a01080d33>@@AEAV<lambda_8f455de75cd7d7f24b4096f044d8b9e6>@@$$QEAV<lambda_aa500f224e6afead328df44964fe2772>@@@Z@4HA 000000014001db58     libucrt:per_thread_data.obj
 0002:00008b58       $unwind$?fin$0@?0???$?RV<lambda_d80eeec6fff315bfe5c115232f3240e3>@@AEAV<lambda_6e4b09c48022b2350581041d5f6b0c4c>@@V<lambda_2358e3775559c9db80273638284d5e45>@@@?$__crt_seh_guarded_call@X@@QEAAX$$QEAV<lambda_d80eeec6fff315bfe5c115232f3240e3>@@AEAV<lambda_6e4b09c48022b2350581041d5f6b0c4c>@@$$QEAV<lambda_2358e3775559c9db80273638284d5e45>@@@Z@4HA 000000014001db58     libucrt:exit.obj
 0002:00008b58       $unwind$__DestructExceptionObject$filt$0 000000014001db58     libvcruntime:ehhelpers.obj
 0002:00008b58       $unwind$__CxxCallCatchBlock$filt$0 000000014001db58     libvcruntime:frame.obj
 0002:00008b58       $unwind$raise$fin$0        000000014001db58     libucrt:signal.obj
 0002:00008b58       $unwind$_IsNonwritableInCurrentImage$filt$0 000000014001db58     LIBCMT:pesect.obj
 0002:00008b58       $unwind$?fin$0@?0???$?RV<lambda_7777bce6b2f8c936911f934f8298dc43>@@AEAV<lambda_f03950bc5685219e0bcd2087efbe011e>@@V<lambda_3883c3dff614d5e0c5f61bb1ac94921c>@@@?$__crt_seh_guarded_call@H@@QEAAH$$QEAV<lambda_7777bce6b2f8c936911f934f8298dc43>@@AEAV<lambda_f03950bc5685219e0bcd2087efbe011e>@@$$QEAV<lambda_3883c3dff614d5e0c5f61bb1ac94921c>@@@Z@4HA 000000014001db58     libucrt:onexit.obj
 0002:00008b58       $unwind$?dtor$0@?0???0?$basic_string@DU?$char_traits@D@std@@V?$allocator@D@2@@std@@QEAA@QEBD@Z@4HA 000000014001db58     main.obj
 0002:00008b58       $unwind$?fin$0@?0???$?RV<lambda_450d765d439847d4c735a33c368b5fc0>@@AEAV<lambda_44731a7d0e6d81c3e6aa82d741081786>@@V<lambda_601a2a7da3b7a96e9554ac7215c4b07c>@@@?$__crt_seh_guarded_call@P6AXH@Z@@QEAAP6AXH@Z$$QEAV<lambda_450d765d439847d4c735a33c368b5fc0>@@AEAV<lambda_44731a7d0e6d81c3e6aa82d741081786>@@$$QEAV<lambda_601a2a7da3b7a96e9554ac7215c4b07c>@@@Z@4HA 000000014001db58     libucrt:signal.obj
 0002:00008b58       $unwind$fclose$fin$0       000000014001db58     libucrt:fclose.obj
 0002:00008b58       $unwind$?fin$0@?0???$?RV<lambda_751a882b2c74d4b022dec766aa51a29a>@@AEAV<lambda_628dfdc04ba53c8bfc02c9951375f3f5>@@V<lambda_f6c7be5f7998530c34de24c7437d6b54>@@@?$__crt_seh_guarded_call@H@@QEAAH$$QEAV<lambda_751a882b2c74d4b022dec766aa51a29a>@@AEAV<lambda_628dfdc04ba53c8bfc02c9951375f3f5>@@$$QEAV<lambda_f6c7be5f7998530c34de24c7437d6b54>@@@Z@4HA 000000014001db58     libucrt:close.obj
 0002:00008b58       $unwind$?fin$0@?0???$?RV<lambda_886d6c58226a84441f68b9f2b8217b83>@@AEAV<lambda_ab61a845afdef5b7c387490eaf3616ee>@@V<lambda_f7f22ab5edc0698d5f6905b0d3f44752>@@@?$__crt_seh_guarded_call@X@@QEAAX$$QEAV<lambda_886d6c58226a84441f68b9f2b8217b83>@@AEAV<lambda_ab61a845afdef5b7c387490eaf3616ee>@@$$QEAV<lambda_f7f22ab5edc0698d5f6905b0d3f44752>@@@Z@4HA 000000014001db58     libucrt:fflush.obj
 0002:00008b58       $unwind$__acrt_initialize_lowio$fin$0 000000014001db58     libucrt:ioinit.obj
 0002:00008b58       $unwind$?fin$0@?0???$?RV<lambda_efdfa57d1f175319df784efa44bb7b81>@@AEAV<lambda_5f0a4c1567f8adc6734073e5d1e1b35c>@@V<lambda_2e8a7d3640ea6ccb4c2413664c2db6fd>@@@?$__crt_seh_guarded_call@X@@QEAAX$$QEAV<lambda_efdfa57d1f175319df784efa44bb7b81>@@AEAV<lambda_5f0a4c1567f8adc6734073e5d1e1b35c>@@$$QEAV<lambda_2e8a7d3640ea6ccb4c2413664c2db6fd>@@@Z@4HA 000000014001db58     libucrt:mbctype.obj
 0002:00008b58       $unwind$?fin$0@?0???$?RV<lambda_a37b2b86f63e897a80ea819b0eb08c01>@@AEAV<lambda_38ce7e780aa69e748d6df282ebc68efe>@@V<lambda_99fb1378e971ab6e7edea83e3a7a83a2>@@@?$__crt_seh_guarded_call@H@@QEAAH$$QEAV<lambda_a37b2b86f63e897a80ea819b0eb08c01>@@AEAV<lambda_38ce7e780aa69e748d6df282ebc68efe>@@$$QEAV<lambda_99fb1378e971ab6e7edea83e3a7a83a2>@@@Z@4HA 000000014001db58     libucrt:commit.obj
 0002:00008b58       $unwind$_fcloseall$fin$0   000000014001db58     libucrt:closeall.obj
 0002:00008b58       $unwind$?fin$0@?0???$?RV<lambda_8369fcb7c4df1e85de37618bd2b85f07>@@AEAV<lambda_a10e4b102d4a2c3aac6f4f48bbdf488f>@@V<lambda_5b7707bd6d7a0c4713179f36c7fd995d>@@@?$__crt_seh_guarded_call@H@@QEAAH$$QEAV<lambda_8369fcb7c4df1e85de37618bd2b85f07>@@AEAV<lambda_a10e4b102d4a2c3aac6f4f48bbdf488f>@@$$QEAV<lambda_5b7707bd6d7a0c4713179f36c7fd995d>@@@Z@4HA 000000014001db58     libucrt:onexit.obj
 0002:00008b58       $unwind$_write$fin$0       000000014001db58     libucrt:write.obj
 0002:00008b58       $unwind$_query_new_handler$fin$0 000000014001db58     libucrt:new_handler.obj
 0002:00008b58       $unwind$__acrt_lowio_ensure_fh_exists$fin$0 000000014001db58     libucrt:osfinfo.obj
 0002:00008b60       $unwind$??1?$basic_string@DU?$char_traits@D@std@@V?$allocator@D@2@@std@@QEAA@XZ 000000014001db60     main.obj
 0002:00008b70       $ip2state$??1?$basic_string@DU?$char_traits@D@std@@V?$allocator@D@2@@std@@QEAA@XZ 000000014001db70     main.obj
 0002:00008b78       $unwind$?assign@?$basic_string@DU?$char_traits@D@std@@V?$allocator@D@2@@std@@QEAAAEAV12@QEBD_K@Z 000000014001db78     main.obj
 0002:00008b80       $unwind$?c_str@?$basic_string@DU?$char_traits@D@std@@V?$allocator@D@2@@std@@QEBAPEBDXZ 000000014001db80     main.obj
 0002:00008b90       $ip2state$?c_str@?$basic_string@DU?$char_traits@D@std@@V?$allocator@D@2@@std@@QEBAPEBDXZ 000000014001db90     main.obj
 0002:00008b98       $unwind$?max_size@?$basic_string@DU?$char_traits@D@std@@V?$allocator@D@2@@std@@QEBA_KXZ 000000014001db98     main.obj
 0002:00008ba0       $unwind$?_Calculate_growth@?$basic_string@DU?$char_traits@D@std@@V?$allocator@D@2@@std@@QEBA_K_K@Z 000000014001dba0     main.obj
 0002:00008ba8       $unwind$?_Tidy_deallocate@?$basic_string@DU?$char_traits@D@std@@V?$allocator@D@2@@std@@QEAAXXZ 000000014001dba8     main.obj
 0002:00008ba8       $unwind$??$_Allocate_manually_vector_aligned@U_Default_allocate_traits@std@@@std@@YAPEAX_K@Z 000000014001dba8     main.obj
 0002:00008bb0       $unwind$_register_thread_local_exe_atexit_callback 000000014001dbb0     libucrt:exit.obj
 0002:00008bb0       $unwind$_msize_base        000000014001dbb0     libucrt:msize.obj
 0002:00008bb0       $unwind$_fileno            000000014001dbb0     libucrt:fileno.obj
 0002:00008bb0       $unwind$__vcrt_getptd      000000014001dbb0     libvcruntime:per_thread_data.obj
 0002:00008bb0       $unwind$__vcrt_uninitialize_ptd 000000014001dbb0     libvcruntime:per_thread_data.obj
 0002:00008bb0       $unwind$_isatty            000000014001dbb0     libucrt:isatty.obj
 0002:00008bb0       $unwind$abort              000000014001dbb0     libucrt:abort.obj
 0002:00008bb0       $unwind$__vcrt_freefls     000000014001dbb0     libvcruntime:per_thread_data.obj
 0002:00008bb0       $unwind$__vcrt_initialize_ptd 000000014001dbb0     libvcruntime:per_thread_data.obj
 0002:00008bb0       $unwind$?__GetCurrentState@@YAHPEA_KPEAU_xDISPATCHER_CONTEXT@@PEBU_s_FuncInfo@@@Z 000000014001dbb0     libvcruntime:riscehstate.obj
 0002:00008bb0       $unwind$__acrt_update_thread_multibyte_data 000000014001dbb0     libucrt:mbctype.obj
 0002:00008bb0       $unwind$??__EgTexture@@YAXXZ 000000014001dbb0     main.obj
 0002:00008bb0       $unwind$__acrt_initialize_multibyte 000000014001dbb0     libucrt:mbctype.obj
 0002:00008bb0       $unwind$??__FgTexture@@YAXXZ 000000014001dbb0     main.obj
 0002:00008bb0       $unwind$__vcrt_uninitialize 000000014001dbb0     libvcruntime:initialization.obj
 0002:00008bb0       $unwind$_statfp            000000014001dbb0     libucrt:fpctrl.obj
 0002:00008bb0       $unwind$__vcrt_initialize  000000014001dbb0     libvcruntime:initialization.obj
 0002:00008bb0       $unwind$_set_new_mode      000000014001dbb0     libucrt:new_mode.obj
 0002:00008bb0       $unwind$??__FgBackgroundTexture@@YAXXZ 000000014001dbb0     main.obj
 0002:00008bb0       $unwind$__acrt_initialize_command_line 000000014001dbb0     libucrt:argv_data.obj
 0002:00008bb0       $unwind$?initialize_multibyte@@YAHXZ 000000014001dbb0     libucrt:multibyte_initializer.obj
 0002:00008bb0       $unwind$_strnicmp          000000014001dbb0     libucrt:strnicmp.obj
 0002:00008bb0       $unwind$??__EgBackgroundTexture@@YAXXZ 000000014001dbb0     main.obj
 0002:00008bb0       $unwind$_GetThrowImageBase 000000014001dbb0     libvcruntime:risctrnsctrl.obj
 0002:00008bb0       $unwind$?state_case_size@?$output_processor@DV?$stream_output_adapter@D@__crt_stdio_output@@V?$format_validation_base@DV?$stream_output_adapter@D@__crt_stdio_output@@@2@@__crt_stdio_output@@AEAA_NXZ 000000014001dbb0     libucrt:output.obj
 0002:00008bb0       $unwind$?_Xlen@?$basic_string@DU?$char_traits@D@std@@V?$allocator@D@2@@std@@SAXXZ 000000014001dbb0     main.obj
 0002:00008bb0       $unwind$_GetImageBase      000000014001dbb0     libvcruntime:risctrnsctrl.obj
 0002:00008bb0       $unwind$_set_fmode         000000014001dbb0     libucrt:setmode.obj
 0002:00008bb0       $unwind$__acrt_initialize_heap 000000014001dbb0     libucrt:heap_handle.obj
 0002:00008bb0       $unwind$__dcrt_terminate_console_output 000000014001dbb0     libucrt:initcon.obj
 0002:00008bb0       $unwind$uninitialize_allocated_io_buffers 000000014001dbb0     libucrt:initialization.obj
 0002:00008bb0       $unwind$_get_initial_narrow_environment 000000014001dbb0     libucrt:environment_initialization.obj
 0002:00008bb0       $unwind$__dcrt_get_or_create_narrow_environment_nolock 000000014001dbb0     libucrt:environment_initialization.obj
 0002:00008bb0       $unwind$__scrt_initialize_default_local_stdio_options 000000014001dbb0     LIBCMT:default_local_stdio_options.obj
 0002:00008bb0       $unwind$uninitialize_environment 000000014001dbb0     libucrt:initialization.obj
 0002:00008bb0       $unwind$?validate_stream_is_ansi_if_required@?$__acrt_stdio_char_traits@D@@SA_NQEAU_iobuf@@@Z 000000014001dbb0     libucrt:output.obj
 0002:00008bb0       $unwind$_get_osfhandle     000000014001dbb0     libucrt:osfinfo.obj
 0002:00008bb0       $unwind$__dcrt_uninitialize_environments_nolock 000000014001dbb0     libucrt:environment_initialization.obj
 0002:00008bb0       $unwind$initialize_c       000000014001dbb0     libucrt:initialization.obj
 0002:00008bb0       $unwind$__acrt_uninitialize 000000014001dbb0     libucrt:initialization.obj
 0002:00008bb0       $unwind$tolower            000000014001dbb0     libucrt:tolower_toupper.obj
 0002:00008bb0       $unwind$__report_rangecheckfailure 000000014001dbb0     LIBCMT:gs_report.obj
 0002:00008bb0       $unwind$??$uninitialize_environment_internal@D@@YAXAEAPEAPEAD@Z 000000014001dbb0     libucrt:environment_initialization.obj
 0002:00008bb0       $unwind$__scrt_unhandled_exception_filter 000000014001dbb0     LIBCMT:utility_desktop.obj
 0002:00008bb0       $unwind$__scrt_is_managed_app 000000014001dbb0     LIBCMT:utility_desktop.obj
 0002:00008bb0       $unwind$??$uninitialize_environment_internal@_W@@YAXAEAPEAPEA_W@Z 000000014001dbb0     libucrt:environment_initialization.obj
 0002:00008bb0       $unwind$__pctype_func      000000014001dbb0     libucrt:ctype.obj
 0002:00008bb0       $unwind$__acrt_release_locale_ref 000000014001dbb0     libucrt:locale_refcounting.obj
 0002:00008bb0       $unwind$_invoke_watson     000000014001dbb0     libucrt:invalid_parameter.obj
 0002:00008bb0       $unwind$__acrt_initialize_ptd 000000014001dbb0     libucrt:per_thread_data.obj
 0002:00008bb0       $unwind$__FrameUnwindFilter 000000014001dbb0     libvcruntime:ehhelpers.obj
 0002:00008bb0       $unwind$mainCRTStartup     000000014001dbb0     LIBCMT:exe_main.obj
 0002:00008bb0       $unwind$?pre_cpp_initialization@@YAXXZ 000000014001dbb0     LIBCMT:exe_main.obj
 0002:00008bb0       $unwind$__acrt_uninitialize_ptd 000000014001dbb0     libucrt:per_thread_data.obj
 0002:00008bb0       $unwind$__acrt_DownlevelLocaleNameToLCID 000000014001dbb0     libucrt:lcidtoname_downlevel.obj
 0002:00008bb0       $unwind$?post_pgo_initialization@@YAHXZ 000000014001dbb0     LIBCMT:exe_main.obj
 0002:00008bb0       $unwind$_set_errno_from_matherr 000000014001dbb0     libucrt:fpexcept.obj
 0002:00008bb0       $unwind$__GSHandlerCheck   000000014001dbb0     LIBCMT:_gshandler_.obj
 0002:00008bb0       $unwind$__scrt_acquire_startup_lock 000000014001dbb0     LIBCMT:utility.obj
 0002:00008bb0       $unwind$__doserrno         000000014001dbb0     libucrt:errno.obj
 0002:00008bb0       $unwind$atexit             000000014001dbb0     LIBCMT:utility.obj
 0002:00008bb0       $unwind$_errno             000000014001dbb0     libucrt:errno.obj
 0002:00008bb8       $unwind$??$_Max_value@_K@std@@YAAEB_KAEB_K0@Z 000000014001dbb8     main.obj
 0002:00008bb8       $unwind$??$_Min_value@_K@std@@YAAEB_KAEB_K0@Z 000000014001dbb8     main.obj
 0002:00008bc0       $unwind$??$?0$$V@?$_Compressed_pair@V?$allocator@D@std@@V?$_String_val@U?$_Simple_types@D@std@@@2@$00@std@@QEAA@U_Zero_then_variadic_args_t@1@@Z 000000014001dbc0     main.obj
 0002:00008bc8       $unwind$??$_Reallocate_for@V<lambda_66f57f934f28d61049862f64df852ff0>@@PEBD@?$basic_string@DU?$char_traits@D@std@@V?$allocator@D@2@@std@@QEAAAEAV01@_KV<lambda_66f57f934f28d61049862f64df852ff0>@@PEBD@Z 000000014001dbc8     main.obj
 0002:00008bd0       $unwind$??$construct@PEADAEBQEAD@?$_Default_allocator_traits@V?$allocator@D@std@@@std@@SAXAEAV?$allocator@D@1@QEAPEADAEBQEAD@Z 000000014001dbd0     main.obj
 0002:00008bd8       $unwind$?ExFilterRethrow@@YAHPEAU_EXCEPTION_POINTERS@@PEAUEHExceptionRecord@@PEAH@Z 000000014001dbd8     libvcruntime:frame.obj
 0002:00008bd8       $unwind$__acrt_update_locale_info 000000014001dbd8     libucrt:locale_update.obj
 0002:00008bd8       $unwind$__vcrt_initialize_locks 000000014001dbd8     libvcruntime:locks.obj
 0002:00008bd8       $unwind$?internal_isupper_l@@YA_NHQEAU__crt_locale_pointers@@@Z 000000014001dbd8     libucrt:tolower_toupper.obj
 0002:00008bd8       $unwind$__acrt_update_multibyte_info 000000014001dbd8     libucrt:locale_update.obj
 0002:00008bd8       $unwind$_fflush_nolock     000000014001dbd8     libucrt:fflush.obj
 0002:00008bd8       $unwind$_set_statfp        000000014001dbd8     libucrt:fpctrl.obj
 0002:00008bd8       $unwind$_calloc_base       000000014001dbd8     libucrt:calloc_base.obj
 0002:00008bd8       $unwind$??0bad_exception@std@@QEAA@AEBV01@@Z 000000014001dbd8     libvcruntime:frame.obj
 0002:00008bd8       $unwind$_clrfp             000000014001dbd8     libucrt:fpctrl.obj
 0002:00008bd8       $unwind$_malloc_base       000000014001dbd8     libucrt:malloc_base.obj
 0002:00008bd8       $unwind$__acrt_initialize_locks 000000014001dbd8     libucrt:locks.obj
 0002:00008bd8       $unwind$__acrt_uninitialize_locks 000000014001dbd8     libucrt:locks.obj
 0002:00008bd8       $unwind$__acrt_get_process_end_policy 000000014001dbd8     libucrt:win_policies.obj
 0002:00008bd8       $unwind$__vcrt_uninitialize_locks 000000014001dbd8     libvcruntime:locks.obj
 0002:00008bd8       $unwind$__acrt_stdio_allocate_buffer_nolock 000000014001dbd8     libucrt:_getbuf.obj
 0002:00008bd8       $unwind$??0logic_error@std@@QEAA@AEBV01@@Z 000000014001dbd8     libcpmt:xthrow.obj
 0002:00008bd8       $unwind$?__StateFromIp@@YAHPEBU_s_FuncInfo@@PEAU_xDISPATCHER_CONTEXT@@_K@Z 000000014001dbd8     libvcruntime:riscehstate.obj
 0002:00008bd8       $unwind$?__GetUnwindTryBlock@@YAHPEA_KPEAU_xDISPATCHER_CONTEXT@@PEBU_s_FuncInfo@@@Z 000000014001dbd8     libvcruntime:riscehstate.obj
 0002:00008bd8       $unwind$strcpy_s           000000014001dbd8     libucrt:strcpy_s.obj
 0002:00008bd8       $unwind$?try_cor_exit_process@@YAXI@Z 000000014001dbd8     libucrt:exit.obj
 0002:00008bd8       $unwind$?exit_or_terminate_process@@YAXI@Z 000000014001dbd8     libucrt:exit.obj
 0002:00008bd8       $unwind$__std_exception_destroy 000000014001dbd8     libvcruntime:std_exception.obj
 0002:00008bd8       $unwind$??0exception@std@@QEAA@AEBV01@@Z 000000014001dbd8     libcpmt:xthrow.obj
 0002:00008bd8       $unwind$_CreateFrameInfo   000000014001dbd8     libvcruntime:risctrnsctrl.obj
 0002:00008bd8       $unwind$_callnewh          000000014001dbd8     libucrt:new_handler.obj
 0002:00008bd8       $unwind$_configthreadlocale 000000014001dbd8     libucrt:wsetlocale.obj
 0002:00008bd8       $unwind$_IsExceptionObjectToBeDestroyed 000000014001dbd8     libvcruntime:ehhelpers.obj
 0002:00008bd8       $unwind$?state_case_normal@?$output_processor@DV?$stream_output_adapter@D@__crt_stdio_output@@V?$format_validation_base@DV?$stream_output_adapter@D@__crt_stdio_output@@@2@@__crt_stdio_output@@AEAA_NXZ 000000014001dbd8     libucrt:output.obj
 0002:00008bd8       $unwind$??0bad_alloc@std@@QEAA@AEBV01@@Z 000000014001dbd8     libcpmt:xthrow.obj
 0002:00008bd8       $unwind$__acrt_AppPolicyGetProcessTerminationMethodInternal 000000014001dbd8     libucrt:winapi_thunks.obj
 0002:00008bd8       $unwind$_SetThrowImageBase 000000014001dbd8     libvcruntime:risctrnsctrl.obj
 0002:00008bd8       $unwind$_SetImageBase      000000014001dbd8     libvcruntime:risctrnsctrl.obj
 0002:00008bd8       $unwind$??0length_error@std@@QEAA@AEBV01@@Z 000000014001dbd8     libcpmt:xthrow.obj
 0002:00008bd8       $unwind$_clearfp           000000014001dbd8     libucrt:ieee.obj
 0002:00008bd8       $unwind$??2@YAPEAX_K@Z     000000014001dbd8     LIBCMT:new_scalar.obj
 0002:00008bd8       $unwind$uninitialize_allocated_memory 000000014001dbd8     libucrt:initialization.obj
 0002:00008bd8       $unwind$initialize_pointers 000000014001dbd8     libucrt:initialization.obj
 0002:00008bd8       $unwind$__raise_securityfailure 000000014001dbd8     LIBCMT:gs_report.obj
 0002:00008bd8       $unwind$fegetenv           000000014001dbd8     libucrt:fegetenv.obj
 0002:00008bd8       $unwind$__acrt_FlsGetValue 000000014001dbd8     libucrt:winapi_thunks.obj
 0002:00008bd8       $unwind$fesetenv           000000014001dbd8     libucrt:fesetenv.obj
 0002:00008bd8       $unwind$__acrt_FlsFree     000000014001dbd8     libucrt:winapi_thunks.obj
 0002:00008bd8       $unwind$feholdexcept       000000014001dbd8     libucrt:feholdexcept.obj
 0002:00008bd8       $unwind$__acrt_FlsAlloc    000000014001dbd8     libucrt:winapi_thunks.obj
 0002:00008bd8       $unwind$??0bad_array_new_length@std@@QEAA@AEBV01@@Z 000000014001dbd8     LIBCMT:throw_bad_alloc.obj
 0002:00008bd8       $unwind$??_Gtype_info@@UEAAPEAXI@Z 000000014001dbd8     LIBCMT:std_type_info_static.obj
 0002:00008bd8       $unwind$__acrt_getptd_head 000000014001dbd8     libucrt:per_thread_data.obj
 0002:00008bd8       $unwind$__acrt_uninitialize_winapi_thunks 000000014001dbd8     libucrt:winapi_thunks.obj
 0002:00008bd8       $unwind$__acrt_stdio_free_buffer_nolock 000000014001dbd8     libucrt:_freebuf.obj
 0002:00008bd8       $unwind$__acrt_fp_strflt_to_string 000000014001dbd8     libucrt:_fptostr.obj
 0002:00008bd8       $unwind$?pre_c_initialization@@YAHXZ 000000014001dbd8     LIBCMT:exe_main.obj
 0002:00008bd8       $unwind$__scrt_uninitialize_crt 000000014001dbd8     LIBCMT:utility.obj
 0002:00008bd8       $unwind$__scrt_initialize_crt 000000014001dbd8     LIBCMT:utility.obj
 0002:00008bd8       $unwind$__scrt_release_startup_lock 000000014001dbd8     LIBCMT:utility.obj
 0002:00008bd8       $unwind$__acrt_allocate_buffer_for_argv 000000014001dbd8     libucrt:argv_parsing.obj
 0002:00008bd8       $unwind$_onexit            000000014001dbd8     LIBCMT:utility.obj
 0002:00008bd8       $unwind$__acrt_uninitialize_stdio 000000014001dbd8     libucrt:_file.obj
 0002:00008bd8       $unwind$?type_case_s@?$output_processor@DV?$stream_output_adapter@D@__crt_stdio_output@@V?$format_validation_base@DV?$stream_output_adapter@D@__crt_stdio_output@@@2@@__crt_stdio_output@@AEAA_NXZ 000000014001dbd8     libucrt:output.obj
 0002:00008be0       $unwind$__acrt_uninitialize_lowio 000000014001dbe0     libucrt:ioinit.obj
 0002:00008be0       $unwind$__acrt_errno_map_os_error 000000014001dbe0     libucrt:errno.obj
 0002:00008be0       $unwind$??_Gexception@std@@UEAAPEAXI@Z 000000014001dbe0     libcpmt:xthrow.obj
 0002:00008be0       $unwind$_realloc_base      000000014001dbe0     libucrt:realloc_base.obj
 0002:00008be0       $unwind$?__SetUnwindTryBlock@@YAXPEA_KPEAU_xDISPATCHER_CONTEXT@@PEBU_s_FuncInfo@@H@Z 000000014001dbe0     libvcruntime:riscehstate.obj
 0002:00008be0       $unwind$__acrt_stdio_begin_temporary_buffering_nolock 000000014001dbe0     libucrt:_sftbuf.obj
 0002:00008be0       $unwind$??_Glogic_error@std@@UEAAPEAXI@Z 000000014001dbe0     libcpmt:xthrow.obj
 0002:00008be0       $unwind$??0_LocaleUpdate@@QEAA@QEAU__crt_locale_pointers@@@Z 000000014001dbe0     libucrt:output.obj
 0002:00008be0       $unwind$??_Gbad_exception@std@@UEAAPEAXI@Z 000000014001dbe0     libvcruntime:frame.obj
 0002:00008be0       $unwind$_fclose_nolock     000000014001dbe0     libucrt:fclose.obj
 0002:00008be0       $unwind$__acrt_FlsSetValue 000000014001dbe0     libucrt:winapi_thunks.obj
 0002:00008be0       $unwind$?force_decimal_point@__crt_stdio_output@@YAXPEADQEAU__crt_locale_pointers@@@Z 000000014001dbe0     libucrt:output.obj
 0002:00008be0       $unwind$_initterm_e        000000014001dbe0     libucrt:initterm.obj
 0002:00008be0       $unwind$__acrt_execute_uninitializers 000000014001dbe0     libucrt:shared_initialization.obj
 0002:00008be0       $unwind$strncpy_s          000000014001dbe0     libucrt:strncpy_s.obj
 0002:00008be0       $unwind$_updatetlocinfoEx_nolock 000000014001dbe0     libucrt:locale_refcounting.obj
 0002:00008be0       $unwind$__acrt_LocaleNameToLCID 000000014001dbe0     libucrt:winapi_thunks.obj
 0002:00008be0       $unwind$??_Gbad_array_new_length@std@@UEAAPEAXI@Z 000000014001dbe0     LIBCMT:throw_bad_alloc.obj
 0002:00008be0       $unwind$?state_case_normal_tchar@?$output_processor@DV?$stream_output_adapter@D@__crt_stdio_output@@V?$format_validation_base@DV?$stream_output_adapter@D@__crt_stdio_output@@@2@@__crt_stdio_output@@AEAA_ND@Z 000000014001dbe0     libucrt:output.obj
 0002:00008be0       $unwind$??_Glength_error@std@@UEAAPEAXI@Z 000000014001dbe0     libcpmt:xthrow.obj
 0002:00008be0       $unwind$__vcrt_FlsAlloc    000000014001dbe0     libvcruntime:winapi_downlevel.obj
 0002:00008be0       $unwind$_close_nolock      000000014001dbe0     libucrt:close.obj
 0002:00008be0       $unwind$__vcrt_FlsFree     000000014001dbe0     libvcruntime:winapi_downlevel.obj
 0002:00008be0       $unwind$??$common_initialize_environment_nolock@D@@YAHXZ 000000014001dbe0     libucrt:environment_initialization.obj
 0002:00008be0       $unwind$?replace_current_thread_locale_nolock@@YAXQEAU__acrt_ptd@@QEAU__crt_locale_data@@@Z 000000014001dbe0     libucrt:per_thread_data.obj
 0002:00008be0       $unwind$?type_case_c_tchar@?$output_processor@DV?$stream_output_adapter@D@__crt_stdio_output@@V?$format_validation_base@DV?$stream_output_adapter@D@__crt_stdio_output@@@2@@__crt_stdio_output@@AEAA_ND@Z 000000014001dbe0     libucrt:output.obj
 0002:00008be0       $unwind$_FindAndUnlinkFrame 000000014001dbe0     libvcruntime:risctrnsctrl.obj
 0002:00008be0       $unwind$__vcrt_FlsGetValue 000000014001dbe0     libvcruntime:winapi_downlevel.obj
 0002:00008be0       $unwind$__acrt_getptd_noexit 000000014001dbe0     libucrt:per_thread_data.obj
 0002:00008be0       $unwind$??_Gbad_alloc@std@@UEAAPEAXI@Z 000000014001dbe0     libcpmt:xthrow.obj
 0002:00008be0       $unwind$__acrt_getptd      000000014001dbe0     libucrt:per_thread_data.obj
 0002:00008bec       $unwind$?_Xlength_error@std@@YAXPEBD@Z 000000014001dbec     libcpmt:xthrow.obj
 0002:00008bec       $unwind$?__scrt_throw_std_bad_alloc@@YAXXZ 000000014001dbec     LIBCMT:throw_bad_alloc.obj
 0002:00008bec       $unwind$_raise_exc         000000014001dbec     libucrt:fpexcept.obj
 0002:00008bec       $unwind$?__scrt_throw_std_bad_array_new_length@@YAXXZ 000000014001dbec     LIBCMT:throw_bad_alloc.obj
 0002:00008bf4       $unwind$??0length_error@std@@QEAA@PEBD@Z 000000014001dbf4     libcpmt:xthrow.obj
 0002:00008bfc       $unwind$__scrt_is_nonwritable_in_current_image 000000014001dbfc     LIBCMT:utility.obj
 0002:00008c1c       $unwind$__scrt_is_nonwritable_in_current_image$filt$0 000000014001dc1c     LIBCMT:utility.obj
 0002:00008c24       $unwind$__scrt_initialize_onexit_tables 000000014001dc24     LIBCMT:utility.obj
 0002:00008c30       $unwind$__GSHandlerCheckCommon 000000014001dc30     LIBCMT:_gshandler_.obj
 0002:00008c38       $xdatasym                  000000014001dc38     LIBCMT:_amdsecgs_.obj
 0002:00008c3c       $unwind$?__scrt_common_main_seh@@YAHXZ 000000014001dc3c     LIBCMT:exe_main.obj
 0002:00008c74       $unwind$__isa_available_init 000000014001dc74     LIBCMT:_cpu_disp_.obj
 0002:00008c88       $unwind$__scrt_fastfail    000000014001dc88     LIBCMT:utility_desktop.obj
 0002:00008c98       $unwind$__report_securityfailure 000000014001dc98     LIBCMT:gs_report.obj
 0002:00008ca0       $unwind$capture_current_context 000000014001dca0     LIBCMT:gs_report.obj
 0002:00008cac       $unwind$capture_previous_context 000000014001dcac     LIBCMT:gs_report.obj
 0002:00008cb8       $unwind$__security_init_cookie 000000014001dcb8     LIBCMT:gs_support.obj
 0002:00008cc4       $unwind$_exception_enabled 000000014001dcc4     libucrt:libm_error.obj
 0002:00008cc4       $unwind$_RTC_Terminate     000000014001dcc4     LIBCMT:_initsect_.obj
 0002:00008cc4       $unwind$_RTC_Initialize    000000014001dcc4     LIBCMT:_initsect_.obj
 0002:00008cc4       $unwind$__vcrt_getptd_noexit 000000014001dcc4     libvcruntime:per_thread_data.obj
 0002:00008cc4       $unwind$__vcrt_FlsSetValue 000000014001dcc4     libvcruntime:winapi_downlevel.obj
 0002:00008cc4       $unwind$__acrt_execute_initializers 000000014001dcc4     libucrt:shared_initialization.obj
 0002:00008cc4       $unwind$??$common_lseek_nolock@_J@@YA_JH_JH@Z 000000014001dcc4     libucrt:lseek.obj
 0002:00008cc4       $unwind$__acrt_InitializeCriticalSectionEx 000000014001dcc4     libucrt:winapi_thunks.obj
 0002:00008cc4       $unwind$?free_crt_array_internal@@YAXQEAPEBX_K@Z 000000014001dcc4     libucrt:inittime.obj
 0002:00008cc4       $unwind$memcpy_s           000000014001dcc4     libucrt:cfout.obj
 0002:00008cc4       $unwind$__acrt_stdio_flush_and_write_narrow_nolock 000000014001dcc4     libucrt:_flsbuf.obj
 0002:00008cc4       $unwind$?type_case_n@?$output_processor@DV?$stream_output_adapter@D@__crt_stdio_output@@V?$format_validation_base@DV?$stream_output_adapter@D@__crt_stdio_output@@@2@@__crt_stdio_output@@AEAA_NXZ 000000014001dcc4     libucrt:output.obj
 0002:00008cc4       $unwind$__acrt_stdio_flush_nolock 000000014001dcc4     libucrt:fflush.obj
 0002:00008cd8       $xdatasym                  000000014001dcd8     LIBCMT:_guard_dispatch_.obj
 0002:00008ce0       $xdatasym                  000000014001dce0     LIBCMT:_rfgfailure_.obj
 0002:00008cf0       $xdatasym                  000000014001dcf0     libvcruntime:memcpy.obj
 0002:00008cf4       $unwind$?_GetEstablisherFrame@@YAPEA_KPEA_KPEAU_xDISPATCHER_CONTEXT@@PEBU_s_FuncInfo@@0@Z 000000014001dcf4     libvcruntime:risctrnsctrl.obj
 0002:00008d0c       $unwind$?__FrameUnwindToEmptyState@@YAXPEA_KPEAU_xDISPATCHER_CONTEXT@@PEBU_s_FuncInfo@@@Z 000000014001dd0c     libvcruntime:risctrnsctrl.obj
 0002:00008d20       $unwind$_CallSETranslator  000000014001dd20     libvcruntime:risctrnsctrl.obj
 0002:00008d44       $unwind$_CallSETranslator$filt$0 000000014001dd44     libvcruntime:risctrnsctrl.obj
 0002:00008d50       $unwind$??R<lambda_a10e4b102d4a2c3aac6f4f48bbdf488f>@@QEBAHXZ 000000014001dd50     libucrt:onexit.obj
 0002:00008d50       $unwind$??$parse_command_line@D@@YAXPEADPEAPEAD0PEA_K2@Z 000000014001dd50     libucrt:argv_parsing.obj
 0002:00008d50       $unwind$?write_string_impl@?$output_adapter_common@DV?$stream_output_adapter@D@__crt_stdio_output@@@__crt_stdio_output@@IEBAXQEBDHQEAHAEAV__crt_deferred_errno_cache@@@Z 000000014001dd50     libucrt:output.obj
 0002:00008d50       $unwind$?_GetRangeOfTrysToCheck@@YAPEBU_s_TryBlockMapEntry@@PEA_KPEBU_s_FuncInfo@@HHPEAI2PEAU_xDISPATCHER_CONTEXT@@@Z 000000014001dd50     libvcruntime:risctrnsctrl.obj
 0002:00008d6c       $unwind$_UnwindNestedFrames 000000014001dd6c     libvcruntime:risctrnsctrl.obj
 0002:00008d80       $unwind$?_ExecutionInCatch@@YAHPEAU_xDISPATCHER_CONTEXT@@PEBU_s_FuncInfo@@@Z 000000014001dd80     libvcruntime:risctrnsctrl.obj
 0002:00008d80       $unwind$_seh_filter_exe    000000014001dd80     libucrt:exception_filter.obj
 0002:00008d80       $unwind$_recalloc_base     000000014001dd80     libucrt:recalloc.obj
 0002:00008d80       $unwind$?setSBCS@@YAXPEAU__crt_multibyte_data@@@Z 000000014001dd80     libucrt:mbctype.obj
 0002:00008d80       $unwind$__acrt_free_locale 000000014001dd80     libucrt:locale_refcounting.obj
 0002:00008d80       $unwind$__vcrt_InitializeCriticalSectionEx 000000014001dd80     libvcruntime:winapi_downlevel.obj
 0002:00008d80       $unwind$__acrt_lowio_create_handle_array 000000014001dd80     libucrt:osfinfo.obj
 0002:00008d80       $unwind$??$ensure_buffer_is_big_enough@D@formatting_buffer@__crt_stdio_output@@QEAA_N_K@Z 000000014001dd80     libucrt:output.obj
 0002:00008d80       $unwind$_initterm          000000014001dd80     libucrt:initterm.obj
 0002:00008d94       $unwind$__CxxFrameHandler3 000000014001dd94     libvcruntime:risctrnsctrl.obj
 0002:00008da4       $unwind$__std_exception_copy 000000014001dda4     libvcruntime:std_exception.obj
 0002:00008da4       $unwind$_free_osfhnd       000000014001dda4     libucrt:osfinfo.obj
 0002:00008da4       $unwind$?initialize_stdio_handles_nolock@@YAXXZ 000000014001dda4     libucrt:ioinit.obj
 0002:00008db8       $unwind$_CxxThrowException 000000014001ddb8     libvcruntime:throw.obj
 0002:00008dcc       $unwind$__InternalCxxFrameHandler 000000014001ddcc     libvcruntime:frame.obj
 0002:00008dcc       $unwind$__C_specific_handler 000000014001ddcc     libvcruntime:_riscchandler_.obj
 0002:00008de8       $xdatasym                  000000014001dde8     libvcruntime:memset.obj
 0002:00008dec       $unwind$__CxxCallCatchBlock 000000014001ddec     libvcruntime:frame.obj
 0002:00008e28       $unwind$__CxxCallCatchBlock$fin$1 000000014001de28     libvcruntime:frame.obj
 0002:00008e34       $unwind$__BuildCatchObject 000000014001de34     libvcruntime:frame.obj
 0002:00008e60       $unwind$__TypeMatch        000000014001de60     libvcruntime:frame.obj
 0002:00008e60       $unwind$__acrt_initialize_stdio 000000014001de60     libucrt:_file.obj
 0002:00008e78       $unwind$__FrameUnwindToState 000000014001de78     libvcruntime:frame.obj
 0002:00008ec4       $unwind$?FindHandler@@YAXPEAUEHExceptionRecord@@PEA_KPEAU_CONTEXT@@PEAU_xDISPATCHER_CONTEXT@@PEBU_s_FuncInfo@@EH1@Z 000000014001dec4     libvcruntime:frame.obj
 0002:00008ee4       $unwind$?CatchIt@@YAXPEAUEHExceptionRecord@@PEA_KPEAU_CONTEXT@@PEAU_xDISPATCHER_CONTEXT@@PEBU_s_FuncInfo@@PEBU_s_HandlerType@@PEBU_s_CatchableType@@PEBU_s_TryBlockMapEntry@@H1EE@Z 000000014001dee4     libvcruntime:frame.obj
 0002:00008efc       $unwind$?FindHandlerForForeignException@@YAXPEAUEHExceptionRecord@@PEA_KPEAU_CONTEXT@@PEAU_xDISPATCHER_CONTEXT@@PEBU_s_FuncInfo@@HH1@Z 000000014001defc     libvcruntime:frame.obj
 0002:00008f14       $unwind$?try_get_function@@YAPEAXW4function_id@?A0x391cf84c@@QEBDQEBW4module_id@2@2@Z 000000014001df14     libucrt:winapi_thunks.obj
 0002:00008f14       $unwind$?try_get_function@@YAPEAXW4function_id@?A0xbfbae6a7@@QEBDQEBW4module_id@2@2@Z 000000014001df14     libvcruntime:winapi_downlevel.obj
 0002:00008f14       $unwind$?IsInExceptionSpec@@YAEPEAUEHExceptionRecord@@PEBU_s_ESTypeList@@@Z 000000014001df14     libvcruntime:frame.obj
 0002:00008f14       $unwind$??R<lambda_f03950bc5685219e0bcd2087efbe011e>@@QEBAHXZ 000000014001df14     libucrt:onexit.obj
 0002:00008f30       $unwind$__BuildCatchObjectHelper 000000014001df30     libvcruntime:frame.obj
 0002:00008f70       $unwind$__acrt_initialize_winapi_thunks 000000014001df70     libucrt:winapi_thunks.obj
 0002:00008f70       $unwind$__vcrt_initialize_winapi_thunks 000000014001df70     libvcruntime:winapi_downlevel.obj
 0002:00008f78       $unwind$__acrt_stdio_end_temporary_buffering_nolock 000000014001df78     libucrt:_sftbuf.obj
 0002:00008f78       $unwind$__vcrt_uninitialize_winapi_thunks 000000014001df78     libvcruntime:winapi_downlevel.obj
 0002:00008f80       $xdatasym                  000000014001df80     libvcruntime:_jmpuwind_.obj
 0002:00008f98       $xdatasym                  000000014001df98     libvcruntime:handlers.obj
 0002:00008fa0       $unwind$__DestructExceptionObject 000000014001dfa0     libvcruntime:ehhelpers.obj
 0002:00008fc4       $unwind$strtol             000000014001dfc4     libucrt:strtox.obj
 0002:00008fc4       $unwind$_log10_special     000000014001dfc4     libucrt:log_special.obj
 0002:00008fc4       $unwind$wctomb_s           000000014001dfc4     libucrt:wctomb.obj
 0002:00008fc4       $unwind$_invalid_parameter_noinfo 000000014001dfc4     libucrt:invalid_parameter.obj
 0002:00008fc4       $unwind$_invalid_parameter_noinfo_noreturn 000000014001dfc4     libucrt:invalid_parameter.obj
 0002:00008fcc       $unwind$__acrt_call_reportfault 000000014001dfcc     libucrt:invalid_parameter.obj
 0002:00008fec       $unwind$_invalid_parameter 000000014001dfec     libucrt:invalid_parameter.obj
 0002:00009000       $unwind$__stdio_common_vfprintf_s 000000014001e000     libucrt:output.obj
 0002:00009008       $unwind$?process@?$output_processor@DV?$stream_output_adapter@D@__crt_stdio_output@@V?$format_validation_base@DV?$stream_output_adapter@D@__crt_stdio_output@@@2@@__crt_stdio_output@@QEAAHXZ 000000014001e008     libucrt:output.obj
 0002:00009018       $unwind$?parse_int_from_format_string@?$output_processor@DV?$stream_output_adapter@D@__crt_stdio_output@@V?$format_validation_base@DV?$stream_output_adapter@D@__crt_stdio_output@@@2@@__crt_stdio_output@@AEAA_NQEAH@Z 000000014001e018     libucrt:output.obj
 0002:0000902c       $unwind$?state_case_type@?$output_processor@DV?$stream_output_adapter@D@__crt_stdio_output@@V?$format_validation_base@DV?$stream_output_adapter@D@__crt_stdio_output@@@2@@__crt_stdio_output@@AEAA_NXZ 000000014001e02c     libucrt:output.obj
 0002:00009044       $unwind$?type_case_a@?$output_processor@DV?$stream_output_adapter@D@__crt_stdio_output@@V?$format_validation_base@DV?$stream_output_adapter@D@__crt_stdio_output@@@2@@__crt_stdio_output@@AEAA_NXZ 000000014001e044     libucrt:output.obj
 0002:00009050       $unwind$?type_case_integer@?$output_processor@DV?$stream_output_adapter@D@__crt_stdio_output@@V?$format_validation_base@DV?$stream_output_adapter@D@__crt_stdio_output@@@2@@__crt_stdio_output@@AEAA_NI_N@Z 000000014001e050     libucrt:output.obj
 0002:00009068       $unwind$?write_stored_string_tchar@?$output_processor@DV?$stream_output_adapter@D@__crt_stdio_output@@V?$format_validation_base@DV?$stream_output_adapter@D@__crt_stdio_output@@@2@@__crt_stdio_output@@AEAA_ND@Z 000000014001e068     libucrt:output.obj
 0002:00009080       $unwind$??R<lambda_32f117a32e8f8eb613cbf2ca819ed45e>@@QEBAHXZ 000000014001e080     libucrt:output.obj
 0002:000090a0       $unwind$??$write_multiple_characters@V?$stream_output_adapter@D@__crt_stdio_output@@D@__crt_stdio_output@@YAXAEBV?$stream_output_adapter@D@0@DHQEAH@Z 000000014001e0a0     libucrt:output.obj
 0002:000090b8       $unwind$__ascii_strnicmp   000000014001e0b8     libucrt:strnicmp.obj
 0002:000090b8       $unwind$??$type_case_integer_parse_into_buffer@I@?$output_processor@DV?$stream_output_adapter@D@__crt_stdio_output@@V?$format_validation_base@DV?$stream_output_adapter@D@__crt_stdio_output@@@2@@__crt_stdio_output@@AEAAXII_N@Z 000000014001e0b8     libucrt:output.obj
 0002:000090b8       $unwind$??$type_case_integer_parse_into_buffer@_K@?$output_processor@DV?$stream_output_adapter@D@__crt_stdio_output@@V?$format_validation_base@DV?$stream_output_adapter@D@__crt_stdio_output@@@2@@__crt_stdio_output@@AEAAX_KI_N@Z 000000014001e0b8     libucrt:output.obj
 0002:000090c0       $unwind$??$?RV<lambda_74b93660f2d9eb3fb15c5de9eff9db7b>@@AEAV<lambda_32f117a32e8f8eb613cbf2ca819ed45e>@@V<lambda_7322894ee7c8a2d41153fedefeab09e3>@@@?$__crt_seh_guarded_call@H@@QEAAH$$QEAV<lambda_74b93660f2d9eb3fb15c5de9eff9db7b>@@AEAV<lambda_32f117a32e8f8eb613cbf2ca819ed45e>@@$$QEAV<lambda_7322894ee7c8a2d41153fedefeab09e3>@@@Z 000000014001e0c0     libucrt:output.obj
 0002:000090e4       $unwind$_query_new_handler 000000014001e0e4     libucrt:new_handler.obj
 0002:00009104       $unwind$?common_exit@@YAXHW4_crt_exit_cleanup_mode@@W4_crt_exit_return_mode@@@Z 000000014001e104     libucrt:exit.obj
 0002:00009110       $unwind$??R<lambda_6e4b09c48022b2350581041d5f6b0c4c>@@QEBA@XZ 000000014001e110     libucrt:exit.obj
 0002:00009130       $unwind$??$?RV<lambda_d80eeec6fff315bfe5c115232f3240e3>@@AEAV<lambda_6e4b09c48022b2350581041d5f6b0c4c>@@V<lambda_2358e3775559c9db80273638284d5e45>@@@?$__crt_seh_guarded_call@X@@QEAAX$$QEAV<lambda_d80eeec6fff315bfe5c115232f3240e3>@@AEAV<lambda_6e4b09c48022b2350581041d5f6b0c4c>@@$$QEAV<lambda_2358e3775559c9db80273638284d5e45>@@@Z 000000014001e130     libucrt:exit.obj
 0002:00009154       $unwind$_configure_narrow_argv 000000014001e154     libucrt:argv_parsing.obj
 0002:00009168       $unwind$??$free_environment@D@@YAXQEAPEAD@Z 000000014001e168     libucrt:environment_initialization.obj
 0002:00009168       $unwind$??$free_environment@_W@@YAXQEAPEA_W@Z 000000014001e168     libucrt:environment_initialization.obj
 0002:00009174       $unwind$??$create_environment@D@@YAQEAPEADQEAD@Z 000000014001e174     libucrt:environment_initialization.obj
 0002:0000918c       $unwind$??$initialize_environment_by_cloning_nolock@D@@YAHXZ 000000014001e18c     libucrt:environment_initialization.obj
 0002:0000919c       $unwind$_register_onexit_function 000000014001e19c     libucrt:onexit.obj
 0002:000091a4       $unwind$_execute_onexit_table 000000014001e1a4     libucrt:onexit.obj
 0002:000091ac       $unwind$??$?RV<lambda_8369fcb7c4df1e85de37618bd2b85f07>@@AEAV<lambda_a10e4b102d4a2c3aac6f4f48bbdf488f>@@V<lambda_5b7707bd6d7a0c4713179f36c7fd995d>@@@?$__crt_seh_guarded_call@H@@QEAAH$$QEAV<lambda_8369fcb7c4df1e85de37618bd2b85f07>@@AEAV<lambda_a10e4b102d4a2c3aac6f4f48bbdf488f>@@$$QEAV<lambda_5b7707bd6d7a0c4713179f36c7fd995d>@@@Z 000000014001e1ac     libucrt:onexit.obj
 0002:000091d0       $unwind$??$?RV<lambda_7777bce6b2f8c936911f934f8298dc43>@@AEAV<lambda_f03950bc5685219e0bcd2087efbe011e>@@V<lambda_3883c3dff614d5e0c5f61bb1ac94921c>@@@?$__crt_seh_guarded_call@H@@QEAAH$$QEAV<lambda_7777bce6b2f8c936911f934f8298dc43>@@AEAV<lambda_f03950bc5685219e0bcd2087efbe011e>@@$$QEAV<lambda_3883c3dff614d5e0c5f61bb1ac94921c>@@@Z 000000014001e1d0     libucrt:onexit.obj
 0002:000091f4       $unwind$__acrt_uninitialize_locale 000000014001e1f4     libucrt:wsetlocale.obj
 0002:000091f4       $unwind$__acrt_get_sigabrt_handler 000000014001e1f4     libucrt:signal.obj
 0002:000091fc       $unwind$??$?RV<lambda_410d79af7f07d98d83a3f525b3859a53>@@AEAV<lambda_3e16ef9562a7dcce91392c22ab16ea36>@@V<lambda_38119f0e861e05405d8a144b9b982f0a>@@@?$__crt_seh_guarded_call@X@@QEAAX$$QEAV<lambda_410d79af7f07d98d83a3f525b3859a53>@@AEAV<lambda_3e16ef9562a7dcce91392c22ab16ea36>@@$$QEAV<lambda_38119f0e861e05405d8a144b9b982f0a>@@@Z 000000014001e1fc     libucrt:wsetlocale.obj
 0002:00009224       $unwind$terminate          000000014001e224     libucrt:terminate.obj
 0002:00009244       $unwind$__acrt_locale_free_numeric 000000014001e244     libucrt:initnum.obj
 0002:00009244       $unwind$__acrt_locale_free_lc_time_if_unreferenced 000000014001e244     libucrt:locale_refcounting.obj
 0002:00009244       $unwind$_free_base         000000014001e244     libucrt:free_base.obj
 0002:00009244       $unwind$?destroy_fls@@YAXPEAX@Z 000000014001e244     libucrt:per_thread_data.obj
 0002:0000924c       $unwind$??$parse_integer@KV?$c_string_character_source@D@__crt_strtox@@@__crt_strtox@@YAKQEAU__crt_locale_pointers@@V?$c_string_character_source@D@0@H_N@Z 000000014001e24c     libucrt:atox.obj
 0002:00009268       $xdatasym                  000000014001e268     libucrt:strncmp.obj
 0002:0000926c       $unwind$?construct_ptd_array@@YAXQEAU__acrt_ptd@@@Z 000000014001e26c     libucrt:per_thread_data.obj
 0002:00009274       $unwind$?destroy_ptd_array@@YAXQEAU__acrt_ptd@@@Z 000000014001e274     libucrt:per_thread_data.obj
 0002:0000927c       $unwind$??$?RV<lambda_0ae27a3a962d80f24befdcbee591983d>@@AEAV<lambda_8d0ee55de4b1038c4002e0adecdf1839>@@V<lambda_dc504788e8f1664fe9b84e20bfb512f2>@@@?$__crt_seh_guarded_call@X@@QEAAX$$QEAV<lambda_0ae27a3a962d80f24befdcbee591983d>@@AEAV<lambda_8d0ee55de4b1038c4002e0adecdf1839>@@$$QEAV<lambda_dc504788e8f1664fe9b84e20bfb512f2>@@@Z 000000014001e27c     libucrt:per_thread_data.obj
 0002:000092a0       $unwind$??$?RV<lambda_aa87e3671a710a21b5dc78c0bdf72e11>@@AEAV<lambda_92619d2358a28f41a33ba319515a20b9>@@V<lambda_6992ecaafeb10aed2b74cb1fae11a551>@@@?$__crt_seh_guarded_call@X@@QEAAX$$QEAV<lambda_aa87e3671a710a21b5dc78c0bdf72e11>@@AEAV<lambda_92619d2358a28f41a33ba319515a20b9>@@$$QEAV<lambda_6992ecaafeb10aed2b74cb1fae11a551>@@@Z 000000014001e2a0     libucrt:per_thread_data.obj
 0002:000092c4       $unwind$??$?RV<lambda_f2e299630e499de9f9a165e60fcd3db5>@@AEAV<lambda_2ae9d31cdba2644fcbeaf08da7c24588>@@V<lambda_40d01ff24d0e7b3814fdbdcee8eab3c7>@@@?$__crt_seh_guarded_call@X@@QEAAX$$QEAV<lambda_f2e299630e499de9f9a165e60fcd3db5>@@AEAV<lambda_2ae9d31cdba2644fcbeaf08da7c24588>@@$$QEAV<lambda_40d01ff24d0e7b3814fdbdcee8eab3c7>@@@Z 000000014001e2c4     libucrt:per_thread_data.obj
 0002:000092e8       $unwind$??$?RV<lambda_2d41944a1d46af3157314b8a01080d33>@@AEAV<lambda_8f455de75cd7d7f24b4096f044d8b9e6>@@V<lambda_aa500f224e6afead328df44964fe2772>@@@?$__crt_seh_guarded_call@X@@QEAAX$$QEAV<lambda_2d41944a1d46af3157314b8a01080d33>@@AEAV<lambda_8f455de75cd7d7f24b4096f044d8b9e6>@@$$QEAV<lambda_aa500f224e6afead328df44964fe2772>@@@Z 000000014001e2e8     libucrt:per_thread_data.obj
 0002:0000930c       $unwind$__acrt_LCMapStringEx 000000014001e30c     libucrt:winapi_thunks.obj
 0002:0000930c       $unwind$?fp_format_e@@YAHQEBNQEAD_K12H_NIQEAU__crt_locale_pointers@@@Z 000000014001e30c     libucrt:cvt.obj
 0002:0000930c       $unwind$__acrt_CompareStringEx 000000014001e30c     libucrt:winapi_thunks.obj
 0002:00009320       $unwind$_fcloseall         000000014001e320     libucrt:closeall.obj
 0002:00009344       $unwind$?common_flush_all@@YAH_N@Z 000000014001e344     libucrt:fflush.obj
 0002:0000934c       $unwind$??$?RV<lambda_842d9ff0dc9ef11c61343bbaebe7f885>@@AEAV<lambda_c5860995281e5c4ce005b3de8f5874ee>@@V<lambda_d90129c13df834fdcbf8d2b88dafcf2d>@@@?$__crt_seh_guarded_call@X@@QEAAX$$QEAV<lambda_842d9ff0dc9ef11c61343bbaebe7f885>@@AEAV<lambda_c5860995281e5c4ce005b3de8f5874ee>@@$$QEAV<lambda_d90129c13df834fdcbf8d2b88dafcf2d>@@@Z 000000014001e34c     libucrt:fflush.obj
 0002:00009370       $unwind$??$?RV<lambda_886d6c58226a84441f68b9f2b8217b83>@@AEAV<lambda_ab61a845afdef5b7c387490eaf3616ee>@@V<lambda_f7f22ab5edc0698d5f6905b0d3f44752>@@@?$__crt_seh_guarded_call@X@@QEAAX$$QEAV<lambda_886d6c58226a84441f68b9f2b8217b83>@@AEAV<lambda_ab61a845afdef5b7c387490eaf3616ee>@@$$QEAV<lambda_f7f22ab5edc0698d5f6905b0d3f44752>@@@Z 000000014001e370     libucrt:fflush.obj
 0002:00009398       $unwind$__acrt_initialize_lowio 000000014001e398     libucrt:ioinit.obj
 0002:000093b8       $unwind$?initialize_inherited_file_handles_nolock@@YAXXZ 000000014001e3b8     libucrt:ioinit.obj
 0002:000093d4       $unwind$?getSystemCP@@YAHH@Z 000000014001e3d4     libucrt:mbctype.obj
 0002:000093d4       $unwind$_isleadbyte_l      000000014001e3d4     libucrt:_wctype.obj
 0002:000093d4       $unwind$isdigit            000000014001e3d4     libucrt:_ctype.obj
 0002:000093d4       $unwind$__dcrt_lowio_ensure_console_output_initialized 000000014001e3d4     libucrt:initcon.obj
 0002:000093dc       $unwind$_tolower_l         000000014001e3dc     libucrt:tolower_toupper.obj
 0002:000093ec       $unwind$_mbtowc_l          000000014001e3ec     libucrt:mbtowc.obj
 0002:00009404       $unwind$_wctomb_s_l        000000014001e404     libucrt:wctomb.obj
 0002:00009414       $unwind$__acrt_fp_format   000000014001e414     libucrt:cvt.obj
 0002:00009428       $unwind$?fp_format_nan_or_infinity@@YAHW4__acrt_fp_class@@_NPEAD_K1@Z 000000014001e428     libucrt:cvt.obj
 0002:0000943c       $unwind$?fp_format_e_internal@@YAHQEAD_KH_NIQEAU_strflt@@2QEAU__crt_locale_pointers@@@Z 000000014001e43c     libucrt:cvt.obj
 0002:00009454       $unwind$?fp_format_a@@YAHQEBNPEAD_KQEAD2H_NIQEAU__crt_locale_pointers@@@Z 000000014001e454     libucrt:cvt.obj
 0002:00009470       $unwind$__dcrt_get_narrow_environment_from_os 000000014001e470     libucrt:get_environment_from_os.obj
 0002:00009470       $unwind$?fp_format_f_internal@@YAHQEAD_KHQEAU_strflt@@_NQEAU__crt_locale_pointers@@@Z 000000014001e470     libucrt:cvt.obj
 0002:00009488       $unwind$?fp_format_g@@YAHQEBNQEAD_K12H_NIQEAU__crt_locale_pointers@@@Z 000000014001e488     libucrt:cvt.obj
 0002:0000949c       $unwind$??$common_expand_argv_wildcards@D@@YAHQEAPEADQEAPEAPEAD@Z 000000014001e49c     libucrt:argv_wildcards.obj
 0002:000094b4       $unwind$??$copy_and_add_argument_to_buffer@D@@YAHQEBD0_KAEAV?$argument_list@D@?A0x5f5c8891@@@Z 000000014001e4b4     libucrt:argv_wildcards.obj
 0002:000094d0       $unwind$??$expand_argument_wildcards@D@@YAHQEAD0AEAV?$argument_list@D@?A0x5f5c8891@@@Z 000000014001e4d0     libucrt:argv_wildcards.obj
 0002:000094f0       $unwind$_setmbcp_nolock    000000014001e4f0     libucrt:mbctype.obj
 0002:00009510       $unwind$?update_thread_multibyte_data_internal@@YAPEAU__crt_multibyte_data@@QEAU__acrt_ptd@@QEAPEAU1@@Z 000000014001e510     libucrt:mbctype.obj
 0002:00009538       $unwind$?setmbcp_internal@@YAHH_NQEAU__acrt_ptd@@QEAPEAU__crt_multibyte_data@@@Z 000000014001e538     libucrt:mbctype.obj
 0002:00009548       $unwind$?setSBUpLow@@YAXPEAU__crt_multibyte_data@@@Z 000000014001e548     libucrt:mbctype.obj
 0002:00009564       $unwind$??$?RV<lambda_efdfa57d1f175319df784efa44bb7b81>@@AEAV<lambda_5f0a4c1567f8adc6734073e5d1e1b35c>@@V<lambda_2e8a7d3640ea6ccb4c2413664c2db6fd>@@@?$__crt_seh_guarded_call@X@@QEAAX$$QEAV<lambda_efdfa57d1f175319df784efa44bb7b81>@@AEAV<lambda_5f0a4c1567f8adc6734073e5d1e1b35c>@@$$QEAV<lambda_2e8a7d3640ea6ccb4c2413664c2db6fd>@@@Z 000000014001e564     libucrt:mbctype.obj
 0002:0000958c       $unwind$?x_ismbbtype_l@@YAHPEAU__crt_locale_pointers@@IHH@Z 000000014001e58c     libucrt:ismbbyte.obj
 0002:0000959c       $unwind$??$common_set_variable_in_environment_nolock@D@@YAHQEADH@Z 000000014001e59c     libucrt:setenv.obj
 0002:000095b4       $unwind$??$copy_environment@D@@YAPEAPEADQEAPEAD@Z 000000014001e5b4     libucrt:setenv.obj
 0002:000095c8       $unwind$raise              000000014001e5c8     libucrt:signal.obj
 0002:000095f4       $unwind$??$?RV<lambda_450d765d439847d4c735a33c368b5fc0>@@AEAV<lambda_44731a7d0e6d81c3e6aa82d741081786>@@V<lambda_601a2a7da3b7a96e9554ac7215c4b07c>@@@?$__crt_seh_guarded_call@P6AXH@Z@@QEAAP6AXH@Z$$QEAV<lambda_450d765d439847d4c735a33c368b5fc0>@@AEAV<lambda_44731a7d0e6d81c3e6aa82d741081786>@@$$QEAV<lambda_601a2a7da3b7a96e9554ac7215c4b07c>@@@Z 000000014001e5f4     libucrt:signal.obj
 0002:00009618       $unwind$__acrt_lowio_destroy_handle_array 000000014001e618     libucrt:osfinfo.obj
 0002:00009628       $unwind$__acrt_lowio_ensure_fh_exists 000000014001e628     libucrt:osfinfo.obj
 0002:00009654       $unwind$__acrt_locale_free_monetary 000000014001e654     libucrt:initmon.obj
 0002:0000965c       $unwind$__acrt_locale_free_time 000000014001e65c     libucrt:inittime.obj
 0002:0000966c       $unwind$__acrt_GetStringTypeA 000000014001e66c     libucrt:getstringtypea.obj
 0002:00009694       $unwind$__acrt_update_thread_locale_data 000000014001e694     libucrt:locale_refcounting.obj
 0002:000096b8       $unwind$_isctype_l         000000014001e6b8     libucrt:isctype.obj
 0002:000096d4       $unwind$?GetTableIndexFromLocaleName@@YAHPEB_W@Z 000000014001e6d4     libucrt:lcidtoname_downlevel.obj
 0002:000096ec       $unwind$fclose             000000014001e6ec     libucrt:fclose.obj
 0002:00009710       $unwind$_commit            000000014001e710     libucrt:commit.obj
 0002:00009710       $unwind$_close             000000014001e710     libucrt:close.obj
 0002:00009718       $unwind$??$?RV<lambda_a37b2b86f63e897a80ea819b0eb08c01>@@AEAV<lambda_38ce7e780aa69e748d6df282ebc68efe>@@V<lambda_99fb1378e971ab6e7edea83e3a7a83a2>@@@?$__crt_seh_guarded_call@H@@QEAAH$$QEAV<lambda_a37b2b86f63e897a80ea819b0eb08c01>@@AEAV<lambda_38ce7e780aa69e748d6df282ebc68efe>@@$$QEAV<lambda_99fb1378e971ab6e7edea83e3a7a83a2>@@@Z 000000014001e718     libucrt:commit.obj
 0002:0000973c       $unwind$_write             000000014001e73c     libucrt:write.obj
 0002:0000976c       $unwind$_write_nolock      000000014001e76c     libucrt:write.obj
 0002:00009784       $unwind$?write_double_translated_ansi_nolock@@YA?AUwrite_result@?A0x17268360@@HQEBDI@Z 000000014001e784     libucrt:write.obj
 0002:000097a4       $unwind$?write_text_ansi_nolock@@YA?AUwrite_result@?A0x17268360@@HQEBDI@Z 000000014001e7a4     libucrt:write.obj
 0002:000097a4       $unwind$?write_text_utf16le_nolock@@YA?AUwrite_result@?A0x17268360@@HQEBDI@Z 000000014001e7a4     libucrt:write.obj
 0002:000097c4       $unwind$?write_text_utf8_nolock@@YA?AUwrite_result@?A0x17268360@@HQEBDI@Z 000000014001e7c4     libucrt:write.obj
 0002:000097e8       $unwind$__acrt_LCMapStringA 000000014001e7e8     libucrt:lcmapstringa.obj
 0002:000097f8       $unwind$?__acrt_LCMapStringA_stat@@YAHPEAU__crt_locale_pointers@@PEB_WKPEBDHPEADHHH@Z 000000014001e7f8     libucrt:lcmapstringa.obj
 0002:00009820       $unwind$__acrt_fltout      000000014001e820     libucrt:cfout.obj
 0002:00009840       $unwind$?divide@__crt_strtox@@YA_KAEAUbig_integer@1@AEBU21@@Z 000000014001e840     libucrt:cfout.obj
 0002:00009860       $chain$5$?divide@__crt_strtox@@YA_KAEAUbig_integer@1@AEBU21@@Z 000000014001e860     libucrt:cfout.obj
 0002:00009874       $chain$6$?divide@__crt_strtox@@YA_KAEAUbig_integer@1@AEBU21@@Z 000000014001e874     libucrt:cfout.obj
 0002:00009884       $unwind$??$write_buffer_nolock@D@@YA_NDV__crt_stdio_stream@@@Z 000000014001e884     libucrt:_flsbuf.obj
 0002:00009894       $unwind$qsort              000000014001e894     libucrt:qsort.obj
 0002:000098ac       $chain$4$qsort             000000014001e8ac     libucrt:qsort.obj
 0002:000098d0       $chain$5$qsort             000000014001e8d0     libucrt:qsort.obj
 0002:000098e0       $unwind$strpbrk            000000014001e8e0     libucrt:strpbrk.obj
 0002:000098f0       $unwind$fallbackMethod     000000014001e8f0     libucrt:strpbrk.obj
 0002:00009900       $unwind$_mbsdec_l          000000014001e900     libucrt:mbsdec.obj
 0002:0000990c       $unwind$_strnicoll_l       000000014001e90c     libucrt:strnicol.obj
 0002:00009920       $unwind$??$?RV<lambda_751a882b2c74d4b022dec766aa51a29a>@@AEAV<lambda_628dfdc04ba53c8bfc02c9951375f3f5>@@V<lambda_f6c7be5f7998530c34de24c7437d6b54>@@@?$__crt_seh_guarded_call@H@@QEAAH$$QEAV<lambda_751a882b2c74d4b022dec766aa51a29a>@@AEAV<lambda_628dfdc04ba53c8bfc02c9951375f3f5>@@$$QEAV<lambda_f6c7be5f7998530c34de24c7437d6b54>@@@Z 000000014001e920     libucrt:close.obj
 0002:00009944       $unwind$??$common_lseek@_J@@YA_JH_JH@Z 000000014001e944     libucrt:lseek.obj
 0002:00009978       $xdatasym                  000000014001e978     libucrt:log10.obj
 0002:00009984       $unwind$_strnicmp_l        000000014001e984     libucrt:strnicmp.obj
 0002:00009984       $unwind$__dcrt_write_console_w 000000014001e984     libucrt:initcon.obj
 0002:00009998       $unwind$__acrt_CompareStringA 000000014001e998     libucrt:comparestringa.obj
 0002:000099a8       $unwind$?InternalCompareStringA@@YAHPEAU__crt_locale_pointers@@PEB_WKPEBDH2HH@Z 000000014001e9a8     libucrt:comparestringa.obj
 0002:000099cc       $unwind$__acrt_fenv_set_control 000000014001e9cc     libucrt:_fenvutils.obj
 0002:000099dc       $unwind$_call_matherr      000000014001e9dc     libucrt:libm_error.obj
 0002:000099e4       $unwind$_handle_error      000000014001e9e4     libucrt:libm_error.obj
 0002:00009a04       $unwind$__acrt_initialize_fma3 000000014001ea04     libucrt:fma3_available.obj
 0002:00009a0c       $unwind$_log_special_common 000000014001ea0c     libucrt:log_special.obj
 0002:00009a18       $xdatasym                  000000014001ea18     libucrt:fpsr.obj
 0002:00009a20       $unwind$_raise_exc_ex      000000014001ea20     libucrt:fpexcept.obj
 0002:00009a34       $unwind$_ctrlfp            000000014001ea34     libucrt:fpctrl.obj
 0002:00009a5c       $unwind$ParseCommandLine   000000014001ea5c     SDL2main:SDL_windows_main.obj
 0002:00009a68       $chain$2$main_getcmdline   000000014001ea68     SDL2main:SDL_windows_main.obj
 0002:00009a7c       $chain$0$main_getcmdline   000000014001ea7c     SDL2main:SDL_windows_main.obj
 0002:00009a90       $unwind$main_getcmdline    000000014001ea90     SDL2main:SDL_windows_main.obj
 0002:00009a9c       $unwind$_IsNonwritableInCurrentImage 000000014001ea9c     LIBCMT:pesect.obj
 0002:00009ac0       $xdatasym                  000000014001eac0     LIBCMT:_chkstk_.obj
 0002:00009ac8       $xdatasym                  000000014001eac8     libvcruntime:memcmp.obj
 0002:00009acc       $unwind$strrchr            000000014001eacc     libvcruntime:strrchr.obj
 0002:00009acc       $unwind$strchr             000000014001eacc     libvcruntime:strchr.obj
 0002:0000a1cc       .idata$6                   000000014001f1cc     SDL2:SDL2.dll
 0002:0000a20c       .idata$6                   000000014001f20c     SDL2_image:SDL2_image.dll
 0002:0000a38c       .idata$6                   000000014001f38c     kernel32:KERNEL32.dll
 0003:00000040       ?__vcrt_flsindex@@3KA      0000000140020040     libvcruntime:per_thread_data.obj
 0003:00000160       ?__acrt_flsindex@@3KA      0000000140020160     libucrt:per_thread_data.obj
 0003:00000164       ?errno_no_memory@@3HA      0000000140020164     libucrt:errno.obj
 0003:00000168       ?doserrno_no_memory@@3KA   0000000140020168     libucrt:errno.obj
 0003:00000550       _mbctypes                  0000000140020550     libucrt:mbctype.obj
 0003:00000660       _mbcasemaps                0000000140020660     libucrt:mbctype.obj
 0003:00000760       ?__rgctypeflag@@3PADA      0000000140020760     libucrt:mbctype.obj
 0003:00000770       ?__rgcode_page_info@@3PAUcode_page_info@@A 0000000140020770     libucrt:mbctype.obj
 0003:00000910       ?__dcrt_lowio_console_output_handle@@3PEAXEA 0000000140020910     libucrt:initcon.obj
 0003:00000920       ?dazSupported@?1??_ctrlfp@@9@9 0000000140020920     libucrt:fpctrl.obj
 0003:00000ad8       ?module_local_atexit_table@@3U_onexit_table_t@@A 0000000140020ad8     LIBCMT:utility.obj
 0003:00000af0       ?module_local_at_quick_exit_table@@3U_onexit_table_t@@A 0000000140020af0     LIBCMT:utility.obj
 0003:00000b08       ?module_local_atexit_table_initialized@@3_NA 0000000140020b08     LIBCMT:utility.obj
 0003:00000b18       ?is_initialized_as_dll@@3_NA 0000000140020b18     LIBCMT:utility.obj
 0003:00000b30       GS_ExceptionRecord         0000000140020b30     LIBCMT:gs_report.obj
 0003:00000bd0       GS_ContextRecord           0000000140020bd0     LIBCMT:gs_report.obj
 0003:000010c0       ?__vcrt_startup_thread_ptd@@3U__vcrt_ptd@@A 00000001400210c0     libvcruntime:per_thread_data.obj
 0003:00001138       __vcrt_lock_table          0000000140021138     libvcruntime:locks.obj
 0003:00001160       __vcrt_locks_initialized   0000000140021160     libvcruntime:locks.obj
 0003:00001168       ?module_handles@@3PAPEAUHINSTANCE__@@A 0000000140021168     libvcruntime:winapi_downlevel.obj
 0003:00001180       ?encoded_function_pointers@@3PAPEAXA 0000000140021180     libvcruntime:winapi_downlevel.obj
 0003:000011f0       ?heap@@3V_HeapManager@@A   00000001400211f0     libvcruntime:undname.obj
 0003:00001220       ?__acrt_invalid_parameter_handler@@3V?$dual_state_global@P6AXPEB_W00I_K@Z@__crt_state_management@@A 0000000140021220     libucrt:invalid_parameter.obj
 0003:00001240       ?__acrt_new_handler@@3V?$dual_state_global@P6AH_K@Z@__crt_state_management@@A 0000000140021240     libucrt:new_handler.obj
 0003:00001248       ?c_termination_complete@@3JA 0000000140021248     libucrt:exit.obj
 0003:00001250       ?thread_local_exit_callback_func@@3P6AXPEAXK0@ZEA 0000000140021250     libucrt:exit.obj
 0003:00001260       ?program_name@?1???$common_configure_argv@D@@YAHW4_crt_argv_mode@@@Z@4PADA 0000000140021260     libucrt:argv_parsing.obj
 0003:000013b8       ?__acrt_app_type@@3W4_crt_app_type@@A 00000001400213b8     libucrt:report_runtime_error.obj
 0003:000013c0       ?user_matherr@@3V?$dual_state_global@P6AHPEAU_exception@@@Z@__crt_state_management@@A 00000001400213c0     libucrt:matherr.obj
 0003:000013fc       ?__acrt_global_new_mode@@3V?$dual_state_global@J@__crt_state_management@@A 00000001400213fc     libucrt:new_mode.obj
 0003:00001410       ?module_handles@@3PAPEAUHINSTANCE__@@A 0000000140021410     libucrt:winapi_thunks.obj
 0003:000014b0       ?encoded_function_pointers@@3PAPEAXA 00000001400214b0     libucrt:winapi_thunks.obj
 0003:000019c8       ?enable_percent_n@@3_KA    00000001400219c8     libucrt:printf_count_output.obj
 0003:000019f0       ?__acrt_lock_table@@3PAU_RTL_CRITICAL_SECTION@@A 00000001400219f0     libucrt:locks.obj
 0003:00001c20       ?__acrt_locks_initialized@@3IA 0000000140021c20     libucrt:locks.obj
 0003:00001c40       ?fSystemSet@@3HA           0000000140021c40     libucrt:mbctype.obj
 0003:00001c44       ?initialized@?1??__acrt_initialize_multibyte@@9@4_NA 0000000140021c44     libucrt:mbctype.obj
 0003:00001c50       ?ctrlc_action@@3V?$dual_state_global@P6AXH@Z@__crt_state_management@@A 0000000140021c50     libucrt:signal.obj
 0003:00001c58       ?ctrlbreak_action@@3V?$dual_state_global@P6AXH@Z@__crt_state_management@@A 0000000140021c58     libucrt:signal.obj
 0003:00001c60       ?abort_action@@3V?$dual_state_global@P6AXH@Z@__crt_state_management@@A 0000000140021c60     libucrt:signal.obj
 0003:00001c68       ?term_action@@3V?$dual_state_global@P6AXH@Z@__crt_state_management@@A 0000000140021c68     libucrt:signal.obj
 0004:00000000       $pdata$SDL_main            0000000140022000     main.obj
 0004:0000000c       $pdata$??1LTexture@@QEAA@XZ 000000014002200c     main.obj
 0004:00000018       $pdata$?loadFromFile@LTexture@@QEAA_NV?$basic_string@DU?$char_traits@D@std@@V?$allocator@D@2@@std@@@Z 0000000140022018     main.obj
 0004:00000024       $pdata$?free@LTexture@@QEAAXXZ 0000000140022024     main.obj
 0004:00000030       $pdata$?setColor@LTexture@@QEAAXEEE@Z 0000000140022030     main.obj
 0004:0000003c       $pdata$?setBlendMode@LTexture@@QEAAXW4SDL_BlendMode@@@Z 000000014002203c     main.obj
 0004:00000048       $pdata$?setAlpha@LTexture@@QEAAXE@Z 0000000140022048     main.obj
 0004:00000054       $pdata$?render@LTexture@@QEAAXHHPEAUSDL_Rect@@@Z 0000000140022054     main.obj
 0004:00000060       $pdata$?init@@YA_NXZ       0000000140022060     main.obj
 0004:0000006c       $pdata$?loadMedia@@YA_NXZ  000000014002206c     main.obj
 0004:00000078       $pdata$?close@@YAXXZ       0000000140022078     main.obj
 0004:00000084       $pdata$?loadTexture@@YAPEAUSDL_Texture@@V?$basic_string@DU?$char_traits@D@std@@V?$allocator@D@2@@std@@@Z 0000000140022084     main.obj
 0004:00000090       $pdata$_vfprintf_s_l       0000000140022090     main.obj
 0004:0000009c       $pdata$printf_s            000000014002209c     main.obj
 0004:000000a8       $pdata$?length@?$char_traits@D@std@@SA_KQEBD@Z 00000001400220a8     main.obj
 0004:000000b4       $pdata$?copy@?$char_traits@D@std@@SAPEADQEADQEBD_K@Z 00000001400220b4     main.obj
 0004:000000c0       $pdata$?move@?$char_traits@D@std@@SAPEADQEADQEBD_K@Z 00000001400220c0     main.obj
 0004:000000cc       $pdata$?_Allocate@_Default_allocate_traits@std@@SAPEAX_K@Z 00000001400220cc     main.obj
 0004:000000d8       $pdata$?_Adjust_manually_vector_aligned@std@@YAXAEAPEAXAEA_K@Z 00000001400220d8     main.obj
 0004:000000e4       $pdata$?deallocate@?$allocator@D@std@@QEAAXQEAD_K@Z 00000001400220e4     main.obj
 0004:000000f0       $pdata$?allocate@?$allocator@D@std@@QEAAPEAD_K@Z 00000001400220f0     main.obj
 0004:000000fc       $pdata$??0?$_String_val@U?$_Simple_types@D@std@@@std@@QEAA@XZ 00000001400220fc     main.obj
 0004:00000108       $pdata$?_Myptr@?$_String_val@U?$_Simple_types@D@std@@@std@@QEBAPEBDXZ 0000000140022108     main.obj
 0004:00000108       $pdata$?_Myptr@?$_String_val@U?$_Simple_types@D@std@@@std@@QEAAPEADXZ 0000000140022108     main.obj
 0004:00000114       $pdata$?_Large_string_engaged@?$_String_val@U?$_Simple_types@D@std@@@std@@QEBA_NXZ 0000000140022114     main.obj
 0004:00000120       $pdata$??1?$_String_val@U?$_Simple_types@D@std@@@std@@QEAA@XZ 0000000140022120     main.obj
 0004:0000012c       $pdata$??0?$_String_alloc@U?$_String_base_types@DV?$allocator@D@std@@@std@@@std@@QEAA@XZ 000000014002212c     main.obj
 0004:00000138       $pdata$?_Orphan_all@?$_String_alloc@U?$_String_base_types@DV?$allocator@D@std@@@std@@@std@@QEAAXXZ 0000000140022138     main.obj
 0004:00000144       $pdata$?_Get_data@?$_String_alloc@U?$_String_base_types@DV?$allocator@D@std@@@std@@@std@@QEBAAEBV?$_String_val@U?$_Simple_types@D@std@@@2@XZ 0000000140022144     main.obj
 0004:00000144       $pdata$?_Get_data@?$_String_alloc@U?$_String_base_types@DV?$allocator@D@std@@@std@@@std@@QEAAAEAV?$_String_val@U?$_Simple_types@D@std@@@2@XZ 0000000140022144     main.obj
 0004:00000144       $pdata$?_Getal@?$_String_alloc@U?$_String_base_types@DV?$allocator@D@std@@@std@@@std@@QEBAAEBV?$allocator@D@2@XZ 0000000140022144     main.obj
 0004:00000144       $pdata$?_Getal@?$_String_alloc@U?$_String_base_types@DV?$allocator@D@std@@@std@@@std@@QEAAAEAV?$allocator@D@2@XZ 0000000140022144     main.obj
 0004:00000150       $pdata$??1?$_Compressed_pair@V?$allocator@D@std@@V?$_String_val@U?$_Simple_types@D@std@@@2@$00@std@@QEAA@XZ 0000000140022150     main.obj
 0004:0000015c       $pdata$??1?$_String_alloc@U?$_String_base_types@DV?$allocator@D@std@@@std@@@std@@QEAA@XZ 000000014002215c     main.obj
 0004:00000168       $pdata$??0?$basic_string@DU?$char_traits@D@std@@V?$allocator@D@2@@std@@QEAA@QEBD@Z 0000000140022168     main.obj
 0004:00000174       $pdata$?dtor$0@?0???0?$basic_string@DU?$char_traits@D@std@@V?$allocator@D@2@@std@@QEAA@QEBD@Z@4HA 0000000140022174     main.obj
 0004:00000180       $pdata$??1?$basic_string@DU?$char_traits@D@std@@V?$allocator@D@2@@std@@QEAA@XZ 0000000140022180     main.obj
 0004:0000018c       $pdata$?assign@?$basic_string@DU?$char_traits@D@std@@V?$allocator@D@2@@std@@QEAAAEAV12@QEBD_K@Z 000000014002218c     main.obj
 0004:00000198       $pdata$?assign@?$basic_string@DU?$char_traits@D@std@@V?$allocator@D@2@@std@@QEAAAEAV12@QEBD@Z 0000000140022198     main.obj
 0004:000001a4       $pdata$?c_str@?$basic_string@DU?$char_traits@D@std@@V?$allocator@D@2@@std@@QEBAPEBDXZ 00000001400221a4     main.obj
 0004:000001b0       $pdata$?max_size@?$basic_string@DU?$char_traits@D@std@@V?$allocator@D@2@@std@@QEBA_KXZ 00000001400221b0     main.obj
 0004:000001bc       $pdata$?_Calculate_growth@?$basic_string@DU?$char_traits@D@std@@V?$allocator@D@2@@std@@QEBA_K_K@Z 00000001400221bc     main.obj
 0004:000001c8       $pdata$?_Tidy_init@?$basic_string@DU?$char_traits@D@std@@V?$allocator@D@2@@std@@QEAAXXZ 00000001400221c8     main.obj
 0004:000001d4       $pdata$?_Tidy_deallocate@?$basic_string@DU?$char_traits@D@std@@V?$allocator@D@2@@std@@QEAAXXZ 00000001400221d4     main.obj
 0004:000001e0       $pdata$?_Xlen@?$basic_string@DU?$char_traits@D@std@@V?$allocator@D@2@@std@@SAXXZ 00000001400221e0     main.obj
 0004:000001ec       $pdata$?dtor$0@?0??loadFromFile@LTexture@@QEAA_NV?$basic_string@DU?$char_traits@D@std@@V?$allocator@D@2@@std@@@Z@4HA 00000001400221ec     main.obj
 0004:000001f8       $pdata$??__EgTexture@@YAXXZ 00000001400221f8     main.obj
 0004:00000204       $pdata$??__FgTexture@@YAXXZ 0000000140022204     main.obj
 0004:00000210       $pdata$??__EgBackgroundTexture@@YAXXZ 0000000140022210     main.obj
 0004:0000021c       $pdata$??__FgBackgroundTexture@@YAXXZ 000000014002221c     main.obj
 0004:00000228       $pdata$??$_Min_value@_K@std@@YAAEB_KAEB_K0@Z 0000000140022228     main.obj
 0004:00000234       $pdata$??$?0$$V@?$_Compressed_pair@V?$allocator@D@std@@V?$_String_val@U?$_Simple_types@D@std@@@2@$00@std@@QEAA@U_Zero_then_variadic_args_t@1@@Z 0000000140022234     main.obj
 0004:00000240       $pdata$??$_Max_value@_K@std@@YAAEB_KAEB_K0@Z 0000000140022240     main.obj
 0004:0000024c       $pdata$??R<lambda_66f57f934f28d61049862f64df852ff0>@@QEBAXQEAD_KQEBD@Z 000000014002224c     main.obj
 0004:00000258       $pdata$??$_Reallocate_for@V<lambda_66f57f934f28d61049862f64df852ff0>@@PEBD@?$basic_string@DU?$char_traits@D@std@@V?$allocator@D@2@@std@@QEAAAEAV01@_KV<lambda_66f57f934f28d61049862f64df852ff0>@@PEBD@Z 0000000140022258     main.obj
 0004:00000264       $pdata$??$construct@PEADAEBQEAD@?$_Default_allocator_traits@V?$allocator@D@std@@@std@@SAXAEAV?$allocator@D@1@QEAPEADAEBQEAD@Z 0000000140022264     main.obj
 0004:00000270       $pdata$??$_Allocate@$0BA@U_Default_allocate_traits@std@@$0A@@std@@YAPEAX_K@Z 0000000140022270     main.obj
 0004:0000027c       $pdata$??$_Deallocate@$0BA@$0A@@std@@YAXPEAX_K@Z 000000014002227c     main.obj
 0004:00000288       $pdata$??$_Allocate_manually_vector_aligned@U_Default_allocate_traits@std@@@std@@YAPEAX_K@Z 0000000140022288     main.obj
 0004:00000294       $pdata$??0exception@std@@QEAA@AEBV01@@Z 0000000140022294     libcpmt:xthrow.obj
 0004:000002a0       $pdata$??_Gbad_array_new_length@std@@UEAAPEAXI@Z 00000001400222a0     LIBCMT:throw_bad_alloc.obj
 0004:000002a0       $pdata$??_Gbad_exception@std@@UEAAPEAXI@Z 00000001400222a0     libvcruntime:frame.obj
 0004:000002a0       $pdata$??_Glogic_error@std@@UEAAPEAXI@Z 00000001400222a0     libcpmt:xthrow.obj
 0004:000002a0       $pdata$??_Gexception@std@@UEAAPEAXI@Z 00000001400222a0     libcpmt:xthrow.obj
 0004:000002a0       $pdata$??_Glength_error@std@@UEAAPEAXI@Z 00000001400222a0     libcpmt:xthrow.obj
 0004:000002a0       $pdata$??_Gbad_alloc@std@@UEAAPEAXI@Z 00000001400222a0     libcpmt:xthrow.obj
 0004:000002ac       $pdata$??0bad_alloc@std@@QEAA@AEBV01@@Z 00000001400222ac     libcpmt:xthrow.obj
 0004:000002b8       $pdata$?_Xlength_error@std@@YAXPEBD@Z 00000001400222b8     libcpmt:xthrow.obj
 0004:000002c4       $pdata$??0logic_error@std@@QEAA@AEBV01@@Z 00000001400222c4     libcpmt:xthrow.obj
 0004:000002d0       $pdata$??0length_error@std@@QEAA@PEBD@Z 00000001400222d0     libcpmt:xthrow.obj
 0004:000002dc       $pdata$??0length_error@std@@QEAA@AEBV01@@Z 00000001400222dc     libcpmt:xthrow.obj
 0004:000002e8       $pdata$??2@YAPEAX_K@Z      00000001400222e8     LIBCMT:new_scalar.obj
 0004:000002f4       $pdata$atexit              00000001400222f4     LIBCMT:utility.obj
 0004:00000300       $pdata$_onexit             0000000140022300     LIBCMT:utility.obj
 0004:0000030c       $pdata$__scrt_is_nonwritable_in_current_image 000000014002230c     LIBCMT:utility.obj
 0004:00000318       $pdata$__scrt_is_nonwritable_in_current_image$filt$0 0000000140022318     LIBCMT:utility.obj
 0004:00000324       $pdata$__scrt_acquire_startup_lock 0000000140022324     LIBCMT:utility.obj
 0004:00000330       $pdata$__scrt_release_startup_lock 0000000140022330     LIBCMT:utility.obj
 0004:0000033c       $pdata$__scrt_initialize_crt 000000014002233c     LIBCMT:utility.obj
 0004:00000348       $pdata$__scrt_uninitialize_crt 0000000140022348     LIBCMT:utility.obj
 0004:00000354       $pdata$__scrt_initialize_onexit_tables 0000000140022354     LIBCMT:utility.obj
 0004:00000360       $pdata$__GSHandlerCheckCommon 0000000140022360     LIBCMT:_gshandler_.obj
 0004:0000036c       $pdata$__GSHandlerCheck    000000014002236c     LIBCMT:_gshandler_.obj
 0004:00000384       $pdata$?pre_c_initialization@@YAHXZ 0000000140022384     LIBCMT:exe_main.obj
 0004:00000390       $pdata$?post_pgo_initialization@@YAHXZ 0000000140022390     LIBCMT:exe_main.obj
 0004:0000039c       $pdata$?pre_cpp_initialization@@YAXXZ 000000014002239c     LIBCMT:exe_main.obj
 0004:000003a8       $pdata$?__scrt_common_main_seh@@YAHXZ 00000001400223a8     LIBCMT:exe_main.obj
 0004:000003b4       $pdata$?filt$0@?0??__scrt_common_main_seh@@YAHXZ@4HA 00000001400223b4     LIBCMT:exe_main.obj
 0004:000003c0       $pdata$mainCRTStartup      00000001400223c0     LIBCMT:exe_main.obj
 0004:000003cc       $pdata$??_Gtype_info@@UEAAPEAXI@Z 00000001400223cc     LIBCMT:std_type_info_static.obj
 0004:000003d8       $pdata$??0bad_array_new_length@std@@QEAA@AEBV01@@Z 00000001400223d8     LIBCMT:throw_bad_alloc.obj
 0004:000003e4       $pdata$?__scrt_throw_std_bad_alloc@@YAXXZ 00000001400223e4     LIBCMT:throw_bad_alloc.obj
 0004:000003f0       $pdata$?__scrt_throw_std_bad_array_new_length@@YAXXZ 00000001400223f0     LIBCMT:throw_bad_alloc.obj
 0004:000003fc       $pdata$__isa_available_init 00000001400223fc     LIBCMT:_cpu_disp_.obj
 0004:00000408       $pdata$__scrt_is_managed_app 0000000140022408     LIBCMT:utility_desktop.obj
 0004:00000414       $pdata$__scrt_fastfail     0000000140022414     LIBCMT:utility_desktop.obj
 0004:00000420       $pdata$__scrt_unhandled_exception_filter 0000000140022420     LIBCMT:utility_desktop.obj
 0004:0000042c       $pdata$__report_securityfailure 000000014002242c     LIBCMT:gs_report.obj
 0004:00000438       $pdata$__report_rangecheckfailure 0000000140022438     LIBCMT:gs_report.obj
 0004:00000444       $pdata$__report_gsfailure  0000000140022444     LIBCMT:gs_report.obj
 0004:00000450       $pdata$capture_current_context 0000000140022450     LIBCMT:gs_report.obj
 0004:0000045c       $pdata$capture_previous_context 000000014002245c     LIBCMT:gs_report.obj
 0004:00000468       $pdata$__raise_securityfailure 0000000140022468     LIBCMT:gs_report.obj
 0004:00000474       $pdata$__security_init_cookie 0000000140022474     LIBCMT:gs_support.obj
 0004:00000480       $pdata$__scrt_initialize_default_local_stdio_options 0000000140022480     LIBCMT:default_local_stdio_options.obj
 0004:0000048c       $pdata$_RTC_Initialize     000000014002248c     LIBCMT:_initsect_.obj
 0004:00000498       $pdata$_RTC_Terminate      0000000140022498     LIBCMT:_initsect_.obj
 0004:000004ec       $pdata$?_GetEstablisherFrame@@YAPEA_KPEA_KPEAU_xDISPATCHER_CONTEXT@@PEBU_s_FuncInfo@@0@Z 00000001400224ec     libvcruntime:risctrnsctrl.obj
 0004:000004f8       $pdata$_GetImageBase       00000001400224f8     libvcruntime:risctrnsctrl.obj
 0004:00000504       $pdata$_SetImageBase       0000000140022504     libvcruntime:risctrnsctrl.obj
 0004:00000510       $pdata$_GetThrowImageBase  0000000140022510     libvcruntime:risctrnsctrl.obj
 0004:0000051c       $pdata$_SetThrowImageBase  000000014002251c     libvcruntime:risctrnsctrl.obj
 0004:00000528       $pdata$?__FrameUnwindToEmptyState@@YAXPEA_KPEAU_xDISPATCHER_CONTEXT@@PEBU_s_FuncInfo@@@Z 0000000140022528     libvcruntime:risctrnsctrl.obj
 0004:00000534       $pdata$_CallSETranslator   0000000140022534     libvcruntime:risctrnsctrl.obj
 0004:00000540       $pdata$_CallSETranslator$filt$0 0000000140022540     libvcruntime:risctrnsctrl.obj
 0004:0000054c       $pdata$?_GetRangeOfTrysToCheck@@YAPEBU_s_TryBlockMapEntry@@PEA_KPEBU_s_FuncInfo@@HHPEAI2PEAU_xDISPATCHER_CONTEXT@@@Z 000000014002254c     libvcruntime:risctrnsctrl.obj
 0004:00000558       $pdata$_UnwindNestedFrames 0000000140022558     libvcruntime:risctrnsctrl.obj
 0004:00000564       $pdata$?_ExecutionInCatch@@YAHPEAU_xDISPATCHER_CONTEXT@@PEBU_s_FuncInfo@@@Z 0000000140022564     libvcruntime:risctrnsctrl.obj
 0004:00000570       $pdata$_CreateFrameInfo    0000000140022570     libvcruntime:risctrnsctrl.obj
 0004:0000057c       $pdata$_FindAndUnlinkFrame 000000014002257c     libvcruntime:risctrnsctrl.obj
 0004:00000588       $pdata$__CxxFrameHandler3  0000000140022588     libvcruntime:risctrnsctrl.obj
 0004:00000594       $pdata$__std_exception_copy 0000000140022594     libvcruntime:std_exception.obj
 0004:000005a0       $pdata$__std_exception_destroy 00000001400225a0     libvcruntime:std_exception.obj
 0004:000005ac       $pdata$_CxxThrowException  00000001400225ac     libvcruntime:throw.obj
 0004:000005b8       $pdata$__vcrt_initialize   00000001400225b8     libvcruntime:initialization.obj
 0004:000005c4       $pdata$__vcrt_uninitialize 00000001400225c4     libvcruntime:initialization.obj
 0004:000005d0       $pdata$__C_specific_handler 00000001400225d0     libvcruntime:_riscchandler_.obj
 0004:000005e8       $pdata$__vcrt_initialize_ptd 00000001400225e8     libvcruntime:per_thread_data.obj
 0004:000005f4       $pdata$__vcrt_uninitialize_ptd 00000001400225f4     libvcruntime:per_thread_data.obj
 0004:00000600       $pdata$__vcrt_getptd       0000000140022600     libvcruntime:per_thread_data.obj
 0004:0000060c       $pdata$__vcrt_getptd_noexit 000000014002260c     libvcruntime:per_thread_data.obj
 0004:00000618       $pdata$__vcrt_freefls      0000000140022618     libvcruntime:per_thread_data.obj
 0004:00000624       $pdata$?__GetCurrentState@@YAHPEA_KPEAU_xDISPATCHER_CONTEXT@@PEBU_s_FuncInfo@@@Z 0000000140022624     libvcruntime:riscehstate.obj
 0004:00000630       $pdata$?__SetUnwindTryBlock@@YAXPEA_KPEAU_xDISPATCHER_CONTEXT@@PEBU_s_FuncInfo@@H@Z 0000000140022630     libvcruntime:riscehstate.obj
 0004:0000063c       $pdata$?__GetUnwindTryBlock@@YAHPEA_KPEAU_xDISPATCHER_CONTEXT@@PEBU_s_FuncInfo@@@Z 000000014002263c     libvcruntime:riscehstate.obj
 0004:00000648       $pdata$?__StateFromIp@@YAHPEBU_s_FuncInfo@@PEAU_xDISPATCHER_CONTEXT@@_K@Z 0000000140022648     libvcruntime:riscehstate.obj
 0004:00000654       $pdata$__CxxCallCatchBlock 0000000140022654     libvcruntime:frame.obj
 0004:00000660       $pdata$__CxxCallCatchBlock$filt$0 0000000140022660     libvcruntime:frame.obj
 0004:0000066c       $pdata$__CxxCallCatchBlock$fin$1 000000014002266c     libvcruntime:frame.obj
 0004:00000678       $pdata$??0bad_exception@std@@QEAA@AEBV01@@Z 0000000140022678     libvcruntime:frame.obj
 0004:00000684       $pdata$__BuildCatchObject  0000000140022684     libvcruntime:frame.obj
 0004:00000690       $pdata$__TypeMatch         0000000140022690     libvcruntime:frame.obj
 0004:0000069c       $pdata$__InternalCxxFrameHandler 000000014002269c     libvcruntime:frame.obj
 0004:000006a8       $pdata$__FrameUnwindToState 00000001400226a8     libvcruntime:frame.obj
 0004:000006b4       $pdata$__FrameUnwindToState$filt$0 00000001400226b4     libvcruntime:frame.obj
 0004:000006c0       $pdata$__FrameUnwindToState$fin$1 00000001400226c0     libvcruntime:frame.obj
 0004:000006cc       $pdata$?FindHandler@@YAXPEAUEHExceptionRecord@@PEA_KPEAU_CONTEXT@@PEAU_xDISPATCHER_CONTEXT@@PEBU_s_FuncInfo@@EH1@Z 00000001400226cc     libvcruntime:frame.obj
 0004:000006d8       $pdata$?CatchIt@@YAXPEAUEHExceptionRecord@@PEA_KPEAU_CONTEXT@@PEAU_xDISPATCHER_CONTEXT@@PEBU_s_FuncInfo@@PEBU_s_HandlerType@@PEBU_s_CatchableType@@PEBU_s_TryBlockMapEntry@@H1EE@Z 00000001400226d8     libvcruntime:frame.obj
 0004:000006e4       $pdata$?FindHandlerForForeignException@@YAXPEAUEHExceptionRecord@@PEA_KPEAU_CONTEXT@@PEAU_xDISPATCHER_CONTEXT@@PEBU_s_FuncInfo@@HH1@Z 00000001400226e4     libvcruntime:frame.obj
 0004:000006f0       $pdata$?ExFilterRethrow@@YAHPEAU_EXCEPTION_POINTERS@@PEAUEHExceptionRecord@@PEAH@Z 00000001400226f0     libvcruntime:frame.obj
 0004:000006fc       $pdata$?IsInExceptionSpec@@YAEPEAUEHExceptionRecord@@PEBU_s_ESTypeList@@@Z 00000001400226fc     libvcruntime:frame.obj
 0004:00000708       $pdata$__BuildCatchObjectHelper 0000000140022708     libvcruntime:frame.obj
 0004:00000714       $pdata$__vcrt_initialize_locks 0000000140022714     libvcruntime:locks.obj
 0004:00000720       $pdata$__vcrt_uninitialize_locks 0000000140022720     libvcruntime:locks.obj
 0004:0000072c       $pdata$__vcrt_FlsAlloc     000000014002272c     libvcruntime:winapi_downlevel.obj
 0004:00000738       $pdata$__vcrt_FlsFree      0000000140022738     libvcruntime:winapi_downlevel.obj
 0004:00000744       $pdata$__vcrt_FlsGetValue  0000000140022744     libvcruntime:winapi_downlevel.obj
 0004:00000750       $pdata$__vcrt_FlsSetValue  0000000140022750     libvcruntime:winapi_downlevel.obj
 0004:0000075c       $pdata$__vcrt_InitializeCriticalSectionEx 000000014002275c     libvcruntime:winapi_downlevel.obj
 0004:00000768       $pdata$__vcrt_initialize_winapi_thunks 0000000140022768     libvcruntime:winapi_downlevel.obj
 0004:00000774       $pdata$__vcrt_uninitialize_winapi_thunks 0000000140022774     libvcruntime:winapi_downlevel.obj
 0004:00000780       $pdata$?try_get_function@@YAPEAXW4function_id@?A0xbfbae6a7@@QEBDQEBW4module_id@2@2@Z 0000000140022780     libvcruntime:winapi_downlevel.obj
 0004:000007c8       $pdata$_IsExceptionObjectToBeDestroyed 00000001400227c8     libvcruntime:ehhelpers.obj
 0004:000007d4       $pdata$__FrameUnwindFilter 00000001400227d4     libvcruntime:ehhelpers.obj
 0004:000007e0       $pdata$__DestructExceptionObject 00000001400227e0     libvcruntime:ehhelpers.obj
 0004:000007ec       $pdata$__DestructExceptionObject$filt$0 00000001400227ec     libvcruntime:ehhelpers.obj
 0004:000007f8       $pdata$_invalid_parameter_noinfo 00000001400227f8     libucrt:invalid_parameter.obj
 0004:00000804       $pdata$_invalid_parameter_noinfo_noreturn 0000000140022804     libucrt:invalid_parameter.obj
 0004:00000810       $pdata$_invoke_watson      0000000140022810     libucrt:invalid_parameter.obj
 0004:0000081c       $pdata$__acrt_call_reportfault 000000014002281c     libucrt:invalid_parameter.obj
 0004:00000828       $pdata$_invalid_parameter  0000000140022828     libucrt:invalid_parameter.obj
 0004:00000834       $pdata$__acrt_initialize_stdio 0000000140022834     libucrt:_file.obj
 0004:00000840       $pdata$__acrt_uninitialize_stdio 0000000140022840     libucrt:_file.obj
 0004:0000084c       $pdata$??0_LocaleUpdate@@QEAA@QEAU__crt_locale_pointers@@@Z 000000014002284c     libucrt:output.obj
 0004:00000858       $pdata$__stdio_common_vfprintf_s 0000000140022858     libucrt:output.obj
 0004:00000864       $pdata$?validate_stream_is_ansi_if_required@?$__acrt_stdio_char_traits@D@@SA_NQEAU_iobuf@@@Z 0000000140022864     libucrt:output.obj
 0004:00000870       $pdata$?force_decimal_point@__crt_stdio_output@@YAXPEADQEAU__crt_locale_pointers@@@Z 0000000140022870     libucrt:output.obj
 0004:0000087c       $pdata$?write_string_impl@?$output_adapter_common@DV?$stream_output_adapter@D@__crt_stdio_output@@@__crt_stdio_output@@IEBAXQEBDHQEAHAEAV__crt_deferred_errno_cache@@@Z 000000014002287c     libucrt:output.obj
 0004:00000888       $pdata$?process@?$output_processor@DV?$stream_output_adapter@D@__crt_stdio_output@@V?$format_validation_base@DV?$stream_output_adapter@D@__crt_stdio_output@@@2@@__crt_stdio_output@@QEAAHXZ 0000000140022888     libucrt:output.obj
 0004:00000894       $pdata$?state_case_normal@?$output_processor@DV?$stream_output_adapter@D@__crt_stdio_output@@V?$format_validation_base@DV?$stream_output_adapter@D@__crt_stdio_output@@@2@@__crt_stdio_output@@AEAA_NXZ 0000000140022894     libucrt:output.obj
 0004:000008a0       $pdata$?state_case_normal_tchar@?$output_processor@DV?$stream_output_adapter@D@__crt_stdio_output@@V?$format_validation_base@DV?$stream_output_adapter@D@__crt_stdio_output@@@2@@__crt_stdio_output@@AEAA_ND@Z 00000001400228a0     libucrt:output.obj
 0004:000008ac       $pdata$?parse_int_from_format_string@?$output_processor@DV?$stream_output_adapter@D@__crt_stdio_output@@V?$format_validation_base@DV?$stream_output_adapter@D@__crt_stdio_output@@@2@@__crt_stdio_output@@AEAA_NQEAH@Z 00000001400228ac     libucrt:output.obj
 0004:000008b8       $pdata$?state_case_size@?$output_processor@DV?$stream_output_adapter@D@__crt_stdio_output@@V?$format_validation_base@DV?$stream_output_adapter@D@__crt_stdio_output@@@2@@__crt_stdio_output@@AEAA_NXZ 00000001400228b8     libucrt:output.obj
 0004:000008c4       $pdata$?state_case_type@?$output_processor@DV?$stream_output_adapter@D@__crt_stdio_output@@V?$format_validation_base@DV?$stream_output_adapter@D@__crt_stdio_output@@@2@@__crt_stdio_output@@AEAA_NXZ 00000001400228c4     libucrt:output.obj
 0004:000008d0       $pdata$?type_case_c_tchar@?$output_processor@DV?$stream_output_adapter@D@__crt_stdio_output@@V?$format_validation_base@DV?$stream_output_adapter@D@__crt_stdio_output@@@2@@__crt_stdio_output@@AEAA_ND@Z 00000001400228d0     libucrt:output.obj
 0004:000008dc       $pdata$?type_case_s@?$output_processor@DV?$stream_output_adapter@D@__crt_stdio_output@@V?$format_validation_base@DV?$stream_output_adapter@D@__crt_stdio_output@@@2@@__crt_stdio_output@@AEAA_NXZ 00000001400228dc     libucrt:output.obj
 0004:000008e8       $pdata$?type_case_a@?$output_processor@DV?$stream_output_adapter@D@__crt_stdio_output@@V?$format_validation_base@DV?$stream_output_adapter@D@__crt_stdio_output@@@2@@__crt_stdio_output@@AEAA_NXZ 00000001400228e8     libucrt:output.obj
 0004:000008f4       $pdata$?type_case_integer@?$output_processor@DV?$stream_output_adapter@D@__crt_stdio_output@@V?$format_validation_base@DV?$stream_output_adapter@D@__crt_stdio_output@@@2@@__crt_stdio_output@@AEAA_NI_N@Z 00000001400228f4     libucrt:output.obj
 0004:00000900       $pdata$?type_case_n@?$output_processor@DV?$stream_output_adapter@D@__crt_stdio_output@@V?$format_validation_base@DV?$stream_output_adapter@D@__crt_stdio_output@@@2@@__crt_stdio_output@@AEAA_NXZ 0000000140022900     libucrt:output.obj
 0004:0000090c       $pdata$?write_stored_string_tchar@?$output_processor@DV?$stream_output_adapter@D@__crt_stdio_output@@V?$format_validation_base@DV?$stream_output_adapter@D@__crt_stdio_output@@@2@@__crt_stdio_output@@AEAA_ND@Z 000000014002290c     libucrt:output.obj
 0004:00000918       $pdata$??R<lambda_32f117a32e8f8eb613cbf2ca819ed45e>@@QEBAHXZ 0000000140022918     libucrt:output.obj
 0004:00000924       $pdata$??$write_multiple_characters@V?$stream_output_adapter@D@__crt_stdio_output@@D@__crt_stdio_output@@YAXAEBV?$stream_output_adapter@D@0@DHQEAH@Z 0000000140022924     libucrt:output.obj
 0004:00000930       $pdata$??$ensure_buffer_is_big_enough@D@formatting_buffer@__crt_stdio_output@@QEAA_N_K@Z 0000000140022930     libucrt:output.obj
 0004:0000093c       $pdata$??$type_case_integer_parse_into_buffer@_K@?$output_processor@DV?$stream_output_adapter@D@__crt_stdio_output@@V?$format_validation_base@DV?$stream_output_adapter@D@__crt_stdio_output@@@2@@__crt_stdio_output@@AEAAX_KI_N@Z 000000014002293c     libucrt:output.obj
 0004:00000948       $pdata$??$type_case_integer_parse_into_buffer@I@?$output_processor@DV?$stream_output_adapter@D@__crt_stdio_output@@V?$format_validation_base@DV?$stream_output_adapter@D@__crt_stdio_output@@@2@@__crt_stdio_output@@AEAAXII_N@Z 0000000140022948     libucrt:output.obj
 0004:00000954       $pdata$??$?RV<lambda_74b93660f2d9eb3fb15c5de9eff9db7b>@@AEAV<lambda_32f117a32e8f8eb613cbf2ca819ed45e>@@V<lambda_7322894ee7c8a2d41153fedefeab09e3>@@@?$__crt_seh_guarded_call@H@@QEAAH$$QEAV<lambda_74b93660f2d9eb3fb15c5de9eff9db7b>@@AEAV<lambda_32f117a32e8f8eb613cbf2ca819ed45e>@@$$QEAV<lambda_7322894ee7c8a2d41153fedefeab09e3>@@@Z 0000000140022954     libucrt:output.obj
 0004:00000960       $pdata$?fin$0@?0???$?RV<lambda_842d9ff0dc9ef11c61343bbaebe7f885>@@AEAV<lambda_c5860995281e5c4ce005b3de8f5874ee>@@V<lambda_d90129c13df834fdcbf8d2b88dafcf2d>@@@?$__crt_seh_guarded_call@X@@QEAAX$$QEAV<lambda_842d9ff0dc9ef11c61343bbaebe7f885>@@AEAV<lambda_c5860995281e5c4ce005b3de8f5874ee>@@$$QEAV<lambda_d90129c13df834fdcbf8d2b88dafcf2d>@@@Z@4HA 0000000140022960     libucrt:fflush.obj
 0004:00000960       $pdata$?fin$0@?0???$?RV<lambda_74b93660f2d9eb3fb15c5de9eff9db7b>@@AEAV<lambda_32f117a32e8f8eb613cbf2ca819ed45e>@@V<lambda_7322894ee7c8a2d41153fedefeab09e3>@@@?$__crt_seh_guarded_call@H@@QEAAH$$QEAV<lambda_74b93660f2d9eb3fb15c5de9eff9db7b>@@AEAV<lambda_32f117a32e8f8eb613cbf2ca819ed45e>@@$$QEAV<lambda_7322894ee7c8a2d41153fedefeab09e3>@@@Z@4HA 0000000140022960     libucrt:output.obj
 0004:0000096c       $pdata$_callnewh           000000014002296c     libucrt:new_handler.obj
 0004:00000978       $pdata$_query_new_handler  0000000140022978     libucrt:new_handler.obj
 0004:00000984       $pdata$_query_new_handler$fin$0 0000000140022984     libucrt:new_handler.obj
 0004:00000990       $pdata$_seh_filter_exe     0000000140022990     libucrt:exception_filter.obj
 0004:0000099c       $pdata$_register_thread_local_exe_atexit_callback 000000014002299c     libucrt:exit.obj
 0004:000009a8       $pdata$?try_cor_exit_process@@YAXI@Z 00000001400229a8     libucrt:exit.obj
 0004:000009b4       $pdata$?exit_or_terminate_process@@YAXI@Z 00000001400229b4     libucrt:exit.obj
 0004:000009c0       $pdata$?common_exit@@YAXHW4_crt_exit_cleanup_mode@@W4_crt_exit_return_mode@@@Z 00000001400229c0     libucrt:exit.obj
 0004:000009cc       $pdata$??R<lambda_6e4b09c48022b2350581041d5f6b0c4c>@@QEBA@XZ 00000001400229cc     libucrt:exit.obj
 0004:000009d8       $pdata$?filt$0@?0???R<lambda_6e4b09c48022b2350581041d5f6b0c4c>@@QEBA@XZ@4HA 00000001400229d8     libucrt:exit.obj
 0004:000009e4       $pdata$??$?RV<lambda_d80eeec6fff315bfe5c115232f3240e3>@@AEAV<lambda_6e4b09c48022b2350581041d5f6b0c4c>@@V<lambda_2358e3775559c9db80273638284d5e45>@@@?$__crt_seh_guarded_call@X@@QEAAX$$QEAV<lambda_d80eeec6fff315bfe5c115232f3240e3>@@AEAV<lambda_6e4b09c48022b2350581041d5f6b0c4c>@@$$QEAV<lambda_2358e3775559c9db80273638284d5e45>@@@Z 00000001400229e4     libucrt:exit.obj
 0004:000009f0       $pdata$?fin$0@?0???$?RV<lambda_f2e299630e499de9f9a165e60fcd3db5>@@AEAV<lambda_2ae9d31cdba2644fcbeaf08da7c24588>@@V<lambda_40d01ff24d0e7b3814fdbdcee8eab3c7>@@@?$__crt_seh_guarded_call@X@@QEAAX$$QEAV<lambda_f2e299630e499de9f9a165e60fcd3db5>@@AEAV<lambda_2ae9d31cdba2644fcbeaf08da7c24588>@@$$QEAV<lambda_40d01ff24d0e7b3814fdbdcee8eab3c7>@@@Z@4HA 00000001400229f0     libucrt:per_thread_data.obj
 0004:000009f0       $pdata$?fin$0@?0???$?RV<lambda_2d41944a1d46af3157314b8a01080d33>@@AEAV<lambda_8f455de75cd7d7f24b4096f044d8b9e6>@@V<lambda_aa500f224e6afead328df44964fe2772>@@@?$__crt_seh_guarded_call@X@@QEAAX$$QEAV<lambda_2d41944a1d46af3157314b8a01080d33>@@AEAV<lambda_8f455de75cd7d7f24b4096f044d8b9e6>@@$$QEAV<lambda_aa500f224e6afead328df44964fe2772>@@@Z@4HA 00000001400229f0     libucrt:per_thread_data.obj
 0004:000009f0       $pdata$?fin$0@?0???$?RV<lambda_450d765d439847d4c735a33c368b5fc0>@@AEAV<lambda_44731a7d0e6d81c3e6aa82d741081786>@@V<lambda_601a2a7da3b7a96e9554ac7215c4b07c>@@@?$__crt_seh_guarded_call@P6AXH@Z@@QEAAP6AXH@Z$$QEAV<lambda_450d765d439847d4c735a33c368b5fc0>@@AEAV<lambda_44731a7d0e6d81c3e6aa82d741081786>@@$$QEAV<lambda_601a2a7da3b7a96e9554ac7215c4b07c>@@@Z@4HA 00000001400229f0     libucrt:signal.obj
 0004:000009f0       $pdata$?fin$0@?0???$?RV<lambda_0ae27a3a962d80f24befdcbee591983d>@@AEAV<lambda_8d0ee55de4b1038c4002e0adecdf1839>@@V<lambda_dc504788e8f1664fe9b84e20bfb512f2>@@@?$__crt_seh_guarded_call@X@@QEAAX$$QEAV<lambda_0ae27a3a962d80f24befdcbee591983d>@@AEAV<lambda_8d0ee55de4b1038c4002e0adecdf1839>@@$$QEAV<lambda_dc504788e8f1664fe9b84e20bfb512f2>@@@Z@4HA 00000001400229f0     libucrt:per_thread_data.obj
 0004:000009f0       $pdata$?fin$0@?0???$?RV<lambda_aa87e3671a710a21b5dc78c0bdf72e11>@@AEAV<lambda_92619d2358a28f41a33ba319515a20b9>@@V<lambda_6992ecaafeb10aed2b74cb1fae11a551>@@@?$__crt_seh_guarded_call@X@@QEAAX$$QEAV<lambda_aa87e3671a710a21b5dc78c0bdf72e11>@@AEAV<lambda_92619d2358a28f41a33ba319515a20b9>@@$$QEAV<lambda_6992ecaafeb10aed2b74cb1fae11a551>@@@Z@4HA 00000001400229f0     libucrt:per_thread_data.obj
 0004:000009f0       $pdata$?fin$0@?0???$?RV<lambda_8369fcb7c4df1e85de37618bd2b85f07>@@AEAV<lambda_a10e4b102d4a2c3aac6f4f48bbdf488f>@@V<lambda_5b7707bd6d7a0c4713179f36c7fd995d>@@@?$__crt_seh_guarded_call@H@@QEAAH$$QEAV<lambda_8369fcb7c4df1e85de37618bd2b85f07>@@AEAV<lambda_a10e4b102d4a2c3aac6f4f48bbdf488f>@@$$QEAV<lambda_5b7707bd6d7a0c4713179f36c7fd995d>@@@Z@4HA 00000001400229f0     libucrt:onexit.obj
 0004:000009f0       $pdata$?fin$0@?0???$?RV<lambda_d80eeec6fff315bfe5c115232f3240e3>@@AEAV<lambda_6e4b09c48022b2350581041d5f6b0c4c>@@V<lambda_2358e3775559c9db80273638284d5e45>@@@?$__crt_seh_guarded_call@X@@QEAAX$$QEAV<lambda_d80eeec6fff315bfe5c115232f3240e3>@@AEAV<lambda_6e4b09c48022b2350581041d5f6b0c4c>@@$$QEAV<lambda_2358e3775559c9db80273638284d5e45>@@@Z@4HA 00000001400229f0     libucrt:exit.obj
 0004:000009f0       $pdata$?fin$0@?0???$?RV<lambda_7777bce6b2f8c936911f934f8298dc43>@@AEAV<lambda_f03950bc5685219e0bcd2087efbe011e>@@V<lambda_3883c3dff614d5e0c5f61bb1ac94921c>@@@?$__crt_seh_guarded_call@H@@QEAAH$$QEAV<lambda_7777bce6b2f8c936911f934f8298dc43>@@AEAV<lambda_f03950bc5685219e0bcd2087efbe011e>@@$$QEAV<lambda_3883c3dff614d5e0c5f61bb1ac94921c>@@@Z@4HA 00000001400229f0     libucrt:onexit.obj
 0004:000009f0       $pdata$?fin$0@?0???$?RV<lambda_efdfa57d1f175319df784efa44bb7b81>@@AEAV<lambda_5f0a4c1567f8adc6734073e5d1e1b35c>@@V<lambda_2e8a7d3640ea6ccb4c2413664c2db6fd>@@@?$__crt_seh_guarded_call@X@@QEAAX$$QEAV<lambda_efdfa57d1f175319df784efa44bb7b81>@@AEAV<lambda_5f0a4c1567f8adc6734073e5d1e1b35c>@@$$QEAV<lambda_2e8a7d3640ea6ccb4c2413664c2db6fd>@@@Z@4HA 00000001400229f0     libucrt:mbctype.obj
 0004:000009fc       $pdata$_configure_narrow_argv 00000001400229fc     libucrt:argv_parsing.obj
 0004:00000a08       $pdata$__acrt_allocate_buffer_for_argv 0000000140022a08     libucrt:argv_parsing.obj
 0004:00000a14       $pdata$??$parse_command_line@D@@YAXPEADPEAPEAD0PEA_K2@Z 0000000140022a14     libucrt:argv_parsing.obj
 0004:00000a20       $pdata$_get_initial_narrow_environment 0000000140022a20     libucrt:environment_initialization.obj
 0004:00000a2c       $pdata$__dcrt_get_or_create_narrow_environment_nolock 0000000140022a2c     libucrt:environment_initialization.obj
 0004:00000a38       $pdata$__dcrt_uninitialize_environments_nolock 0000000140022a38     libucrt:environment_initialization.obj
 0004:00000a44       $pdata$??$common_initialize_environment_nolock@D@@YAHXZ 0000000140022a44     libucrt:environment_initialization.obj
 0004:00000a50       $pdata$??$uninitialize_environment_internal@D@@YAXAEAPEAPEAD@Z 0000000140022a50     libucrt:environment_initialization.obj
 0004:00000a5c       $pdata$??$uninitialize_environment_internal@_W@@YAXAEAPEAPEA_W@Z 0000000140022a5c     libucrt:environment_initialization.obj
 0004:00000a68       $pdata$??$free_environment@D@@YAXQEAPEAD@Z 0000000140022a68     libucrt:environment_initialization.obj
 0004:00000a68       $pdata$??$free_environment@_W@@YAXQEAPEA_W@Z 0000000140022a68     libucrt:environment_initialization.obj
 0004:00000a74       $pdata$??$create_environment@D@@YAQEAPEADQEAD@Z 0000000140022a74     libucrt:environment_initialization.obj
 0004:00000a80       $pdata$??$initialize_environment_by_cloning_nolock@D@@YAHXZ 0000000140022a80     libucrt:environment_initialization.obj
 0004:00000a8c       $pdata$_register_onexit_function 0000000140022a8c     libucrt:onexit.obj
 0004:00000a98       $pdata$_execute_onexit_table 0000000140022a98     libucrt:onexit.obj
 0004:00000aa4       $pdata$??R<lambda_a10e4b102d4a2c3aac6f4f48bbdf488f>@@QEBAHXZ 0000000140022aa4     libucrt:onexit.obj
 0004:00000ab0       $pdata$??R<lambda_f03950bc5685219e0bcd2087efbe011e>@@QEBAHXZ 0000000140022ab0     libucrt:onexit.obj
 0004:00000abc       $pdata$??$?RV<lambda_8369fcb7c4df1e85de37618bd2b85f07>@@AEAV<lambda_a10e4b102d4a2c3aac6f4f48bbdf488f>@@V<lambda_5b7707bd6d7a0c4713179f36c7fd995d>@@@?$__crt_seh_guarded_call@H@@QEAAH$$QEAV<lambda_8369fcb7c4df1e85de37618bd2b85f07>@@AEAV<lambda_a10e4b102d4a2c3aac6f4f48bbdf488f>@@$$QEAV<lambda_5b7707bd6d7a0c4713179f36c7fd995d>@@@Z 0000000140022abc     libucrt:onexit.obj
 0004:00000ac8       $pdata$??$?RV<lambda_7777bce6b2f8c936911f934f8298dc43>@@AEAV<lambda_f03950bc5685219e0bcd2087efbe011e>@@V<lambda_3883c3dff614d5e0c5f61bb1ac94921c>@@@?$__crt_seh_guarded_call@H@@QEAAH$$QEAV<lambda_7777bce6b2f8c936911f934f8298dc43>@@AEAV<lambda_f03950bc5685219e0bcd2087efbe011e>@@$$QEAV<lambda_3883c3dff614d5e0c5f61bb1ac94921c>@@@Z 0000000140022ac8     libucrt:onexit.obj
 0004:00000ad4       $pdata$__acrt_uninitialize 0000000140022ad4     libucrt:initialization.obj
 0004:00000ae0       $pdata$initialize_c        0000000140022ae0     libucrt:initialization.obj
 0004:00000aec       $pdata$uninitialize_environment 0000000140022aec     libucrt:initialization.obj
 0004:00000af8       $pdata$initialize_pointers 0000000140022af8     libucrt:initialization.obj
 0004:00000b04       $pdata$uninitialize_allocated_memory 0000000140022b04     libucrt:initialization.obj
 0004:00000b10       $pdata$uninitialize_allocated_io_buffers 0000000140022b10     libucrt:initialization.obj
 0004:00000b1c       $pdata$_initterm           0000000140022b1c     libucrt:initterm.obj
 0004:00000b28       $pdata$_initterm_e         0000000140022b28     libucrt:initterm.obj
 0004:00000b34       $pdata$_set_fmode          0000000140022b34     libucrt:setmode.obj
 0004:00000b40       $pdata$__acrt_initialize_command_line 0000000140022b40     libucrt:argv_data.obj
 0004:00000b4c       $pdata$_configthreadlocale 0000000140022b4c     libucrt:wsetlocale.obj
 0004:00000b58       $pdata$__acrt_uninitialize_locale 0000000140022b58     libucrt:wsetlocale.obj
 0004:00000b64       $pdata$??$?RV<lambda_410d79af7f07d98d83a3f525b3859a53>@@AEAV<lambda_3e16ef9562a7dcce91392c22ab16ea36>@@V<lambda_38119f0e861e05405d8a144b9b982f0a>@@@?$__crt_seh_guarded_call@X@@QEAAX$$QEAV<lambda_410d79af7f07d98d83a3f525b3859a53>@@AEAV<lambda_3e16ef9562a7dcce91392c22ab16ea36>@@$$QEAV<lambda_38119f0e861e05405d8a144b9b982f0a>@@@Z 0000000140022b64     libucrt:wsetlocale.obj
 0004:00000b70       $pdata$?fin$0@?0???$?RV<lambda_410d79af7f07d98d83a3f525b3859a53>@@AEAV<lambda_3e16ef9562a7dcce91392c22ab16ea36>@@V<lambda_38119f0e861e05405d8a144b9b982f0a>@@@?$__crt_seh_guarded_call@X@@QEAAX$$QEAV<lambda_410d79af7f07d98d83a3f525b3859a53>@@AEAV<lambda_3e16ef9562a7dcce91392c22ab16ea36>@@$$QEAV<lambda_38119f0e861e05405d8a144b9b982f0a>@@@Z@4HA 0000000140022b70     libucrt:wsetlocale.obj
 0004:00000b7c       $pdata$_set_new_mode       0000000140022b7c     libucrt:new_mode.obj
 0004:00000b88       $pdata$terminate           0000000140022b88     libucrt:terminate.obj
 0004:00000b94       $pdata$strcpy_s            0000000140022b94     libucrt:strcpy_s.obj
 0004:00000ba0       $pdata$_free_base          0000000140022ba0     libucrt:free_base.obj
 0004:00000bac       $pdata$_malloc_base        0000000140022bac     libucrt:malloc_base.obj
 0004:00000bb8       $pdata$abort               0000000140022bb8     libucrt:abort.obj
 0004:00000bc4       $pdata$_calloc_base        0000000140022bc4     libucrt:calloc_base.obj
 0004:00000bd0       $pdata$??$parse_integer@KV?$c_string_character_source@D@__crt_strtox@@@__crt_strtox@@YAKQEAU__crt_locale_pointers@@V?$c_string_character_source@D@0@H_N@Z 0000000140022bd0     libucrt:atox.obj
 0004:00000be8       $pdata$__acrt_initialize_ptd 0000000140022be8     libucrt:per_thread_data.obj
 0004:00000bf4       $pdata$__acrt_uninitialize_ptd 0000000140022bf4     libucrt:per_thread_data.obj
 0004:00000c00       $pdata$__acrt_getptd       0000000140022c00     libucrt:per_thread_data.obj
 0004:00000c0c       $pdata$__acrt_getptd_head  0000000140022c0c     libucrt:per_thread_data.obj
 0004:00000c18       $pdata$__acrt_getptd_noexit 0000000140022c18     libucrt:per_thread_data.obj
 0004:00000c24       $pdata$?destroy_fls@@YAXPEAX@Z 0000000140022c24     libucrt:per_thread_data.obj
 0004:00000c30       $pdata$?replace_current_thread_locale_nolock@@YAXQEAU__acrt_ptd@@QEAU__crt_locale_data@@@Z 0000000140022c30     libucrt:per_thread_data.obj
 0004:00000c3c       $pdata$?construct_ptd_array@@YAXQEAU__acrt_ptd@@@Z 0000000140022c3c     libucrt:per_thread_data.obj
 0004:00000c48       $pdata$?destroy_ptd_array@@YAXQEAU__acrt_ptd@@@Z 0000000140022c48     libucrt:per_thread_data.obj
 0004:00000c54       $pdata$??$?RV<lambda_0ae27a3a962d80f24befdcbee591983d>@@AEAV<lambda_8d0ee55de4b1038c4002e0adecdf1839>@@V<lambda_dc504788e8f1664fe9b84e20bfb512f2>@@@?$__crt_seh_guarded_call@X@@QEAAX$$QEAV<lambda_0ae27a3a962d80f24befdcbee591983d>@@AEAV<lambda_8d0ee55de4b1038c4002e0adecdf1839>@@$$QEAV<lambda_dc504788e8f1664fe9b84e20bfb512f2>@@@Z 0000000140022c54     libucrt:per_thread_data.obj
 0004:00000c60       $pdata$??$?RV<lambda_aa87e3671a710a21b5dc78c0bdf72e11>@@AEAV<lambda_92619d2358a28f41a33ba319515a20b9>@@V<lambda_6992ecaafeb10aed2b74cb1fae11a551>@@@?$__crt_seh_guarded_call@X@@QEAAX$$QEAV<lambda_aa87e3671a710a21b5dc78c0bdf72e11>@@AEAV<lambda_92619d2358a28f41a33ba319515a20b9>@@$$QEAV<lambda_6992ecaafeb10aed2b74cb1fae11a551>@@@Z 0000000140022c60     libucrt:per_thread_data.obj
 0004:00000c6c       $pdata$??$?RV<lambda_f2e299630e499de9f9a165e60fcd3db5>@@AEAV<lambda_2ae9d31cdba2644fcbeaf08da7c24588>@@V<lambda_40d01ff24d0e7b3814fdbdcee8eab3c7>@@@?$__crt_seh_guarded_call@X@@QEAAX$$QEAV<lambda_f2e299630e499de9f9a165e60fcd3db5>@@AEAV<lambda_2ae9d31cdba2644fcbeaf08da7c24588>@@$$QEAV<lambda_40d01ff24d0e7b3814fdbdcee8eab3c7>@@@Z 0000000140022c6c     libucrt:per_thread_data.obj
 0004:00000c78       $pdata$??$?RV<lambda_2d41944a1d46af3157314b8a01080d33>@@AEAV<lambda_8f455de75cd7d7f24b4096f044d8b9e6>@@V<lambda_aa500f224e6afead328df44964fe2772>@@@?$__crt_seh_guarded_call@X@@QEAAX$$QEAV<lambda_2d41944a1d46af3157314b8a01080d33>@@AEAV<lambda_8f455de75cd7d7f24b4096f044d8b9e6>@@$$QEAV<lambda_aa500f224e6afead328df44964fe2772>@@@Z 0000000140022c78     libucrt:per_thread_data.obj
 0004:00000c84       $pdata$_errno              0000000140022c84     libucrt:errno.obj
 0004:00000c90       $pdata$__doserrno          0000000140022c90     libucrt:errno.obj
 0004:00000c9c       $pdata$__acrt_errno_map_os_error 0000000140022c9c     libucrt:errno.obj
 0004:00000ca8       $pdata$__acrt_initialize_winapi_thunks 0000000140022ca8     libucrt:winapi_thunks.obj
 0004:00000cb4       $pdata$__acrt_uninitialize_winapi_thunks 0000000140022cb4     libucrt:winapi_thunks.obj
 0004:00000cc0       $pdata$__acrt_CompareStringEx 0000000140022cc0     libucrt:winapi_thunks.obj
 0004:00000ccc       $pdata$__acrt_FlsAlloc     0000000140022ccc     libucrt:winapi_thunks.obj
 0004:00000cd8       $pdata$__acrt_FlsFree      0000000140022cd8     libucrt:winapi_thunks.obj
 0004:00000ce4       $pdata$__acrt_FlsGetValue  0000000140022ce4     libucrt:winapi_thunks.obj
 0004:00000cf0       $pdata$__acrt_FlsSetValue  0000000140022cf0     libucrt:winapi_thunks.obj
 0004:00000cfc       $pdata$__acrt_InitializeCriticalSectionEx 0000000140022cfc     libucrt:winapi_thunks.obj
 0004:00000d08       $pdata$__acrt_LCMapStringEx 0000000140022d08     libucrt:winapi_thunks.obj
 0004:00000d14       $pdata$__acrt_LocaleNameToLCID 0000000140022d14     libucrt:winapi_thunks.obj
 0004:00000d20       $pdata$__acrt_AppPolicyGetProcessTerminationMethodInternal 0000000140022d20     libucrt:winapi_thunks.obj
 0004:00000d2c       $pdata$?try_get_function@@YAPEAXW4function_id@?A0x391cf84c@@QEBDQEBW4module_id@2@2@Z 0000000140022d2c     libucrt:winapi_thunks.obj
 0004:00000d38       $pdata$_fcloseall          0000000140022d38     libucrt:closeall.obj
 0004:00000d44       $pdata$_fcloseall$fin$0    0000000140022d44     libucrt:closeall.obj
 0004:00000d50       $pdata$_fflush_nolock      0000000140022d50     libucrt:fflush.obj
 0004:00000d5c       $pdata$__acrt_stdio_flush_nolock 0000000140022d5c     libucrt:fflush.obj
 0004:00000d68       $pdata$?common_flush_all@@YAH_N@Z 0000000140022d68     libucrt:fflush.obj
 0004:00000d74       $pdata$??$?RV<lambda_842d9ff0dc9ef11c61343bbaebe7f885>@@AEAV<lambda_c5860995281e5c4ce005b3de8f5874ee>@@V<lambda_d90129c13df834fdcbf8d2b88dafcf2d>@@@?$__crt_seh_guarded_call@X@@QEAAX$$QEAV<lambda_842d9ff0dc9ef11c61343bbaebe7f885>@@AEAV<lambda_c5860995281e5c4ce005b3de8f5874ee>@@$$QEAV<lambda_d90129c13df834fdcbf8d2b88dafcf2d>@@@Z 0000000140022d74     libucrt:fflush.obj
 0004:00000d80       $pdata$??$?RV<lambda_886d6c58226a84441f68b9f2b8217b83>@@AEAV<lambda_ab61a845afdef5b7c387490eaf3616ee>@@V<lambda_f7f22ab5edc0698d5f6905b0d3f44752>@@@?$__crt_seh_guarded_call@X@@QEAAX$$QEAV<lambda_886d6c58226a84441f68b9f2b8217b83>@@AEAV<lambda_ab61a845afdef5b7c387490eaf3616ee>@@$$QEAV<lambda_f7f22ab5edc0698d5f6905b0d3f44752>@@@Z 0000000140022d80     libucrt:fflush.obj
 0004:00000d8c       $pdata$?fin$0@?0???$?RV<lambda_886d6c58226a84441f68b9f2b8217b83>@@AEAV<lambda_ab61a845afdef5b7c387490eaf3616ee>@@V<lambda_f7f22ab5edc0698d5f6905b0d3f44752>@@@?$__crt_seh_guarded_call@X@@QEAAX$$QEAV<lambda_886d6c58226a84441f68b9f2b8217b83>@@AEAV<lambda_ab61a845afdef5b7c387490eaf3616ee>@@$$QEAV<lambda_f7f22ab5edc0698d5f6905b0d3f44752>@@@Z@4HA 0000000140022d8c     libucrt:fflush.obj
 0004:00000d98       $pdata$__acrt_stdio_free_buffer_nolock 0000000140022d98     libucrt:_freebuf.obj
 0004:00000da4       $pdata$__acrt_initialize_lowio 0000000140022da4     libucrt:ioinit.obj
 0004:00000db0       $pdata$__acrt_lowio_ensure_fh_exists$fin$0 0000000140022db0     libucrt:osfinfo.obj
 0004:00000db0       $pdata$__acrt_initialize_lowio$fin$0 0000000140022db0     libucrt:ioinit.obj
 0004:00000dbc       $pdata$__acrt_uninitialize_lowio 0000000140022dbc     libucrt:ioinit.obj
 0004:00000dc8       $pdata$?initialize_inherited_file_handles_nolock@@YAXXZ 0000000140022dc8     libucrt:ioinit.obj
 0004:00000dd4       $pdata$?initialize_stdio_handles_nolock@@YAXXZ 0000000140022dd4     libucrt:ioinit.obj
 0004:00000de0       $pdata$isdigit             0000000140022de0     libucrt:_ctype.obj
 0004:00000dec       $pdata$tolower             0000000140022dec     libucrt:tolower_toupper.obj
 0004:00000df8       $pdata$_tolower_l          0000000140022df8     libucrt:tolower_toupper.obj
 0004:00000e04       $pdata$?internal_isupper_l@@YA_NHQEAU__crt_locale_pointers@@@Z 0000000140022e04     libucrt:tolower_toupper.obj
 0004:00000e10       $pdata$strtol              0000000140022e10     libucrt:strtox.obj
 0004:00000e1c       $pdata$_mbtowc_l           0000000140022e1c     libucrt:mbtowc.obj
 0004:00000e28       $pdata$wctomb_s            0000000140022e28     libucrt:wctomb.obj
 0004:00000e34       $pdata$_wctomb_s_l         0000000140022e34     libucrt:wctomb.obj
 0004:00000e40       $pdata$__acrt_update_locale_info 0000000140022e40     libucrt:locale_update.obj
 0004:00000e4c       $pdata$__acrt_update_multibyte_info 0000000140022e4c     libucrt:locale_update.obj
 0004:00000e58       $pdata$__acrt_fp_format    0000000140022e58     libucrt:cvt.obj
 0004:00000e64       $pdata$?fp_format_nan_or_infinity@@YAHW4__acrt_fp_class@@_NPEAD_K1@Z 0000000140022e64     libucrt:cvt.obj
 0004:00000e70       $pdata$?fp_format_e_internal@@YAHQEAD_KH_NIQEAU_strflt@@2QEAU__crt_locale_pointers@@@Z 0000000140022e70     libucrt:cvt.obj
 0004:00000e7c       $pdata$?fp_format_e@@YAHQEBNQEAD_K12H_NIQEAU__crt_locale_pointers@@@Z 0000000140022e7c     libucrt:cvt.obj
 0004:00000e88       $pdata$?fp_format_a@@YAHQEBNPEAD_KQEAD2H_NIQEAU__crt_locale_pointers@@@Z 0000000140022e88     libucrt:cvt.obj
 0004:00000e94       $pdata$?fp_format_f_internal@@YAHQEAD_KHQEAU_strflt@@_NQEAU__crt_locale_pointers@@@Z 0000000140022e94     libucrt:cvt.obj
 0004:00000ea0       $pdata$?fp_format_g@@YAHQEBNQEAD_K12H_NIQEAU__crt_locale_pointers@@@Z 0000000140022ea0     libucrt:cvt.obj
 0004:00000eac       $pdata$_fileno             0000000140022eac     libucrt:fileno.obj
 0004:00000eb8       $pdata$__acrt_stdio_begin_temporary_buffering_nolock 0000000140022eb8     libucrt:_sftbuf.obj
 0004:00000ec4       $pdata$__acrt_stdio_end_temporary_buffering_nolock 0000000140022ec4     libucrt:_sftbuf.obj
 0004:00000ed0       $pdata$__acrt_initialize_locks 0000000140022ed0     libucrt:locks.obj
 0004:00000edc       $pdata$__acrt_uninitialize_locks 0000000140022edc     libucrt:locks.obj
 0004:00000ee8       $pdata$__acrt_get_process_end_policy 0000000140022ee8     libucrt:win_policies.obj
 0004:00000ef4       $pdata$??$common_expand_argv_wildcards@D@@YAHQEAPEADQEAPEAPEAD@Z 0000000140022ef4     libucrt:argv_wildcards.obj
 0004:00000f00       $pdata$??$copy_and_add_argument_to_buffer@D@@YAHQEBD0_KAEAV?$argument_list@D@?A0x5f5c8891@@@Z 0000000140022f00     libucrt:argv_wildcards.obj
 0004:00000f0c       $pdata$??$expand_argument_wildcards@D@@YAHQEAD0AEAV?$argument_list@D@?A0x5f5c8891@@@Z 0000000140022f0c     libucrt:argv_wildcards.obj
 0004:00000f18       $pdata$__acrt_update_thread_multibyte_data 0000000140022f18     libucrt:mbctype.obj
 0004:00000f24       $pdata$__acrt_initialize_multibyte 0000000140022f24     libucrt:mbctype.obj
 0004:00000f30       $pdata$_setmbcp_nolock     0000000140022f30     libucrt:mbctype.obj
 0004:00000f3c       $pdata$?getSystemCP@@YAHH@Z 0000000140022f3c     libucrt:mbctype.obj
 0004:00000f48       $pdata$?setSBCS@@YAXPEAU__crt_multibyte_data@@@Z 0000000140022f48     libucrt:mbctype.obj
 0004:00000f54       $pdata$?update_thread_multibyte_data_internal@@YAPEAU__crt_multibyte_data@@QEAU__acrt_ptd@@QEAPEAU1@@Z 0000000140022f54     libucrt:mbctype.obj
 0004:00000f60       $pdata$?fin$0@?0??update_thread_multibyte_data_internal@@YAPEAU__crt_multibyte_data@@QEAU__acrt_ptd@@QEAPEAU1@@Z@4HA 0000000140022f60     libucrt:mbctype.obj
 0004:00000f6c       $pdata$?setmbcp_internal@@YAHH_NQEAU__acrt_ptd@@QEAPEAU__crt_multibyte_data@@@Z 0000000140022f6c     libucrt:mbctype.obj
 0004:00000f78       $pdata$?setSBUpLow@@YAXPEAU__crt_multibyte_data@@@Z 0000000140022f78     libucrt:mbctype.obj
 0004:00000f84       $pdata$??$?RV<lambda_efdfa57d1f175319df784efa44bb7b81>@@AEAV<lambda_5f0a4c1567f8adc6734073e5d1e1b35c>@@V<lambda_2e8a7d3640ea6ccb4c2413664c2db6fd>@@@?$__crt_seh_guarded_call@X@@QEAAX$$QEAV<lambda_efdfa57d1f175319df784efa44bb7b81>@@AEAV<lambda_5f0a4c1567f8adc6734073e5d1e1b35c>@@$$QEAV<lambda_2e8a7d3640ea6ccb4c2413664c2db6fd>@@@Z 0000000140022f84     libucrt:mbctype.obj
 0004:00000f90       $pdata$?x_ismbbtype_l@@YAHPEAU__crt_locale_pointers@@IHH@Z 0000000140022f90     libucrt:ismbbyte.obj
 0004:00000f9c       $pdata$__dcrt_get_narrow_environment_from_os 0000000140022f9c     libucrt:get_environment_from_os.obj
 0004:00000fa8       $pdata$??$common_set_variable_in_environment_nolock@D@@YAHQEADH@Z 0000000140022fa8     libucrt:setenv.obj
 0004:00000fb4       $pdata$??$copy_environment@D@@YAPEAPEADQEAPEAD@Z 0000000140022fb4     libucrt:setenv.obj
 0004:00000fc0       $pdata$_recalloc_base      0000000140022fc0     libucrt:recalloc.obj
 0004:00000fcc       $pdata$__acrt_initialize_heap 0000000140022fcc     libucrt:heap_handle.obj
 0004:00000fd8       $pdata$__acrt_execute_initializers 0000000140022fd8     libucrt:shared_initialization.obj
 0004:00000fe4       $pdata$__acrt_execute_uninitializers 0000000140022fe4     libucrt:shared_initialization.obj
 0004:00000ff0       $pdata$__acrt_get_sigabrt_handler 0000000140022ff0     libucrt:signal.obj
 0004:00000ffc       $pdata$raise               0000000140022ffc     libucrt:signal.obj
 0004:00001008       $pdata$raise$fin$0         0000000140023008     libucrt:signal.obj
 0004:00001014       $pdata$??$?RV<lambda_450d765d439847d4c735a33c368b5fc0>@@AEAV<lambda_44731a7d0e6d81c3e6aa82d741081786>@@V<lambda_601a2a7da3b7a96e9554ac7215c4b07c>@@@?$__crt_seh_guarded_call@P6AXH@Z@@QEAAP6AXH@Z$$QEAV<lambda_450d765d439847d4c735a33c368b5fc0>@@AEAV<lambda_44731a7d0e6d81c3e6aa82d741081786>@@$$QEAV<lambda_601a2a7da3b7a96e9554ac7215c4b07c>@@@Z 0000000140023014     libucrt:signal.obj
 0004:00001020       $pdata$_get_osfhandle      0000000140023020     libucrt:osfinfo.obj
 0004:0000102c       $pdata$_free_osfhnd        000000014002302c     libucrt:osfinfo.obj
 0004:00001038       $pdata$__acrt_lowio_create_handle_array 0000000140023038     libucrt:osfinfo.obj
 0004:00001044       $pdata$__acrt_lowio_destroy_handle_array 0000000140023044     libucrt:osfinfo.obj
 0004:00001050       $pdata$__acrt_lowio_ensure_fh_exists 0000000140023050     libucrt:osfinfo.obj
 0004:0000105c       $pdata$__acrt_locale_free_monetary 000000014002305c     libucrt:initmon.obj
 0004:00001068       $pdata$__acrt_locale_free_numeric 0000000140023068     libucrt:initnum.obj
 0004:00001074       $pdata$__acrt_locale_free_time 0000000140023074     libucrt:inittime.obj
 0004:00001080       $pdata$?free_crt_array_internal@@YAXQEAPEBX_K@Z 0000000140023080     libucrt:inittime.obj
 0004:0000108c       $pdata$__pctype_func       000000014002308c     libucrt:ctype.obj
 0004:00001098       $pdata$__acrt_GetStringTypeA 0000000140023098     libucrt:getstringtypea.obj
 0004:000010a4       $pdata$__acrt_release_locale_ref 00000001400230a4     libucrt:locale_refcounting.obj
 0004:000010b0       $pdata$__acrt_free_locale  00000001400230b0     libucrt:locale_refcounting.obj
 0004:000010bc       $pdata$__acrt_locale_free_lc_time_if_unreferenced 00000001400230bc     libucrt:locale_refcounting.obj
 0004:000010c8       $pdata$__acrt_update_thread_locale_data 00000001400230c8     libucrt:locale_refcounting.obj
 0004:000010d4       $pdata$__acrt_update_thread_locale_data$fin$0 00000001400230d4     libucrt:locale_refcounting.obj
 0004:000010e0       $pdata$_updatetlocinfoEx_nolock 00000001400230e0     libucrt:locale_refcounting.obj
 0004:000010ec       $pdata$_isctype_l          00000001400230ec     libucrt:isctype.obj
 0004:000010f8       $pdata$__acrt_DownlevelLocaleNameToLCID 00000001400230f8     libucrt:lcidtoname_downlevel.obj
 0004:00001104       $pdata$?GetTableIndexFromLocaleName@@YAHPEB_W@Z 0000000140023104     libucrt:lcidtoname_downlevel.obj
 0004:00001110       $pdata$fclose              0000000140023110     libucrt:fclose.obj
 0004:0000111c       $pdata$fclose$fin$0        000000014002311c     libucrt:fclose.obj
 0004:00001128       $pdata$_fclose_nolock      0000000140023128     libucrt:fclose.obj
 0004:00001134       $pdata$_commit             0000000140023134     libucrt:commit.obj
 0004:00001140       $pdata$??$?RV<lambda_a37b2b86f63e897a80ea819b0eb08c01>@@AEAV<lambda_38ce7e780aa69e748d6df282ebc68efe>@@V<lambda_99fb1378e971ab6e7edea83e3a7a83a2>@@@?$__crt_seh_guarded_call@H@@QEAAH$$QEAV<lambda_a37b2b86f63e897a80ea819b0eb08c01>@@AEAV<lambda_38ce7e780aa69e748d6df282ebc68efe>@@$$QEAV<lambda_99fb1378e971ab6e7edea83e3a7a83a2>@@@Z 0000000140023140     libucrt:commit.obj
 0004:0000114c       $pdata$?fin$0@?0???$?RV<lambda_751a882b2c74d4b022dec766aa51a29a>@@AEAV<lambda_628dfdc04ba53c8bfc02c9951375f3f5>@@V<lambda_f6c7be5f7998530c34de24c7437d6b54>@@@?$__crt_seh_guarded_call@H@@QEAAH$$QEAV<lambda_751a882b2c74d4b022dec766aa51a29a>@@AEAV<lambda_628dfdc04ba53c8bfc02c9951375f3f5>@@$$QEAV<lambda_f6c7be5f7998530c34de24c7437d6b54>@@@Z@4HA 000000014002314c     libucrt:close.obj
 0004:0000114c       $pdata$?fin$0@?0???$?RV<lambda_a37b2b86f63e897a80ea819b0eb08c01>@@AEAV<lambda_38ce7e780aa69e748d6df282ebc68efe>@@V<lambda_99fb1378e971ab6e7edea83e3a7a83a2>@@@?$__crt_seh_guarded_call@H@@QEAAH$$QEAV<lambda_a37b2b86f63e897a80ea819b0eb08c01>@@AEAV<lambda_38ce7e780aa69e748d6df282ebc68efe>@@$$QEAV<lambda_99fb1378e971ab6e7edea83e3a7a83a2>@@@Z@4HA 000000014002314c     libucrt:commit.obj
 0004:00001158       $pdata$_write              0000000140023158     libucrt:write.obj
 0004:00001164       $pdata$_write$fin$0        0000000140023164     libucrt:write.obj
 0004:00001164       $pdata$?fin$0@?0???$common_lseek@_J@@YA_JH_JH@Z@4HA 0000000140023164     libucrt:lseek.obj
 0004:00001170       $pdata$_write_nolock       0000000140023170     libucrt:write.obj
 0004:0000117c       $pdata$?write_double_translated_ansi_nolock@@YA?AUwrite_result@?A0x17268360@@HQEBDI@Z 000000014002317c     libucrt:write.obj
 0004:00001188       $pdata$?write_text_ansi_nolock@@YA?AUwrite_result@?A0x17268360@@HQEBDI@Z 0000000140023188     libucrt:write.obj
 0004:00001194       $pdata$?write_text_utf16le_nolock@@YA?AUwrite_result@?A0x17268360@@HQEBDI@Z 0000000140023194     libucrt:write.obj
 0004:000011a0       $pdata$?write_text_utf8_nolock@@YA?AUwrite_result@?A0x17268360@@HQEBDI@Z 00000001400231a0     libucrt:write.obj
 0004:000011ac       $pdata$_isleadbyte_l       00000001400231ac     libucrt:_wctype.obj
 0004:000011b8       $pdata$__acrt_LCMapStringA 00000001400231b8     libucrt:lcmapstringa.obj
 0004:000011c4       $pdata$?__acrt_LCMapStringA_stat@@YAHPEAU__crt_locale_pointers@@PEB_WKPEBDHPEADHHH@Z 00000001400231c4     libucrt:lcmapstringa.obj
 0004:000011d0       $pdata$__acrt_fp_strflt_to_string 00000001400231d0     libucrt:_fptostr.obj
 0004:000011dc       $pdata$memcpy_s            00000001400231dc     libucrt:cfout.obj
 0004:000011e8       $pdata$__acrt_fltout       00000001400231e8     libucrt:cfout.obj
 0004:000011f4       $pdata$?divide@__crt_strtox@@YA_KAEAUbig_integer@1@AEBU21@@Z 00000001400231f4     libucrt:cfout.obj
 0004:00001200       $pdata$5$?divide@__crt_strtox@@YA_KAEAUbig_integer@1@AEBU21@@Z 0000000140023200     libucrt:cfout.obj
 0004:0000120c       $pdata$6$?divide@__crt_strtox@@YA_KAEAUbig_integer@1@AEBU21@@Z 000000014002320c     libucrt:cfout.obj
 0004:00001218       $pdata$__acrt_stdio_flush_and_write_narrow_nolock 0000000140023218     libucrt:_flsbuf.obj
 0004:00001224       $pdata$??$write_buffer_nolock@D@@YA_NDV__crt_stdio_stream@@@Z 0000000140023224     libucrt:_flsbuf.obj
 0004:00001230       $pdata$_isatty             0000000140023230     libucrt:isatty.obj
 0004:0000123c       $pdata$qsort               000000014002323c     libucrt:qsort.obj
 0004:00001248       $pdata$4$qsort             0000000140023248     libucrt:qsort.obj
 0004:00001254       $pdata$5$qsort             0000000140023254     libucrt:qsort.obj
 0004:00001260       $pdata$strncpy_s           0000000140023260     libucrt:strncpy_s.obj
 0004:0000126c       $pdata$strpbrk             000000014002326c     libucrt:strpbrk.obj
 0004:00001278       $pdata$fallbackMethod      0000000140023278     libucrt:strpbrk.obj
 0004:00001284       $pdata$_mbsdec_l           0000000140023284     libucrt:mbsdec.obj
 0004:00001290       $pdata$?initialize_multibyte@@YAHXZ 0000000140023290     libucrt:multibyte_initializer.obj
 0004:0000129c       $pdata$_strnicoll_l        000000014002329c     libucrt:strnicol.obj
 0004:000012a8       $pdata$_msize_base         00000001400232a8     libucrt:msize.obj
 0004:000012b4       $pdata$_realloc_base       00000001400232b4     libucrt:realloc_base.obj
 0004:000012c0       $pdata$_close              00000001400232c0     libucrt:close.obj
 0004:000012cc       $pdata$_close_nolock       00000001400232cc     libucrt:close.obj
 0004:000012d8       $pdata$??$?RV<lambda_751a882b2c74d4b022dec766aa51a29a>@@AEAV<lambda_628dfdc04ba53c8bfc02c9951375f3f5>@@V<lambda_f6c7be5f7998530c34de24c7437d6b54>@@@?$__crt_seh_guarded_call@H@@QEAAH$$QEAV<lambda_751a882b2c74d4b022dec766aa51a29a>@@AEAV<lambda_628dfdc04ba53c8bfc02c9951375f3f5>@@$$QEAV<lambda_f6c7be5f7998530c34de24c7437d6b54>@@@Z 00000001400232d8     libucrt:close.obj
 0004:000012e4       $pdata$??$common_lseek@_J@@YA_JH_JH@Z 00000001400232e4     libucrt:lseek.obj
 0004:000012f0       $pdata$??$common_lseek_nolock@_J@@YA_JH_JH@Z 00000001400232f0     libucrt:lseek.obj
 0004:000012fc       $pdata$_putwch_nolock      00000001400232fc     libucrt:putwch.obj
 0004:00001308       $pdata$fegetenv            0000000140023308     libucrt:fegetenv.obj
 0004:00001314       $pdata$fesetenv            0000000140023314     libucrt:fesetenv.obj
 0004:00001320       $pdata$feholdexcept        0000000140023320     libucrt:feholdexcept.obj
 0004:00001338       $pdata$__acrt_stdio_allocate_buffer_nolock 0000000140023338     libucrt:_getbuf.obj
 0004:00001344       $pdata$_strnicmp           0000000140023344     libucrt:strnicmp.obj
 0004:00001350       $pdata$_strnicmp_l         0000000140023350     libucrt:strnicmp.obj
 0004:0000135c       $pdata$__ascii_strnicmp    000000014002335c     libucrt:strnicmp.obj
 0004:00001368       $pdata$__acrt_CompareStringA 0000000140023368     libucrt:comparestringa.obj
 0004:00001374       $pdata$?InternalCompareStringA@@YAHPEAU__crt_locale_pointers@@PEB_WKPEBDH2HH@Z 0000000140023374     libucrt:comparestringa.obj
 0004:00001380       $pdata$__dcrt_lowio_ensure_console_output_initialized 0000000140023380     libucrt:initcon.obj
 0004:0000138c       $pdata$__dcrt_write_console_w 000000014002338c     libucrt:initcon.obj
 0004:00001398       $pdata$__dcrt_terminate_console_output 0000000140023398     libucrt:initcon.obj
 0004:000013a4       $pdata$__acrt_fenv_set_control 00000001400233a4     libucrt:_fenvutils.obj
 0004:000013b0       $pdata$_clearfp            00000001400233b0     libucrt:ieee.obj
 0004:000013bc       $pdata$_call_matherr       00000001400233bc     libucrt:libm_error.obj
 0004:000013c8       $pdata$_exception_enabled  00000001400233c8     libucrt:libm_error.obj
 0004:000013d4       $pdata$_handle_error       00000001400233d4     libucrt:libm_error.obj
 0004:000013e0       $pdata$__acrt_initialize_fma3 00000001400233e0     libucrt:fma3_available.obj
 0004:000013ec       $pdata$_log_special_common 00000001400233ec     libucrt:log_special.obj
 0004:000013f8       $pdata$_log10_special      00000001400233f8     libucrt:log_special.obj
 0004:00001410       $pdata$_set_errno_from_matherr 0000000140023410     libucrt:fpexcept.obj
 0004:0000141c       $pdata$_raise_exc          000000014002341c     libucrt:fpexcept.obj
 0004:00001428       $pdata$_raise_exc_ex       0000000140023428     libucrt:fpexcept.obj
 0004:00001434       $pdata$_clrfp              0000000140023434     libucrt:fpctrl.obj
 0004:00001440       $pdata$_ctrlfp             0000000140023440     libucrt:fpctrl.obj
 0004:0000144c       $pdata$_ctrlfp$filt$0      000000014002344c     libucrt:fpctrl.obj
 0004:00001458       $pdata$_statfp             0000000140023458     libucrt:fpctrl.obj
 0004:00001464       $pdata$_set_statfp         0000000140023464     libucrt:fpctrl.obj
 0004:00001470       $pdata$ParseCommandLine    0000000140023470     SDL2main:SDL_windows_main.obj
 0004:0000147c       $pdata$2$main_getcmdline   000000014002347c     SDL2main:SDL_windows_main.obj
 0004:00001488       $pdata$0$main_getcmdline   0000000140023488     SDL2main:SDL_windows_main.obj
 0004:00001494       $pdata$main_getcmdline     0000000140023494     SDL2main:SDL_windows_main.obj
 0004:000014a0       $pdata$_IsNonwritableInCurrentImage 00000001400234a0     LIBCMT:pesect.obj
 0004:000014ac       $pdata$_IsNonwritableInCurrentImage$filt$0 00000001400234ac     LIBCMT:pesect.obj
 0004:000014d0       $pdata$strrchr             00000001400234d0     libvcruntime:strrchr.obj
 0004:000014dc       $pdata$strchr              00000001400234dc     libvcruntime:strchr.obj
